ARM GAS  C:\Users\emman\AppData\Local\Temp\ccYKiRxu.s 			page 1


   1              		.syntax unified
   2              		.cpu cortex-m3
   3              		.fpu softvfp
   4              		.eabi_attribute 20, 1
   5              		.eabi_attribute 21, 1
   6              		.eabi_attribute 23, 3
   7              		.eabi_attribute 24, 1
   8              		.eabi_attribute 25, 1
   9              		.eabi_attribute 26, 1
  10              		.eabi_attribute 30, 1
  11              		.eabi_attribute 34, 1
  12              		.eabi_attribute 18, 4
  13              		.thumb
  14              		.syntax unified
  15              		.file	"cyfitter_cfg.c"
  16              		.text
  17              	.Ltext0:
  18              		.cfi_sections	.debug_frame
  19              		.section	.text.CyClockStartupError,"ax",%progbits
  20              		.align	2
  21              		.thumb
  22              		.thumb_func
  23              		.type	CyClockStartupError, %function
  24              	CyClockStartupError:
  25              	.LFB3:
  26              		.file 1 "Generated_Source\\PSoC5\\cyfitter_cfg.c"
   1:Generated_Source\PSoC5/cyfitter_cfg.c **** 
   2:Generated_Source\PSoC5/cyfitter_cfg.c **** /*******************************************************************************
   3:Generated_Source\PSoC5/cyfitter_cfg.c **** * File Name: cyfitter_cfg.c
   4:Generated_Source\PSoC5/cyfitter_cfg.c **** * 
   5:Generated_Source\PSoC5/cyfitter_cfg.c **** * PSoC Creator  4.2
   6:Generated_Source\PSoC5/cyfitter_cfg.c **** *
   7:Generated_Source\PSoC5/cyfitter_cfg.c **** * Description:
   8:Generated_Source\PSoC5/cyfitter_cfg.c **** * This file contains device initialization code.
   9:Generated_Source\PSoC5/cyfitter_cfg.c **** * Except for the user defined sections in CyClockStartupError(), this file should not be modified.
  10:Generated_Source\PSoC5/cyfitter_cfg.c **** * This file is automatically generated by PSoC Creator.
  11:Generated_Source\PSoC5/cyfitter_cfg.c **** *
  12:Generated_Source\PSoC5/cyfitter_cfg.c **** ********************************************************************************
  13:Generated_Source\PSoC5/cyfitter_cfg.c **** * Copyright (c) 2007-2018 Cypress Semiconductor.  All rights reserved.
  14:Generated_Source\PSoC5/cyfitter_cfg.c **** * You may use this file only in accordance with the license, terms, conditions, 
  15:Generated_Source\PSoC5/cyfitter_cfg.c **** * disclaimers, and limitations in the end user license agreement accompanying 
  16:Generated_Source\PSoC5/cyfitter_cfg.c **** * the software package with which this file was provided.
  17:Generated_Source\PSoC5/cyfitter_cfg.c **** ********************************************************************************/
  18:Generated_Source\PSoC5/cyfitter_cfg.c **** 
  19:Generated_Source\PSoC5/cyfitter_cfg.c **** #include <string.h>
  20:Generated_Source\PSoC5/cyfitter_cfg.c **** #include "cytypes.h"
  21:Generated_Source\PSoC5/cyfitter_cfg.c **** #include "cydevice_trm.h"
  22:Generated_Source\PSoC5/cyfitter_cfg.c **** #include "cyfitter.h"
  23:Generated_Source\PSoC5/cyfitter_cfg.c **** #include "CyLib.h"
  24:Generated_Source\PSoC5/cyfitter_cfg.c **** #include "cyfitter_cfg.h"
  25:Generated_Source\PSoC5/cyfitter_cfg.c **** #include "cyapicallbacks.h"
  26:Generated_Source\PSoC5/cyfitter_cfg.c **** 
  27:Generated_Source\PSoC5/cyfitter_cfg.c **** #define CY_NEED_CYCLOCKSTARTUPERROR 1
  28:Generated_Source\PSoC5/cyfitter_cfg.c **** 
  29:Generated_Source\PSoC5/cyfitter_cfg.c **** 
  30:Generated_Source\PSoC5/cyfitter_cfg.c **** #if defined(__GNUC__) || defined(__ARMCC_VERSION)
  31:Generated_Source\PSoC5/cyfitter_cfg.c ****     #define CYPACKED 
ARM GAS  C:\Users\emman\AppData\Local\Temp\ccYKiRxu.s 			page 2


  32:Generated_Source\PSoC5/cyfitter_cfg.c ****     #define CYPACKED_ATTR __attribute__ ((packed))
  33:Generated_Source\PSoC5/cyfitter_cfg.c ****     #define CYALIGNED __attribute__ ((aligned))
  34:Generated_Source\PSoC5/cyfitter_cfg.c ****     #define CY_CFG_UNUSED __attribute__ ((unused))
  35:Generated_Source\PSoC5/cyfitter_cfg.c ****     #ifndef CY_CFG_SECTION
  36:Generated_Source\PSoC5/cyfitter_cfg.c ****         #define CY_CFG_SECTION __attribute__ ((section(".psocinit")))
  37:Generated_Source\PSoC5/cyfitter_cfg.c ****     #endif
  38:Generated_Source\PSoC5/cyfitter_cfg.c ****     
  39:Generated_Source\PSoC5/cyfitter_cfg.c ****     #if defined(__ARMCC_VERSION)
  40:Generated_Source\PSoC5/cyfitter_cfg.c ****         #define CY_CFG_MEMORY_BARRIER() __memory_changed()
  41:Generated_Source\PSoC5/cyfitter_cfg.c ****     #else
  42:Generated_Source\PSoC5/cyfitter_cfg.c ****         #define CY_CFG_MEMORY_BARRIER() __sync_synchronize()
  43:Generated_Source\PSoC5/cyfitter_cfg.c ****     #endif
  44:Generated_Source\PSoC5/cyfitter_cfg.c ****     
  45:Generated_Source\PSoC5/cyfitter_cfg.c **** #elif defined(__ICCARM__)
  46:Generated_Source\PSoC5/cyfitter_cfg.c ****     #include <intrinsics.h>
  47:Generated_Source\PSoC5/cyfitter_cfg.c **** 
  48:Generated_Source\PSoC5/cyfitter_cfg.c ****     #define CYPACKED __packed
  49:Generated_Source\PSoC5/cyfitter_cfg.c ****     #define CYPACKED_ATTR 
  50:Generated_Source\PSoC5/cyfitter_cfg.c ****     #define CYALIGNED _Pragma("data_alignment=4")
  51:Generated_Source\PSoC5/cyfitter_cfg.c ****     #define CY_CFG_UNUSED _Pragma("diag_suppress=Pe177")
  52:Generated_Source\PSoC5/cyfitter_cfg.c ****     #define CY_CFG_SECTION _Pragma("location=\".psocinit\"")
  53:Generated_Source\PSoC5/cyfitter_cfg.c ****     
  54:Generated_Source\PSoC5/cyfitter_cfg.c ****     #define CY_CFG_MEMORY_BARRIER() __DMB()
  55:Generated_Source\PSoC5/cyfitter_cfg.c ****     
  56:Generated_Source\PSoC5/cyfitter_cfg.c **** #else
  57:Generated_Source\PSoC5/cyfitter_cfg.c ****     #error Unsupported toolchain
  58:Generated_Source\PSoC5/cyfitter_cfg.c **** #endif
  59:Generated_Source\PSoC5/cyfitter_cfg.c **** 
  60:Generated_Source\PSoC5/cyfitter_cfg.c **** #ifndef CYCODE
  61:Generated_Source\PSoC5/cyfitter_cfg.c ****     #define CYCODE
  62:Generated_Source\PSoC5/cyfitter_cfg.c **** #endif
  63:Generated_Source\PSoC5/cyfitter_cfg.c **** #ifndef CYDATA
  64:Generated_Source\PSoC5/cyfitter_cfg.c ****     #define CYDATA
  65:Generated_Source\PSoC5/cyfitter_cfg.c **** #endif
  66:Generated_Source\PSoC5/cyfitter_cfg.c **** #ifndef CYFAR
  67:Generated_Source\PSoC5/cyfitter_cfg.c ****     #define CYFAR
  68:Generated_Source\PSoC5/cyfitter_cfg.c **** #endif
  69:Generated_Source\PSoC5/cyfitter_cfg.c **** #ifndef CYXDATA
  70:Generated_Source\PSoC5/cyfitter_cfg.c ****     #define CYXDATA
  71:Generated_Source\PSoC5/cyfitter_cfg.c **** #endif
  72:Generated_Source\PSoC5/cyfitter_cfg.c **** 
  73:Generated_Source\PSoC5/cyfitter_cfg.c **** 
  74:Generated_Source\PSoC5/cyfitter_cfg.c **** CY_CFG_UNUSED
  75:Generated_Source\PSoC5/cyfitter_cfg.c **** static void CYMEMZERO(void *s, size_t n);
  76:Generated_Source\PSoC5/cyfitter_cfg.c **** CY_CFG_UNUSED
  77:Generated_Source\PSoC5/cyfitter_cfg.c **** static void CYMEMZERO(void *s, size_t n)
  78:Generated_Source\PSoC5/cyfitter_cfg.c **** {
  79:Generated_Source\PSoC5/cyfitter_cfg.c **** 	(void)memset(s, 0, n);
  80:Generated_Source\PSoC5/cyfitter_cfg.c **** }
  81:Generated_Source\PSoC5/cyfitter_cfg.c **** CY_CFG_UNUSED
  82:Generated_Source\PSoC5/cyfitter_cfg.c **** static void CYCONFIGCPY(void *dest, const void *src, size_t n);
  83:Generated_Source\PSoC5/cyfitter_cfg.c **** CY_CFG_UNUSED
  84:Generated_Source\PSoC5/cyfitter_cfg.c **** static void CYCONFIGCPY(void *dest, const void *src, size_t n)
  85:Generated_Source\PSoC5/cyfitter_cfg.c **** {
  86:Generated_Source\PSoC5/cyfitter_cfg.c **** 	(void)memcpy(dest, src, n);
  87:Generated_Source\PSoC5/cyfitter_cfg.c **** }
  88:Generated_Source\PSoC5/cyfitter_cfg.c **** CY_CFG_UNUSED
ARM GAS  C:\Users\emman\AppData\Local\Temp\ccYKiRxu.s 			page 3


  89:Generated_Source\PSoC5/cyfitter_cfg.c **** static void CYCONFIGCPYCODE(void *dest, const void *src, size_t n);
  90:Generated_Source\PSoC5/cyfitter_cfg.c **** CY_CFG_UNUSED
  91:Generated_Source\PSoC5/cyfitter_cfg.c **** static void CYCONFIGCPYCODE(void *dest, const void *src, size_t n)
  92:Generated_Source\PSoC5/cyfitter_cfg.c **** {
  93:Generated_Source\PSoC5/cyfitter_cfg.c **** 	(void)memcpy(dest, src, n);
  94:Generated_Source\PSoC5/cyfitter_cfg.c **** }
  95:Generated_Source\PSoC5/cyfitter_cfg.c **** 
  96:Generated_Source\PSoC5/cyfitter_cfg.c **** 
  97:Generated_Source\PSoC5/cyfitter_cfg.c **** 
  98:Generated_Source\PSoC5/cyfitter_cfg.c **** 
  99:Generated_Source\PSoC5/cyfitter_cfg.c **** /* Clock startup error codes                                                   */
 100:Generated_Source\PSoC5/cyfitter_cfg.c **** #define CYCLOCKSTART_NO_ERROR    0u
 101:Generated_Source\PSoC5/cyfitter_cfg.c **** #define CYCLOCKSTART_XTAL_ERROR  1u
 102:Generated_Source\PSoC5/cyfitter_cfg.c **** #define CYCLOCKSTART_32KHZ_ERROR 2u
 103:Generated_Source\PSoC5/cyfitter_cfg.c **** #define CYCLOCKSTART_PLL_ERROR   3u
 104:Generated_Source\PSoC5/cyfitter_cfg.c **** #define CYCLOCKSTART_FLL_ERROR   4u
 105:Generated_Source\PSoC5/cyfitter_cfg.c **** #define CYCLOCKSTART_WCO_ERROR   5u
 106:Generated_Source\PSoC5/cyfitter_cfg.c **** 
 107:Generated_Source\PSoC5/cyfitter_cfg.c **** 
 108:Generated_Source\PSoC5/cyfitter_cfg.c **** #ifdef CY_NEED_CYCLOCKSTARTUPERROR
 109:Generated_Source\PSoC5/cyfitter_cfg.c **** /*******************************************************************************
 110:Generated_Source\PSoC5/cyfitter_cfg.c **** * Function Name: CyClockStartupError
 111:Generated_Source\PSoC5/cyfitter_cfg.c **** ********************************************************************************
 112:Generated_Source\PSoC5/cyfitter_cfg.c **** * Summary:
 113:Generated_Source\PSoC5/cyfitter_cfg.c **** *  If an error is encountered during clock configuration (crystal startup error,
 114:Generated_Source\PSoC5/cyfitter_cfg.c **** *  PLL lock error, etc.), the system will end up here.  Unless reimplemented by
 115:Generated_Source\PSoC5/cyfitter_cfg.c **** *  the customer, this function will stop in an infinite loop.
 116:Generated_Source\PSoC5/cyfitter_cfg.c **** *
 117:Generated_Source\PSoC5/cyfitter_cfg.c **** * Parameters:
 118:Generated_Source\PSoC5/cyfitter_cfg.c **** *   void
 119:Generated_Source\PSoC5/cyfitter_cfg.c **** *
 120:Generated_Source\PSoC5/cyfitter_cfg.c **** * Return:
 121:Generated_Source\PSoC5/cyfitter_cfg.c **** *   void
 122:Generated_Source\PSoC5/cyfitter_cfg.c **** *
 123:Generated_Source\PSoC5/cyfitter_cfg.c **** *******************************************************************************/
 124:Generated_Source\PSoC5/cyfitter_cfg.c **** CY_CFG_UNUSED
 125:Generated_Source\PSoC5/cyfitter_cfg.c **** static void CyClockStartupError(uint8 errorCode);
 126:Generated_Source\PSoC5/cyfitter_cfg.c **** CY_CFG_UNUSED
 127:Generated_Source\PSoC5/cyfitter_cfg.c **** static void CyClockStartupError(uint8 errorCode)
 128:Generated_Source\PSoC5/cyfitter_cfg.c **** {
  27              		.loc 1 128 0
  28              		.cfi_startproc
  29              		@ Volatile: function does not return.
  30              		@ args = 0, pretend = 0, frame = 0
  31              		@ frame_needed = 0, uses_anonymous_args = 0
  32              		@ link register save eliminated.
  33              	.LVL0:
  34              	.L2:
  35 0000 FEE7     		b	.L2
  36              		.cfi_endproc
  37              	.LFE3:
  38              		.size	CyClockStartupError, .-CyClockStartupError
  39 0002 00BF     		.section	.text.cfg_write_bytes32,"ax",%progbits
  40              		.align	2
  41              		.thumb
  42              		.thumb_func
  43              		.type	cfg_write_bytes32, %function
ARM GAS  C:\Users\emman\AppData\Local\Temp\ccYKiRxu.s 			page 4


  44              	cfg_write_bytes32:
  45              	.LFB4:
 129:Generated_Source\PSoC5/cyfitter_cfg.c ****     /* To remove the compiler warning if errorCode not used.                */
 130:Generated_Source\PSoC5/cyfitter_cfg.c ****     errorCode = errorCode;
 131:Generated_Source\PSoC5/cyfitter_cfg.c **** 
 132:Generated_Source\PSoC5/cyfitter_cfg.c ****     /* If we have a clock startup error (bad MHz crystal, PLL lock, etc.),  */
 133:Generated_Source\PSoC5/cyfitter_cfg.c ****     /* we will end up here to allow the customer to implement something to  */
 134:Generated_Source\PSoC5/cyfitter_cfg.c ****     /* deal with the clock condition.                                       */
 135:Generated_Source\PSoC5/cyfitter_cfg.c **** 
 136:Generated_Source\PSoC5/cyfitter_cfg.c **** #ifdef CY_CFG_CLOCK_STARTUP_ERROR_CALLBACK
 137:Generated_Source\PSoC5/cyfitter_cfg.c ****     CY_CFG_Clock_Startup_ErrorCallback();
 138:Generated_Source\PSoC5/cyfitter_cfg.c **** #else
 139:Generated_Source\PSoC5/cyfitter_cfg.c ****     /*  If not using CY_CFG_CLOCK_STARTUP_ERROR_CALLBACK, place your clock startup code here. */
 140:Generated_Source\PSoC5/cyfitter_cfg.c ****     /* `#START CyClockStartupError` */
 141:Generated_Source\PSoC5/cyfitter_cfg.c **** 
 142:Generated_Source\PSoC5/cyfitter_cfg.c **** 
 143:Generated_Source\PSoC5/cyfitter_cfg.c **** 
 144:Generated_Source\PSoC5/cyfitter_cfg.c ****     /* `#END` */
 145:Generated_Source\PSoC5/cyfitter_cfg.c **** 
 146:Generated_Source\PSoC5/cyfitter_cfg.c ****     while(1) {}
 147:Generated_Source\PSoC5/cyfitter_cfg.c **** #endif /* CY_CFG_CLOCK_STARTUP_ERROR_CALLBACK */
 148:Generated_Source\PSoC5/cyfitter_cfg.c **** }
 149:Generated_Source\PSoC5/cyfitter_cfg.c **** #endif
 150:Generated_Source\PSoC5/cyfitter_cfg.c **** 
 151:Generated_Source\PSoC5/cyfitter_cfg.c **** #define CY_CFG_BASE_ADDR_COUNT 27u
 152:Generated_Source\PSoC5/cyfitter_cfg.c **** CYPACKED typedef struct
 153:Generated_Source\PSoC5/cyfitter_cfg.c **** {
 154:Generated_Source\PSoC5/cyfitter_cfg.c **** 	uint8 offset;
 155:Generated_Source\PSoC5/cyfitter_cfg.c **** 	uint8 value;
 156:Generated_Source\PSoC5/cyfitter_cfg.c **** } CYPACKED_ATTR cy_cfg_addrvalue_t;
 157:Generated_Source\PSoC5/cyfitter_cfg.c **** 
 158:Generated_Source\PSoC5/cyfitter_cfg.c **** #define cy_cfg_addr_table ((const uint32 CYFAR *)0x48000000u)
 159:Generated_Source\PSoC5/cyfitter_cfg.c **** #define cy_cfg_data_table ((const cy_cfg_addrvalue_t CYFAR *)0x4800006Cu)
 160:Generated_Source\PSoC5/cyfitter_cfg.c **** 
 161:Generated_Source\PSoC5/cyfitter_cfg.c **** /* IOPINS0_7 Address: CYREG_PRT12_DR Size (bytes): 10 */
 162:Generated_Source\PSoC5/cyfitter_cfg.c **** #define BS_IOPINS0_7_VAL ((const uint8 CYFAR *)0x4800028Cu)
 163:Generated_Source\PSoC5/cyfitter_cfg.c **** 
 164:Generated_Source\PSoC5/cyfitter_cfg.c **** /* IOPINS1_7 Address: CYREG_PRT12_DR + 0x0000000Bu Size (bytes): 5 */
 165:Generated_Source\PSoC5/cyfitter_cfg.c **** #define BS_IOPINS1_7_VAL ((const uint8 CYFAR *)0x48000298u)
 166:Generated_Source\PSoC5/cyfitter_cfg.c **** 
 167:Generated_Source\PSoC5/cyfitter_cfg.c **** /* IOPINS0_1 Address: CYREG_PRT1_DM0 Size (bytes): 8 */
 168:Generated_Source\PSoC5/cyfitter_cfg.c **** #define BS_IOPINS0_1_VAL ((const uint8 CYFAR *)0x480002A0u)
 169:Generated_Source\PSoC5/cyfitter_cfg.c **** 
 170:Generated_Source\PSoC5/cyfitter_cfg.c **** /* IOPINS0_2 Address: CYREG_PRT2_DM0 Size (bytes): 8 */
 171:Generated_Source\PSoC5/cyfitter_cfg.c **** #define BS_IOPINS0_2_VAL ((const uint8 CYFAR *)0x480002A8u)
 172:Generated_Source\PSoC5/cyfitter_cfg.c **** 
 173:Generated_Source\PSoC5/cyfitter_cfg.c **** /* IOPINS0_4 Address: CYREG_PRT4_DR Size (bytes): 10 */
 174:Generated_Source\PSoC5/cyfitter_cfg.c **** #define BS_IOPINS0_4_VAL ((const uint8 CYFAR *)0x480002B0u)
 175:Generated_Source\PSoC5/cyfitter_cfg.c **** 
 176:Generated_Source\PSoC5/cyfitter_cfg.c **** /* CYDEV_CLKDIST_ACFG0_CFG0 Address: CYREG_CLKDIST_ACFG0_CFG0 Size (bytes): 4 */
 177:Generated_Source\PSoC5/cyfitter_cfg.c **** #define BS_CYDEV_CLKDIST_ACFG0_CFG0_VAL ((const uint8 CYFAR *)0x480002BCu)
 178:Generated_Source\PSoC5/cyfitter_cfg.c **** 
 179:Generated_Source\PSoC5/cyfitter_cfg.c **** 
 180:Generated_Source\PSoC5/cyfitter_cfg.c **** /*******************************************************************************
 181:Generated_Source\PSoC5/cyfitter_cfg.c **** * Function Name: cfg_write_bytes32
 182:Generated_Source\PSoC5/cyfitter_cfg.c **** ********************************************************************************
 183:Generated_Source\PSoC5/cyfitter_cfg.c **** * Summary:
ARM GAS  C:\Users\emman\AppData\Local\Temp\ccYKiRxu.s 			page 5


 184:Generated_Source\PSoC5/cyfitter_cfg.c **** *  This function is used for setting up the chip configuration areas that
 185:Generated_Source\PSoC5/cyfitter_cfg.c **** *  contain relatively sparse data.
 186:Generated_Source\PSoC5/cyfitter_cfg.c **** *
 187:Generated_Source\PSoC5/cyfitter_cfg.c **** * Parameters:
 188:Generated_Source\PSoC5/cyfitter_cfg.c **** *   void
 189:Generated_Source\PSoC5/cyfitter_cfg.c **** *
 190:Generated_Source\PSoC5/cyfitter_cfg.c **** * Return:
 191:Generated_Source\PSoC5/cyfitter_cfg.c **** *   void
 192:Generated_Source\PSoC5/cyfitter_cfg.c **** *
 193:Generated_Source\PSoC5/cyfitter_cfg.c **** *******************************************************************************/
 194:Generated_Source\PSoC5/cyfitter_cfg.c **** static void cfg_write_bytes32(const uint32 addr_table[], const cy_cfg_addrvalue_t data_table[]);
 195:Generated_Source\PSoC5/cyfitter_cfg.c **** static void cfg_write_bytes32(const uint32 addr_table[], const cy_cfg_addrvalue_t data_table[])
 196:Generated_Source\PSoC5/cyfitter_cfg.c **** {
  46              		.loc 1 196 0
  47              		.cfi_startproc
  48              		@ args = 0, pretend = 0, frame = 0
  49              		@ frame_needed = 0, uses_anonymous_args = 0
  50              		@ link register save eliminated.
  51              	.LVL1:
  52              		.loc 1 196 0
  53 0000 F0B4     		push	{r4, r5, r6, r7}
  54              		.cfi_def_cfa_offset 16
  55              		.cfi_offset 4, -16
  56              		.cfi_offset 5, -12
  57              		.cfi_offset 6, -8
  58              		.cfi_offset 7, -4
  59              	.LVL2:
 197:Generated_Source\PSoC5/cyfitter_cfg.c **** 	/* For 32-bit little-endian architectures */
 198:Generated_Source\PSoC5/cyfitter_cfg.c **** 	uint32 i, j = 0u;
  60              		.loc 1 198 0
  61 0002 0022     		movs	r2, #0
 199:Generated_Source\PSoC5/cyfitter_cfg.c **** 	for (i = 0u; i < CY_CFG_BASE_ADDR_COUNT; i++)
  62              		.loc 1 199 0
  63 0004 1746     		mov	r7, r2
  64 0006 11E0     		b	.L4
  65              	.LVL3:
  66              	.L7:
  67              	.LBB2:
 200:Generated_Source\PSoC5/cyfitter_cfg.c **** 	{
 201:Generated_Source\PSoC5/cyfitter_cfg.c **** 		uint32 baseAddr = addr_table[i];
  68              		.loc 1 201 0
  69 0008 50F82760 		ldr	r6, [r0, r7, lsl #2]
  70              	.LVL4:
 202:Generated_Source\PSoC5/cyfitter_cfg.c **** 		uint8 count = (uint8)baseAddr;
  71              		.loc 1 202 0
  72 000c F3B2     		uxtb	r3, r6
  73              	.LVL5:
 203:Generated_Source\PSoC5/cyfitter_cfg.c **** 		baseAddr &= 0xFFFFFF00u;
  74              		.loc 1 203 0
  75 000e 26F0FF06 		bic	r6, r6, #255
  76              	.LVL6:
 204:Generated_Source\PSoC5/cyfitter_cfg.c **** 		while (count != 0u)
  77              		.loc 1 204 0
  78 0012 08E0     		b	.L5
  79              	.L6:
 205:Generated_Source\PSoC5/cyfitter_cfg.c **** 		{
 206:Generated_Source\PSoC5/cyfitter_cfg.c **** 			CY_SET_REG8((void *)(baseAddr + data_table[j].offset), data_table[j].value);
ARM GAS  C:\Users\emman\AppData\Local\Temp\ccYKiRxu.s 			page 6


  80              		.loc 1 206 0
  81 0014 01EB4205 		add	r5, r1, r2, lsl #1
  82 0018 11F81240 		ldrb	r4, [r1, r2, lsl #1]	@ zero_extendqisi2
  83 001c 6D78     		ldrb	r5, [r5, #1]	@ zero_extendqisi2
  84 001e A555     		strb	r5, [r4, r6]
 207:Generated_Source\PSoC5/cyfitter_cfg.c **** 			j++;
  85              		.loc 1 207 0
  86 0020 0132     		adds	r2, r2, #1
  87              	.LVL7:
 208:Generated_Source\PSoC5/cyfitter_cfg.c **** 			count--;
  88              		.loc 1 208 0
  89 0022 013B     		subs	r3, r3, #1
  90              	.LVL8:
  91 0024 DBB2     		uxtb	r3, r3
  92              	.LVL9:
  93              	.L5:
 204:Generated_Source\PSoC5/cyfitter_cfg.c **** 		{
  94              		.loc 1 204 0
  95 0026 002B     		cmp	r3, #0
  96 0028 F4D1     		bne	.L6
  97              	.LBE2:
 199:Generated_Source\PSoC5/cyfitter_cfg.c **** 	{
  98              		.loc 1 199 0 discriminator 2
  99 002a 0137     		adds	r7, r7, #1
 100              	.LVL10:
 101              	.L4:
 199:Generated_Source\PSoC5/cyfitter_cfg.c **** 	{
 102              		.loc 1 199 0 is_stmt 0 discriminator 1
 103 002c 1A2F     		cmp	r7, #26
 104 002e EBD9     		bls	.L7
 209:Generated_Source\PSoC5/cyfitter_cfg.c **** 		}
 210:Generated_Source\PSoC5/cyfitter_cfg.c **** 	}
 211:Generated_Source\PSoC5/cyfitter_cfg.c **** }
 105              		.loc 1 211 0 is_stmt 1
 106 0030 F0BC     		pop	{r4, r5, r6, r7}
 107              		.cfi_restore 7
 108              		.cfi_restore 6
 109              		.cfi_restore 5
 110              		.cfi_restore 4
 111              		.cfi_def_cfa_offset 0
 112              	.LVL11:
 113 0032 7047     		bx	lr
 114              		.cfi_endproc
 115              	.LFE4:
 116              		.size	cfg_write_bytes32, .-cfg_write_bytes32
 117              		.section	.text.AnalogSetDefault,"ax",%progbits
 118              		.align	2
 119              		.thumb
 120              		.thumb_func
 121              		.type	AnalogSetDefault, %function
 122              	AnalogSetDefault:
 123              	.LFB6:
 212:Generated_Source\PSoC5/cyfitter_cfg.c **** 
 213:Generated_Source\PSoC5/cyfitter_cfg.c **** /*******************************************************************************
 214:Generated_Source\PSoC5/cyfitter_cfg.c **** * Function Name: ClockSetup
 215:Generated_Source\PSoC5/cyfitter_cfg.c **** ********************************************************************************
 216:Generated_Source\PSoC5/cyfitter_cfg.c **** *
ARM GAS  C:\Users\emman\AppData\Local\Temp\ccYKiRxu.s 			page 7


 217:Generated_Source\PSoC5/cyfitter_cfg.c **** * Summary:
 218:Generated_Source\PSoC5/cyfitter_cfg.c **** *  Performs the initialization of all of the clocks in the device based on the
 219:Generated_Source\PSoC5/cyfitter_cfg.c **** *  settings in the Clock tab of the DWR.  This includes enabling the requested
 220:Generated_Source\PSoC5/cyfitter_cfg.c **** *  clocks and setting the necessary dividers to produce the desired frequency. 
 221:Generated_Source\PSoC5/cyfitter_cfg.c **** *
 222:Generated_Source\PSoC5/cyfitter_cfg.c **** * Parameters:
 223:Generated_Source\PSoC5/cyfitter_cfg.c **** *  void
 224:Generated_Source\PSoC5/cyfitter_cfg.c **** *
 225:Generated_Source\PSoC5/cyfitter_cfg.c **** * Return:
 226:Generated_Source\PSoC5/cyfitter_cfg.c **** *  void
 227:Generated_Source\PSoC5/cyfitter_cfg.c **** *
 228:Generated_Source\PSoC5/cyfitter_cfg.c **** *******************************************************************************/
 229:Generated_Source\PSoC5/cyfitter_cfg.c **** static void ClockSetup(void);
 230:Generated_Source\PSoC5/cyfitter_cfg.c **** static void ClockSetup(void)
 231:Generated_Source\PSoC5/cyfitter_cfg.c **** {
 232:Generated_Source\PSoC5/cyfitter_cfg.c **** 	uint32 timeout;
 233:Generated_Source\PSoC5/cyfitter_cfg.c **** 	uint8 pllLock;
 234:Generated_Source\PSoC5/cyfitter_cfg.c **** 
 235:Generated_Source\PSoC5/cyfitter_cfg.c **** 
 236:Generated_Source\PSoC5/cyfitter_cfg.c **** 	/* Configure Digital Clocks based on settings from Clock DWR */
 237:Generated_Source\PSoC5/cyfitter_cfg.c **** 	CY_SET_XTND_REG16((void CYFAR *)(CYREG_CLKDIST_DCFG0_CFG0), 0x0000u);
 238:Generated_Source\PSoC5/cyfitter_cfg.c **** 	CY_SET_XTND_REG8((void CYFAR *)(CYREG_CLKDIST_DCFG0_CFG0 + 0x2u), 0x50u);
 239:Generated_Source\PSoC5/cyfitter_cfg.c **** 	CY_SET_XTND_REG16((void CYFAR *)(CYREG_CLKDIST_DCFG1_CFG0), 0x0017u);
 240:Generated_Source\PSoC5/cyfitter_cfg.c **** 	CY_SET_XTND_REG8((void CYFAR *)(CYREG_CLKDIST_DCFG1_CFG0 + 0x2u), 0x18u);
 241:Generated_Source\PSoC5/cyfitter_cfg.c **** 
 242:Generated_Source\PSoC5/cyfitter_cfg.c **** 	/* Configure Analog Clocks based on settings from Clock DWR */
 243:Generated_Source\PSoC5/cyfitter_cfg.c **** 	CYCONFIGCPY((void CYFAR *)(CYREG_CLKDIST_ACFG0_CFG0), (const void CYFAR *)(BS_CYDEV_CLKDIST_ACFG0_
 244:Generated_Source\PSoC5/cyfitter_cfg.c **** 
 245:Generated_Source\PSoC5/cyfitter_cfg.c **** 	/* Configure ILO based on settings from Clock DWR */
 246:Generated_Source\PSoC5/cyfitter_cfg.c **** 	CY_SET_XTND_REG8((void CYFAR *)(CYREG_SLOWCLK_ILO_CR0), 0x02u);
 247:Generated_Source\PSoC5/cyfitter_cfg.c **** 	CY_SET_XTND_REG8((void CYFAR *)(CYREG_CLKDIST_CR), 0x08u);
 248:Generated_Source\PSoC5/cyfitter_cfg.c **** 
 249:Generated_Source\PSoC5/cyfitter_cfg.c **** 	/* Configure IMO based on settings from Clock DWR */
 250:Generated_Source\PSoC5/cyfitter_cfg.c **** 	CY_SET_XTND_REG8((void CYFAR *)(CYREG_FASTCLK_IMO_CR), 0x03u);
 251:Generated_Source\PSoC5/cyfitter_cfg.c **** 	CY_SET_XTND_REG8((void CYFAR *)(CYREG_IMO_TR1), (CY_GET_XTND_REG8((void CYFAR *)CYREG_FLSHID_CUST_
 252:Generated_Source\PSoC5/cyfitter_cfg.c **** 
 253:Generated_Source\PSoC5/cyfitter_cfg.c **** 	/* Configure PLL based on settings from Clock DWR */
 254:Generated_Source\PSoC5/cyfitter_cfg.c **** 	CY_SET_XTND_REG16((void CYFAR *)(CYREG_FASTCLK_PLL_P), 0x0008u);
 255:Generated_Source\PSoC5/cyfitter_cfg.c **** 	CY_SET_XTND_REG16((void CYFAR *)(CYREG_FASTCLK_PLL_CFG0), 0x1251u);
 256:Generated_Source\PSoC5/cyfitter_cfg.c **** 	/* Wait up to 250us for the PLL to lock */
 257:Generated_Source\PSoC5/cyfitter_cfg.c **** 	pllLock = 0u;
 258:Generated_Source\PSoC5/cyfitter_cfg.c **** 	for (timeout = 250u / 10u; (timeout > 0u) && (pllLock != 0x03u); timeout--)
 259:Generated_Source\PSoC5/cyfitter_cfg.c **** 	{ 
 260:Generated_Source\PSoC5/cyfitter_cfg.c **** 		pllLock = 0x03u & ((uint8)((uint8)pllLock << 1) | ((CY_GET_XTND_REG8((void CYFAR *)CYREG_FASTCLK_
 261:Generated_Source\PSoC5/cyfitter_cfg.c **** 		CyDelayCycles(10u * 48u); /* Delay 10us based on 48MHz clock */
 262:Generated_Source\PSoC5/cyfitter_cfg.c **** 	}
 263:Generated_Source\PSoC5/cyfitter_cfg.c **** 	/* If we ran out of time the PLL didn't lock so go to the error function */
 264:Generated_Source\PSoC5/cyfitter_cfg.c **** 	if (timeout == 0u)
 265:Generated_Source\PSoC5/cyfitter_cfg.c **** 	{
 266:Generated_Source\PSoC5/cyfitter_cfg.c **** 		CyClockStartupError(CYCLOCKSTART_PLL_ERROR);
 267:Generated_Source\PSoC5/cyfitter_cfg.c **** 	}
 268:Generated_Source\PSoC5/cyfitter_cfg.c **** 
 269:Generated_Source\PSoC5/cyfitter_cfg.c **** 	/* Configure Bus/Master Clock based on settings from Clock DWR */
 270:Generated_Source\PSoC5/cyfitter_cfg.c **** 	CY_SET_XTND_REG16((void CYFAR *)(CYREG_CLKDIST_MSTR0), 0x0100u);
 271:Generated_Source\PSoC5/cyfitter_cfg.c **** 	CY_SET_XTND_REG8((void CYFAR *)(CYREG_CLKDIST_MSTR0), 0x07u);
 272:Generated_Source\PSoC5/cyfitter_cfg.c **** 	CY_SET_XTND_REG8((void CYFAR *)(CYREG_CLKDIST_BCFG0), 0x00u);
 273:Generated_Source\PSoC5/cyfitter_cfg.c **** 	CY_SET_XTND_REG8((void CYFAR *)(CYREG_CLKDIST_BCFG2), 0x48u);
ARM GAS  C:\Users\emman\AppData\Local\Temp\ccYKiRxu.s 			page 8


 274:Generated_Source\PSoC5/cyfitter_cfg.c **** 	CY_SET_XTND_REG8((void CYFAR *)(CYREG_CLKDIST_MSTR0), 0x00u);
 275:Generated_Source\PSoC5/cyfitter_cfg.c **** 	CY_SET_XTND_REG8((void CYFAR *)(CYREG_CLKDIST_LD), 0x02u);
 276:Generated_Source\PSoC5/cyfitter_cfg.c **** 	CY_SET_XTND_REG8((void CYFAR *)(CYREG_CLKDIST_DLY1), 0x04u);
 277:Generated_Source\PSoC5/cyfitter_cfg.c **** 
 278:Generated_Source\PSoC5/cyfitter_cfg.c **** 	CY_SET_XTND_REG8((void CYFAR *)(CYREG_PM_ACT_CFG2), ((CY_GET_XTND_REG8((void CYFAR *)CYREG_PM_ACT_
 279:Generated_Source\PSoC5/cyfitter_cfg.c **** 	CY_SET_XTND_REG8((void CYFAR *)(CYREG_PM_ACT_CFG1), ((CY_GET_XTND_REG8((void CYFAR *)CYREG_PM_ACT_
 280:Generated_Source\PSoC5/cyfitter_cfg.c **** 	CY_SET_XTND_REG8((void CYFAR *)(CYREG_PM_ACT_CFG0), ((CY_GET_XTND_REG8((void CYFAR *)CYREG_PM_ACT_
 281:Generated_Source\PSoC5/cyfitter_cfg.c **** }
 282:Generated_Source\PSoC5/cyfitter_cfg.c **** 
 283:Generated_Source\PSoC5/cyfitter_cfg.c **** 
 284:Generated_Source\PSoC5/cyfitter_cfg.c **** /* Analog API Functions */
 285:Generated_Source\PSoC5/cyfitter_cfg.c **** 
 286:Generated_Source\PSoC5/cyfitter_cfg.c **** 
 287:Generated_Source\PSoC5/cyfitter_cfg.c **** /*******************************************************************************
 288:Generated_Source\PSoC5/cyfitter_cfg.c **** * Function Name: AnalogSetDefault
 289:Generated_Source\PSoC5/cyfitter_cfg.c **** ********************************************************************************
 290:Generated_Source\PSoC5/cyfitter_cfg.c **** *
 291:Generated_Source\PSoC5/cyfitter_cfg.c **** * Summary:
 292:Generated_Source\PSoC5/cyfitter_cfg.c **** *  Sets up the analog portions of the chip to default values based on chip
 293:Generated_Source\PSoC5/cyfitter_cfg.c **** *  configuration options from the project.
 294:Generated_Source\PSoC5/cyfitter_cfg.c **** *
 295:Generated_Source\PSoC5/cyfitter_cfg.c **** * Parameters:
 296:Generated_Source\PSoC5/cyfitter_cfg.c **** *  void
 297:Generated_Source\PSoC5/cyfitter_cfg.c **** *
 298:Generated_Source\PSoC5/cyfitter_cfg.c **** * Return:
 299:Generated_Source\PSoC5/cyfitter_cfg.c **** *  void
 300:Generated_Source\PSoC5/cyfitter_cfg.c **** *
 301:Generated_Source\PSoC5/cyfitter_cfg.c **** *******************************************************************************/
 302:Generated_Source\PSoC5/cyfitter_cfg.c **** static void AnalogSetDefault(void);
 303:Generated_Source\PSoC5/cyfitter_cfg.c **** static void AnalogSetDefault(void)
 304:Generated_Source\PSoC5/cyfitter_cfg.c **** {
 124              		.loc 1 304 0
 125              		.cfi_startproc
 126              		@ args = 0, pretend = 0, frame = 0
 127              		@ frame_needed = 0, uses_anonymous_args = 0
 128              		@ link register save eliminated.
 305:Generated_Source\PSoC5/cyfitter_cfg.c **** 	uint8 bg_xover_inl_trim = CY_GET_XTND_REG8((void CYFAR *)(CYREG_FLSHID_MFG_CFG_BG_XOVER_INL_TRIM +
 129              		.loc 1 305 0
 130 0000 064B     		ldr	r3, .L10
 131 0002 1B78     		ldrb	r3, [r3]	@ zero_extendqisi2
 132 0004 DBB2     		uxtb	r3, r3
 133              	.LVL12:
 306:Generated_Source\PSoC5/cyfitter_cfg.c **** 	CY_SET_XTND_REG8((void CYFAR *)(CYREG_BG_DFT0), (bg_xover_inl_trim & 0x07u));
 134              		.loc 1 306 0
 135 0006 03F00701 		and	r1, r3, #7
 136 000a 054A     		ldr	r2, .L10+4
 137 000c 1170     		strb	r1, [r2]
 307:Generated_Source\PSoC5/cyfitter_cfg.c **** 	CY_SET_XTND_REG8((void CYFAR *)(CYREG_BG_DFT1), ((bg_xover_inl_trim >> 4) & 0x0Fu));
 138              		.loc 1 307 0
 139 000e 1B09     		lsrs	r3, r3, #4
 140              	.LVL13:
 141 0010 0132     		adds	r2, r2, #1
 142 0012 1370     		strb	r3, [r2]
 308:Generated_Source\PSoC5/cyfitter_cfg.c **** 	CY_SET_XTND_REG8((void CYFAR *)CYREG_PUMP_CR0, 0x44u);
 143              		.loc 1 308 0
 144 0014 4422     		movs	r2, #68
 145 0016 034B     		ldr	r3, .L10+8
ARM GAS  C:\Users\emman\AppData\Local\Temp\ccYKiRxu.s 			page 9


 146 0018 1A70     		strb	r2, [r3]
 147 001a 7047     		bx	lr
 148              	.L11:
 149              		.align	2
 150              	.L10:
 151 001c CF010049 		.word	1224737231
 152 0020 6E580040 		.word	1073764462
 153 0024 76580040 		.word	1073764470
 154              		.cfi_endproc
 155              	.LFE6:
 156              		.size	AnalogSetDefault, .-AnalogSetDefault
 157              		.section	.text.CYMEMZERO,"ax",%progbits
 158              		.align	2
 159              		.thumb
 160              		.thumb_func
 161              		.type	CYMEMZERO, %function
 162              	CYMEMZERO:
 163              	.LFB0:
  78:Generated_Source\PSoC5/cyfitter_cfg.c **** 	(void)memset(s, 0, n);
 164              		.loc 1 78 0
 165              		.cfi_startproc
 166              		@ args = 0, pretend = 0, frame = 0
 167              		@ frame_needed = 0, uses_anonymous_args = 0
 168              	.LVL14:
 169 0000 08B5     		push	{r3, lr}
 170              		.cfi_def_cfa_offset 8
 171              		.cfi_offset 3, -8
 172              		.cfi_offset 14, -4
  79:Generated_Source\PSoC5/cyfitter_cfg.c **** }
 173              		.loc 1 79 0
 174 0002 0A46     		mov	r2, r1
 175 0004 0021     		movs	r1, #0
 176              	.LVL15:
 177 0006 FFF7FEFF 		bl	memset
 178              	.LVL16:
 179 000a 08BD     		pop	{r3, pc}
 180              		.cfi_endproc
 181              	.LFE0:
 182              		.size	CYMEMZERO, .-CYMEMZERO
 183              		.section	.text.CYCONFIGCPY,"ax",%progbits
 184              		.align	2
 185              		.thumb
 186              		.thumb_func
 187              		.type	CYCONFIGCPY, %function
 188              	CYCONFIGCPY:
 189              	.LFB1:
  85:Generated_Source\PSoC5/cyfitter_cfg.c **** 	(void)memcpy(dest, src, n);
 190              		.loc 1 85 0
 191              		.cfi_startproc
 192              		@ args = 0, pretend = 0, frame = 0
 193              		@ frame_needed = 0, uses_anonymous_args = 0
 194              	.LVL17:
 195 0000 08B5     		push	{r3, lr}
 196              		.cfi_def_cfa_offset 8
 197              		.cfi_offset 3, -8
 198              		.cfi_offset 14, -4
  86:Generated_Source\PSoC5/cyfitter_cfg.c **** }
ARM GAS  C:\Users\emman\AppData\Local\Temp\ccYKiRxu.s 			page 10


 199              		.loc 1 86 0
 200 0002 FFF7FEFF 		bl	memcpy
 201              	.LVL18:
 202 0006 08BD     		pop	{r3, pc}
 203              		.cfi_endproc
 204              	.LFE1:
 205              		.size	CYCONFIGCPY, .-CYCONFIGCPY
 206              		.section	.text.ClockSetup,"ax",%progbits
 207              		.align	2
 208              		.thumb
 209              		.thumb_func
 210              		.type	ClockSetup, %function
 211              	ClockSetup:
 212              	.LFB5:
 231:Generated_Source\PSoC5/cyfitter_cfg.c **** 	uint32 timeout;
 213              		.loc 1 231 0
 214              		.cfi_startproc
 215              		@ args = 0, pretend = 0, frame = 0
 216              		@ frame_needed = 0, uses_anonymous_args = 0
 217 0000 38B5     		push	{r3, r4, r5, lr}
 218              		.cfi_def_cfa_offset 16
 219              		.cfi_offset 3, -16
 220              		.cfi_offset 4, -12
 221              		.cfi_offset 5, -8
 222              		.cfi_offset 14, -4
 237:Generated_Source\PSoC5/cyfitter_cfg.c **** 	CY_SET_XTND_REG8((void CYFAR *)(CYREG_CLKDIST_DCFG0_CFG0 + 0x2u), 0x50u);
 223              		.loc 1 237 0
 224 0002 0024     		movs	r4, #0
 225 0004 2F4B     		ldr	r3, .L22
 226 0006 1C80     		strh	r4, [r3]	@ movhi
 238:Generated_Source\PSoC5/cyfitter_cfg.c **** 	CY_SET_XTND_REG16((void CYFAR *)(CYREG_CLKDIST_DCFG1_CFG0), 0x0017u);
 227              		.loc 1 238 0
 228 0008 5022     		movs	r2, #80
 229 000a 0233     		adds	r3, r3, #2
 230 000c 1A70     		strb	r2, [r3]
 239:Generated_Source\PSoC5/cyfitter_cfg.c **** 	CY_SET_XTND_REG8((void CYFAR *)(CYREG_CLKDIST_DCFG1_CFG0 + 0x2u), 0x18u);
 231              		.loc 1 239 0
 232 000e 1722     		movs	r2, #23
 233 0010 0233     		adds	r3, r3, #2
 234 0012 1A80     		strh	r2, [r3]	@ movhi
 240:Generated_Source\PSoC5/cyfitter_cfg.c **** 
 235              		.loc 1 240 0
 236 0014 1822     		movs	r2, #24
 237 0016 0233     		adds	r3, r3, #2
 238 0018 1A70     		strb	r2, [r3]
 243:Generated_Source\PSoC5/cyfitter_cfg.c **** 
 239              		.loc 1 243 0
 240 001a 0422     		movs	r2, #4
 241 001c 2A49     		ldr	r1, .L22+4
 242 001e 2B48     		ldr	r0, .L22+8
 243 0020 FFF7FEFF 		bl	CYCONFIGCPY
 244              	.LVL19:
 246:Generated_Source\PSoC5/cyfitter_cfg.c **** 	CY_SET_XTND_REG8((void CYFAR *)(CYREG_CLKDIST_CR), 0x08u);
 245              		.loc 1 246 0
 246 0024 0222     		movs	r2, #2
 247 0026 2A4B     		ldr	r3, .L22+12
 248 0028 1A70     		strb	r2, [r3]
ARM GAS  C:\Users\emman\AppData\Local\Temp\ccYKiRxu.s 			page 11


 247:Generated_Source\PSoC5/cyfitter_cfg.c **** 
 249              		.loc 1 247 0
 250 002a 0822     		movs	r2, #8
 251 002c 4FF04023 		mov	r3, #1073758208
 252 0030 1A70     		strb	r2, [r3]
 250:Generated_Source\PSoC5/cyfitter_cfg.c **** 	CY_SET_XTND_REG8((void CYFAR *)(CYREG_IMO_TR1), (CY_GET_XTND_REG8((void CYFAR *)CYREG_FLSHID_CUST_
 253              		.loc 1 250 0
 254 0032 0321     		movs	r1, #3
 255 0034 03F50073 		add	r3, r3, #512
 256 0038 1970     		strb	r1, [r3]
 251:Generated_Source\PSoC5/cyfitter_cfg.c **** 
 257              		.loc 1 251 0
 258 003a 264B     		ldr	r3, .L22+16
 259 003c 1B78     		ldrb	r3, [r3]	@ zero_extendqisi2
 260 003e DBB2     		uxtb	r3, r3
 261 0040 2549     		ldr	r1, .L22+20
 262 0042 0B70     		strb	r3, [r1]
 254:Generated_Source\PSoC5/cyfitter_cfg.c **** 	CY_SET_XTND_REG16((void CYFAR *)(CYREG_FASTCLK_PLL_CFG0), 0x1251u);
 263              		.loc 1 254 0
 264 0044 254B     		ldr	r3, .L22+24
 265 0046 1A80     		strh	r2, [r3]	@ movhi
 255:Generated_Source\PSoC5/cyfitter_cfg.c **** 	/* Wait up to 250us for the PLL to lock */
 266              		.loc 1 255 0
 267 0048 41F25122 		movw	r2, #4689
 268 004c 023B     		subs	r3, r3, #2
 269 004e 1A80     		strh	r2, [r3]	@ movhi
 270              	.LVL20:
 258:Generated_Source\PSoC5/cyfitter_cfg.c **** 	{ 
 271              		.loc 1 258 0
 272 0050 1925     		movs	r5, #25
 273 0052 0CE0     		b	.L17
 274              	.LVL21:
 275              	.L19:
 260:Generated_Source\PSoC5/cyfitter_cfg.c **** 		CyDelayCycles(10u * 48u); /* Delay 10us based on 48MHz clock */
 276              		.loc 1 260 0 discriminator 4
 277 0054 224B     		ldr	r3, .L22+28
 278 0056 1B78     		ldrb	r3, [r3]	@ zero_extendqisi2
 279 0058 03F00103 		and	r3, r3, #1
 280 005c 43EA4404 		orr	r4, r3, r4, lsl #1
 281              	.LVL22:
 282 0060 04F00304 		and	r4, r4, #3
 283              	.LVL23:
 261:Generated_Source\PSoC5/cyfitter_cfg.c **** 	}
 284              		.loc 1 261 0 discriminator 4
 285 0064 4FF4F070 		mov	r0, #480
 286 0068 FFF7FEFF 		bl	CyDelayCycles
 287              	.LVL24:
 258:Generated_Source\PSoC5/cyfitter_cfg.c **** 	{ 
 288              		.loc 1 258 0 discriminator 4
 289 006c 013D     		subs	r5, r5, #1
 290              	.LVL25:
 291              	.L17:
 258:Generated_Source\PSoC5/cyfitter_cfg.c **** 	{ 
 292              		.loc 1 258 0 is_stmt 0 discriminator 1
 293 006e 0DB1     		cbz	r5, .L18
 258:Generated_Source\PSoC5/cyfitter_cfg.c **** 	{ 
 294              		.loc 1 258 0 discriminator 3
ARM GAS  C:\Users\emman\AppData\Local\Temp\ccYKiRxu.s 			page 12


 295 0070 032C     		cmp	r4, #3
 296 0072 EFD1     		bne	.L19
 297              	.L18:
 264:Generated_Source\PSoC5/cyfitter_cfg.c **** 	{
 298              		.loc 1 264 0 is_stmt 1
 299 0074 15B9     		cbnz	r5, .L20
 266:Generated_Source\PSoC5/cyfitter_cfg.c **** 	}
 300              		.loc 1 266 0
 301 0076 0320     		movs	r0, #3
 302 0078 FFF7FEFF 		bl	CyClockStartupError
 303              	.LVL26:
 304              	.L20:
 270:Generated_Source\PSoC5/cyfitter_cfg.c **** 	CY_SET_XTND_REG8((void CYFAR *)(CYREG_CLKDIST_MSTR0), 0x07u);
 305              		.loc 1 270 0
 306 007c 194B     		ldr	r3, .L22+32
 307 007e 4FF48072 		mov	r2, #256
 308 0082 1A80     		strh	r2, [r3]	@ movhi
 271:Generated_Source\PSoC5/cyfitter_cfg.c **** 	CY_SET_XTND_REG8((void CYFAR *)(CYREG_CLKDIST_BCFG0), 0x00u);
 309              		.loc 1 271 0
 310 0084 0722     		movs	r2, #7
 311 0086 1A70     		strb	r2, [r3]
 272:Generated_Source\PSoC5/cyfitter_cfg.c **** 	CY_SET_XTND_REG8((void CYFAR *)(CYREG_CLKDIST_BCFG2), 0x48u);
 312              		.loc 1 272 0
 313 0088 0022     		movs	r2, #0
 314 008a 1749     		ldr	r1, .L22+36
 315 008c 0A70     		strb	r2, [r1]
 273:Generated_Source\PSoC5/cyfitter_cfg.c **** 	CY_SET_XTND_REG8((void CYFAR *)(CYREG_CLKDIST_MSTR0), 0x00u);
 316              		.loc 1 273 0
 317 008e 4820     		movs	r0, #72
 318 0090 0231     		adds	r1, r1, #2
 319 0092 0870     		strb	r0, [r1]
 274:Generated_Source\PSoC5/cyfitter_cfg.c **** 	CY_SET_XTND_REG8((void CYFAR *)(CYREG_CLKDIST_LD), 0x02u);
 320              		.loc 1 274 0
 321 0094 1A70     		strb	r2, [r3]
 275:Generated_Source\PSoC5/cyfitter_cfg.c **** 	CY_SET_XTND_REG8((void CYFAR *)(CYREG_CLKDIST_DLY1), 0x04u);
 322              		.loc 1 275 0
 323 0096 0222     		movs	r2, #2
 324 0098 033B     		subs	r3, r3, #3
 325 009a 1A70     		strb	r2, [r3]
 276:Generated_Source\PSoC5/cyfitter_cfg.c **** 
 326              		.loc 1 276 0
 327 009c 0422     		movs	r2, #4
 328 009e 0A33     		adds	r3, r3, #10
 329 00a0 1A70     		strb	r2, [r3]
 278:Generated_Source\PSoC5/cyfitter_cfg.c **** 	CY_SET_XTND_REG8((void CYFAR *)(CYREG_PM_ACT_CFG1), ((CY_GET_XTND_REG8((void CYFAR *)CYREG_PM_ACT_
 330              		.loc 1 278 0
 331 00a2 124A     		ldr	r2, .L22+40
 332 00a4 1378     		ldrb	r3, [r2]	@ zero_extendqisi2
 333 00a6 43F00303 		orr	r3, r3, #3
 334 00aa 1370     		strb	r3, [r2]
 279:Generated_Source\PSoC5/cyfitter_cfg.c **** 	CY_SET_XTND_REG8((void CYFAR *)(CYREG_PM_ACT_CFG0), ((CY_GET_XTND_REG8((void CYFAR *)CYREG_PM_ACT_
 335              		.loc 1 279 0
 336 00ac 013A     		subs	r2, r2, #1
 337 00ae 1378     		ldrb	r3, [r2]	@ zero_extendqisi2
 338 00b0 43F00103 		orr	r3, r3, #1
 339 00b4 1370     		strb	r3, [r2]
 280:Generated_Source\PSoC5/cyfitter_cfg.c **** }
ARM GAS  C:\Users\emman\AppData\Local\Temp\ccYKiRxu.s 			page 13


 340              		.loc 1 280 0
 341 00b6 013A     		subs	r2, r2, #1
 342 00b8 1378     		ldrb	r3, [r2]	@ zero_extendqisi2
 343 00ba 43F08003 		orr	r3, r3, #128
 344 00be 1370     		strb	r3, [r2]
 345 00c0 38BD     		pop	{r3, r4, r5, pc}
 346              	.LVL27:
 347              	.L23:
 348 00c2 00BF     		.align	2
 349              	.L22:
 350 00c4 80400040 		.word	1073758336
 351 00c8 BC020048 		.word	1207960252
 352 00cc 00410040 		.word	1073758464
 353 00d0 00430040 		.word	1073758976
 354 00d4 08010049 		.word	1224737032
 355 00d8 A1460040 		.word	1073759905
 356 00dc 22420040 		.word	1073758754
 357 00e0 25420040 		.word	1073758757
 358 00e4 04400040 		.word	1073758212
 359 00e8 06400040 		.word	1073758214
 360 00ec A2430040 		.word	1073759138
 361              		.cfi_endproc
 362              	.LFE5:
 363              		.size	ClockSetup, .-ClockSetup
 364              		.section	.text.SetAnalogRoutingPumps,"ax",%progbits
 365              		.align	2
 366              		.global	SetAnalogRoutingPumps
 367              		.thumb
 368              		.thumb_func
 369              		.type	SetAnalogRoutingPumps, %function
 370              	SetAnalogRoutingPumps:
 371              	.LFB7:
 309:Generated_Source\PSoC5/cyfitter_cfg.c **** }
 310:Generated_Source\PSoC5/cyfitter_cfg.c **** 
 311:Generated_Source\PSoC5/cyfitter_cfg.c **** 
 312:Generated_Source\PSoC5/cyfitter_cfg.c **** /*******************************************************************************
 313:Generated_Source\PSoC5/cyfitter_cfg.c **** * Function Name: SetAnalogRoutingPumps
 314:Generated_Source\PSoC5/cyfitter_cfg.c **** ********************************************************************************
 315:Generated_Source\PSoC5/cyfitter_cfg.c **** *
 316:Generated_Source\PSoC5/cyfitter_cfg.c **** * Summary:
 317:Generated_Source\PSoC5/cyfitter_cfg.c **** * Enables or disables the analog pumps feeding analog routing switches.
 318:Generated_Source\PSoC5/cyfitter_cfg.c **** * Intended to be called at startup, based on the Vdda system configuration;
 319:Generated_Source\PSoC5/cyfitter_cfg.c **** * may be called during operation when the user informs us that the Vdda voltage
 320:Generated_Source\PSoC5/cyfitter_cfg.c **** * crossed the pump threshold.
 321:Generated_Source\PSoC5/cyfitter_cfg.c **** *
 322:Generated_Source\PSoC5/cyfitter_cfg.c **** * Parameters:
 323:Generated_Source\PSoC5/cyfitter_cfg.c **** *  enabled - 1 to enable the pumps, 0 to disable the pumps
 324:Generated_Source\PSoC5/cyfitter_cfg.c **** *
 325:Generated_Source\PSoC5/cyfitter_cfg.c **** * Return:
 326:Generated_Source\PSoC5/cyfitter_cfg.c **** *  void
 327:Generated_Source\PSoC5/cyfitter_cfg.c **** *
 328:Generated_Source\PSoC5/cyfitter_cfg.c **** *******************************************************************************/
 329:Generated_Source\PSoC5/cyfitter_cfg.c **** void SetAnalogRoutingPumps(uint8 enabled)
 330:Generated_Source\PSoC5/cyfitter_cfg.c **** {
 372              		.loc 1 330 0
 373              		.cfi_startproc
 374              		@ args = 0, pretend = 0, frame = 0
ARM GAS  C:\Users\emman\AppData\Local\Temp\ccYKiRxu.s 			page 14


 375              		@ frame_needed = 0, uses_anonymous_args = 0
 376              		@ link register save eliminated.
 377              	.LVL28:
 331:Generated_Source\PSoC5/cyfitter_cfg.c **** 	uint8 regValue = CY_GET_XTND_REG8((void CYFAR *)CYREG_PUMP_CR0);
 378              		.loc 1 331 0
 379 0000 054B     		ldr	r3, .L27
 380 0002 1B78     		ldrb	r3, [r3]	@ zero_extendqisi2
 381 0004 DBB2     		uxtb	r3, r3
 382              	.LVL29:
 332:Generated_Source\PSoC5/cyfitter_cfg.c **** 	if (enabled != 0u)
 383              		.loc 1 332 0
 384 0006 10B1     		cbz	r0, .L25
 333:Generated_Source\PSoC5/cyfitter_cfg.c **** 	{
 334:Generated_Source\PSoC5/cyfitter_cfg.c **** 		regValue |= 0x22u;
 385              		.loc 1 334 0
 386 0008 43F02203 		orr	r3, r3, #34
 387              	.LVL30:
 388 000c 01E0     		b	.L26
 389              	.L25:
 335:Generated_Source\PSoC5/cyfitter_cfg.c **** 	}
 336:Generated_Source\PSoC5/cyfitter_cfg.c **** 	else
 337:Generated_Source\PSoC5/cyfitter_cfg.c **** 	{
 338:Generated_Source\PSoC5/cyfitter_cfg.c **** 		regValue &= (uint8)~0x22u;
 390              		.loc 1 338 0
 391 000e 03F0DD03 		and	r3, r3, #221
 392              	.LVL31:
 393              	.L26:
 339:Generated_Source\PSoC5/cyfitter_cfg.c **** 	}
 340:Generated_Source\PSoC5/cyfitter_cfg.c **** 	CY_SET_XTND_REG8((void CYFAR *)CYREG_PUMP_CR0, regValue);
 394              		.loc 1 340 0
 395 0012 014A     		ldr	r2, .L27
 396 0014 1370     		strb	r3, [r2]
 397 0016 7047     		bx	lr
 398              	.L28:
 399              		.align	2
 400              	.L27:
 401 0018 76580040 		.word	1073764470
 402              		.cfi_endproc
 403              	.LFE7:
 404              		.size	SetAnalogRoutingPumps, .-SetAnalogRoutingPumps
 405              		.section	.text.Touch_ADC_AMux_Set,"ax",%progbits
 406              		.align	2
 407              		.global	Touch_ADC_AMux_Set
 408              		.thumb
 409              		.thumb_func
 410              		.type	Touch_ADC_AMux_Set, %function
 411              	Touch_ADC_AMux_Set:
 412              	.LFB8:
 341:Generated_Source\PSoC5/cyfitter_cfg.c **** }
 342:Generated_Source\PSoC5/cyfitter_cfg.c **** 
 343:Generated_Source\PSoC5/cyfitter_cfg.c **** 
 344:Generated_Source\PSoC5/cyfitter_cfg.c **** #define CY_AMUX_UNUSED CYREG_BOOST_SR
 345:Generated_Source\PSoC5/cyfitter_cfg.c **** /* This is an implementation detail of the AMux. Code that depends on it may be
 346:Generated_Source\PSoC5/cyfitter_cfg.c ****    incompatible with other versions of PSoC Creator. */
 347:Generated_Source\PSoC5/cyfitter_cfg.c **** uint8 CYXDATA * const CYCODE Touch_ADC_AMux__addrTable[2] = {
 348:Generated_Source\PSoC5/cyfitter_cfg.c **** 	(uint8 CYXDATA *)CYREG_DSM0_SW3, 
 349:Generated_Source\PSoC5/cyfitter_cfg.c **** 	(uint8 CYXDATA *)CY_AMUX_UNUSED, 
ARM GAS  C:\Users\emman\AppData\Local\Temp\ccYKiRxu.s 			page 15


 350:Generated_Source\PSoC5/cyfitter_cfg.c **** };
 351:Generated_Source\PSoC5/cyfitter_cfg.c **** 
 352:Generated_Source\PSoC5/cyfitter_cfg.c **** /* This is an implementation detail of the AMux. Code that depends on it may be
 353:Generated_Source\PSoC5/cyfitter_cfg.c ****    incompatible with other versions of PSoC Creator. */
 354:Generated_Source\PSoC5/cyfitter_cfg.c **** const uint8 CYCODE Touch_ADC_AMux__maskTable[2] = {
 355:Generated_Source\PSoC5/cyfitter_cfg.c **** 	0x40u, 
 356:Generated_Source\PSoC5/cyfitter_cfg.c **** 	0x00u, 
 357:Generated_Source\PSoC5/cyfitter_cfg.c **** };
 358:Generated_Source\PSoC5/cyfitter_cfg.c **** 
 359:Generated_Source\PSoC5/cyfitter_cfg.c **** /*******************************************************************************
 360:Generated_Source\PSoC5/cyfitter_cfg.c **** * Function Name: Touch_ADC_AMux_Set
 361:Generated_Source\PSoC5/cyfitter_cfg.c **** ********************************************************************************
 362:Generated_Source\PSoC5/cyfitter_cfg.c **** * Summary:
 363:Generated_Source\PSoC5/cyfitter_cfg.c **** *  This function is used to set a particular channel as active on the AMux.
 364:Generated_Source\PSoC5/cyfitter_cfg.c **** *
 365:Generated_Source\PSoC5/cyfitter_cfg.c **** * Parameters:  
 366:Generated_Source\PSoC5/cyfitter_cfg.c **** *   channel - The mux channel input to set as active
 367:Generated_Source\PSoC5/cyfitter_cfg.c **** *
 368:Generated_Source\PSoC5/cyfitter_cfg.c **** * Return:
 369:Generated_Source\PSoC5/cyfitter_cfg.c **** *   void
 370:Generated_Source\PSoC5/cyfitter_cfg.c **** *
 371:Generated_Source\PSoC5/cyfitter_cfg.c **** *******************************************************************************/
 372:Generated_Source\PSoC5/cyfitter_cfg.c **** void Touch_ADC_AMux_Set(uint8 channel)
 373:Generated_Source\PSoC5/cyfitter_cfg.c **** {
 413              		.loc 1 373 0
 414              		.cfi_startproc
 415              		@ args = 0, pretend = 0, frame = 0
 416              		@ frame_needed = 0, uses_anonymous_args = 0
 417              		@ link register save eliminated.
 418              	.LVL32:
 374:Generated_Source\PSoC5/cyfitter_cfg.c **** 	if (channel < 2)
 419              		.loc 1 374 0
 420 0000 0128     		cmp	r0, #1
 421 0002 07D8     		bhi	.L29
 375:Generated_Source\PSoC5/cyfitter_cfg.c **** 	{
 376:Generated_Source\PSoC5/cyfitter_cfg.c **** 		*Touch_ADC_AMux__addrTable[channel] |= Touch_ADC_AMux__maskTable[channel];
 422              		.loc 1 376 0
 423 0004 044B     		ldr	r3, .L31
 424 0006 53F82020 		ldr	r2, [r3, r0, lsl #2]
 425 000a 1844     		add	r0, r0, r3
 426              	.LVL33:
 427 000c 017A     		ldrb	r1, [r0, #8]	@ zero_extendqisi2
 428 000e 1378     		ldrb	r3, [r2]	@ zero_extendqisi2
 429 0010 0B43     		orrs	r3, r3, r1
 430 0012 1370     		strb	r3, [r2]
 431              	.L29:
 432 0014 7047     		bx	lr
 433              	.L32:
 434 0016 00BF     		.align	2
 435              	.L31:
 436 0018 00000000 		.word	.LANCHOR0
 437              		.cfi_endproc
 438              	.LFE8:
 439              		.size	Touch_ADC_AMux_Set, .-Touch_ADC_AMux_Set
 440              		.section	.text.Touch_ADC_AMux_Unset,"ax",%progbits
 441              		.align	2
 442              		.global	Touch_ADC_AMux_Unset
ARM GAS  C:\Users\emman\AppData\Local\Temp\ccYKiRxu.s 			page 16


 443              		.thumb
 444              		.thumb_func
 445              		.type	Touch_ADC_AMux_Unset, %function
 446              	Touch_ADC_AMux_Unset:
 447              	.LFB9:
 377:Generated_Source\PSoC5/cyfitter_cfg.c **** 	}
 378:Generated_Source\PSoC5/cyfitter_cfg.c **** }
 379:Generated_Source\PSoC5/cyfitter_cfg.c **** 
 380:Generated_Source\PSoC5/cyfitter_cfg.c **** /*******************************************************************************
 381:Generated_Source\PSoC5/cyfitter_cfg.c **** * Function Name: Touch_ADC_AMux_Unset
 382:Generated_Source\PSoC5/cyfitter_cfg.c **** ********************************************************************************
 383:Generated_Source\PSoC5/cyfitter_cfg.c **** * Summary:
 384:Generated_Source\PSoC5/cyfitter_cfg.c **** *  This function is used to clear a particular channel from being active on the
 385:Generated_Source\PSoC5/cyfitter_cfg.c **** *  AMux.
 386:Generated_Source\PSoC5/cyfitter_cfg.c **** *
 387:Generated_Source\PSoC5/cyfitter_cfg.c **** * Parameters:  
 388:Generated_Source\PSoC5/cyfitter_cfg.c **** *   channel - The mux channel input to mark inactive
 389:Generated_Source\PSoC5/cyfitter_cfg.c **** *
 390:Generated_Source\PSoC5/cyfitter_cfg.c **** * Return:
 391:Generated_Source\PSoC5/cyfitter_cfg.c **** *   void
 392:Generated_Source\PSoC5/cyfitter_cfg.c **** *
 393:Generated_Source\PSoC5/cyfitter_cfg.c **** *******************************************************************************/
 394:Generated_Source\PSoC5/cyfitter_cfg.c **** void Touch_ADC_AMux_Unset(uint8 channel)
 395:Generated_Source\PSoC5/cyfitter_cfg.c **** {
 448              		.loc 1 395 0
 449              		.cfi_startproc
 450              		@ args = 0, pretend = 0, frame = 0
 451              		@ frame_needed = 0, uses_anonymous_args = 0
 452              		@ link register save eliminated.
 453              	.LVL34:
 396:Generated_Source\PSoC5/cyfitter_cfg.c **** 	if (channel < 2)
 454              		.loc 1 396 0
 455 0000 0128     		cmp	r0, #1
 456 0002 08D8     		bhi	.L33
 397:Generated_Source\PSoC5/cyfitter_cfg.c **** 	{
 398:Generated_Source\PSoC5/cyfitter_cfg.c **** 		*Touch_ADC_AMux__addrTable[channel] &= (uint8)~Touch_ADC_AMux__maskTable[channel];
 457              		.loc 1 398 0
 458 0004 044B     		ldr	r3, .L35
 459 0006 53F82020 		ldr	r2, [r3, r0, lsl #2]
 460 000a 1844     		add	r0, r0, r3
 461              	.LVL35:
 462 000c 017A     		ldrb	r1, [r0, #8]	@ zero_extendqisi2
 463 000e 1378     		ldrb	r3, [r2]	@ zero_extendqisi2
 464 0010 23EA0103 		bic	r3, r3, r1
 465 0014 1370     		strb	r3, [r2]
 466              	.L33:
 467 0016 7047     		bx	lr
 468              	.L36:
 469              		.align	2
 470              	.L35:
 471 0018 00000000 		.word	.LANCHOR0
 472              		.cfi_endproc
 473              	.LFE9:
 474              		.size	Touch_ADC_AMux_Unset, .-Touch_ADC_AMux_Unset
 475              		.section	.text.Touch_AMux_DisconnectAll,"ax",%progbits
 476              		.align	2
 477              		.global	Touch_AMux_DisconnectAll
ARM GAS  C:\Users\emman\AppData\Local\Temp\ccYKiRxu.s 			page 17


 478              		.thumb
 479              		.thumb_func
 480              		.type	Touch_AMux_DisconnectAll, %function
 481              	Touch_AMux_DisconnectAll:
 482              	.LFB10:
 399:Generated_Source\PSoC5/cyfitter_cfg.c **** 	}
 400:Generated_Source\PSoC5/cyfitter_cfg.c **** }
 401:Generated_Source\PSoC5/cyfitter_cfg.c **** 
 402:Generated_Source\PSoC5/cyfitter_cfg.c **** int8 Touch_AMux_curChannel = -1;
 403:Generated_Source\PSoC5/cyfitter_cfg.c **** 
 404:Generated_Source\PSoC5/cyfitter_cfg.c **** void Touch_AMux_DisconnectAll(void)
 405:Generated_Source\PSoC5/cyfitter_cfg.c **** {
 483              		.loc 1 405 0
 484              		.cfi_startproc
 485              		@ args = 0, pretend = 0, frame = 0
 486              		@ frame_needed = 0, uses_anonymous_args = 0
 487              		@ link register save eliminated.
 406:Generated_Source\PSoC5/cyfitter_cfg.c **** 	Touch_AMux_curChannel = -1;
 488              		.loc 1 406 0
 489 0000 FF22     		movs	r2, #255
 490 0002 044B     		ldr	r3, .L38
 491 0004 1A70     		strb	r2, [r3]
 407:Generated_Source\PSoC5/cyfitter_cfg.c **** 	CY_SET_REG8((void CYXDATA *)CYREG_PRT4_AG, 0x00u);
 492              		.loc 1 407 0
 493 0006 0023     		movs	r3, #0
 494 0008 034A     		ldr	r2, .L38+4
 495 000a 1370     		strb	r3, [r2]
 408:Generated_Source\PSoC5/cyfitter_cfg.c **** 	CY_SET_REG8((void CYXDATA *)CYREG_DSM0_SW0, 0x00u);
 496              		.loc 1 408 0
 497 000c 02F6B312 		addw	r2, r2, #2483
 498 0010 1370     		strb	r3, [r2]
 499 0012 7047     		bx	lr
 500              	.L39:
 501              		.align	2
 502              	.L38:
 503 0014 00000000 		.word	.LANCHOR1
 504 0018 4D510040 		.word	1073762637
 505              		.cfi_endproc
 506              	.LFE10:
 507              		.size	Touch_AMux_DisconnectAll, .-Touch_AMux_DisconnectAll
 508              		.section	.text.Touch_AMux_Next,"ax",%progbits
 509              		.align	2
 510              		.global	Touch_AMux_Next
 511              		.thumb
 512              		.thumb_func
 513              		.type	Touch_AMux_Next, %function
 514              	Touch_AMux_Next:
 515              	.LFB11:
 409:Generated_Source\PSoC5/cyfitter_cfg.c **** }
 410:Generated_Source\PSoC5/cyfitter_cfg.c **** 
 411:Generated_Source\PSoC5/cyfitter_cfg.c **** #if defined(__C51__) || defined(__CX51__)
 412:Generated_Source\PSoC5/cyfitter_cfg.c ****     #pragma OT(5, SPEED)
 413:Generated_Source\PSoC5/cyfitter_cfg.c **** #endif
 414:Generated_Source\PSoC5/cyfitter_cfg.c **** void Touch_AMux_Next(void)
 415:Generated_Source\PSoC5/cyfitter_cfg.c **** {
 516              		.loc 1 415 0
 517              		.cfi_startproc
ARM GAS  C:\Users\emman\AppData\Local\Temp\ccYKiRxu.s 			page 18


 518              		@ args = 0, pretend = 0, frame = 0
 519              		@ frame_needed = 0, uses_anonymous_args = 0
 520              		@ link register save eliminated.
 416:Generated_Source\PSoC5/cyfitter_cfg.c **** 	Touch_AMux_curChannel++;
 521              		.loc 1 416 0
 522 0000 0F4A     		ldr	r2, .L51
 523 0002 1378     		ldrb	r3, [r2]	@ zero_extendqisi2
 524 0004 0133     		adds	r3, r3, #1
 525 0006 5BB2     		sxtb	r3, r3
 526 0008 1370     		strb	r3, [r2]
 417:Generated_Source\PSoC5/cyfitter_cfg.c **** 	switch (Touch_AMux_curChannel)
 527              		.loc 1 417 0
 528 000a 072B     		cmp	r3, #7
 529 000c 05D8     		bhi	.L41
 530 000e DFE803F0 		tbb	[pc, r3]
 531              	.L43:
 532 0012 07       		.byte	(.L42-.L43)/2
 533 0013 0F       		.byte	(.L44-.L43)/2
 534 0014 04       		.byte	(.L41-.L43)/2
 535 0015 04       		.byte	(.L41-.L43)/2
 536 0016 04       		.byte	(.L41-.L43)/2
 537 0017 04       		.byte	(.L41-.L43)/2
 538 0018 04       		.byte	(.L41-.L43)/2
 539 0019 04       		.byte	(.L41-.L43)/2
 540              		.p2align 1
 541              	.L41:
 418:Generated_Source\PSoC5/cyfitter_cfg.c **** 	{
 419:Generated_Source\PSoC5/cyfitter_cfg.c **** 	case 3: /* to force jump table (not executed) */
 420:Generated_Source\PSoC5/cyfitter_cfg.c **** 		Touch_AMux_curChannel = 3;
 421:Generated_Source\PSoC5/cyfitter_cfg.c **** 	case 4: /* to force jump table (not executed) */
 422:Generated_Source\PSoC5/cyfitter_cfg.c **** 		Touch_AMux_curChannel = 4;
 423:Generated_Source\PSoC5/cyfitter_cfg.c **** 	case 5: /* to force jump table (not executed) */
 424:Generated_Source\PSoC5/cyfitter_cfg.c **** 		Touch_AMux_curChannel = 5;
 425:Generated_Source\PSoC5/cyfitter_cfg.c **** 	case 6: /* to force jump table (not executed) */
 426:Generated_Source\PSoC5/cyfitter_cfg.c **** 		Touch_AMux_curChannel = 6;
 427:Generated_Source\PSoC5/cyfitter_cfg.c **** 	case 7: /* to force jump table (not executed) */
 428:Generated_Source\PSoC5/cyfitter_cfg.c **** 		Touch_AMux_curChannel = 7;
 429:Generated_Source\PSoC5/cyfitter_cfg.c **** 	case 2:
 430:Generated_Source\PSoC5/cyfitter_cfg.c **** 	default:
 431:Generated_Source\PSoC5/cyfitter_cfg.c **** 		Touch_AMux_curChannel = 0;
 542              		.loc 1 431 0
 543 001a 0022     		movs	r2, #0
 544 001c 084B     		ldr	r3, .L51
 545 001e 1A70     		strb	r2, [r3]
 546              	.L42:
 432:Generated_Source\PSoC5/cyfitter_cfg.c **** 	case 0:
 433:Generated_Source\PSoC5/cyfitter_cfg.c **** 		CY_SET_REG8((void CYXDATA *)CYREG_PRT4_AG, 0x01u);
 547              		.loc 1 433 0
 548 0020 0122     		movs	r2, #1
 549 0022 084B     		ldr	r3, .L51+4
 550 0024 1A70     		strb	r2, [r3]
 434:Generated_Source\PSoC5/cyfitter_cfg.c **** 		CY_SET_REG8((void CYXDATA *)CYREG_DSM0_SW0, 0x10u);
 551              		.loc 1 434 0
 552 0026 1022     		movs	r2, #16
 553 0028 03F6B313 		addw	r3, r3, #2483
 554 002c 1A70     		strb	r2, [r3]
 435:Generated_Source\PSoC5/cyfitter_cfg.c **** 		break;
ARM GAS  C:\Users\emman\AppData\Local\Temp\ccYKiRxu.s 			page 19


 555              		.loc 1 435 0
 556 002e 7047     		bx	lr
 557              	.L44:
 436:Generated_Source\PSoC5/cyfitter_cfg.c **** 	case 1:
 437:Generated_Source\PSoC5/cyfitter_cfg.c **** 		CY_SET_REG8((void CYXDATA *)CYREG_PRT4_AG, 0x08u);
 558              		.loc 1 437 0
 559 0030 0822     		movs	r2, #8
 560 0032 044B     		ldr	r3, .L51+4
 561 0034 1A70     		strb	r2, [r3]
 438:Generated_Source\PSoC5/cyfitter_cfg.c **** 		CY_SET_REG8((void CYXDATA *)CYREG_DSM0_SW0, 0x80u);
 562              		.loc 1 438 0
 563 0036 8022     		movs	r2, #128
 564 0038 03F6B313 		addw	r3, r3, #2483
 565 003c 1A70     		strb	r2, [r3]
 566 003e 7047     		bx	lr
 567              	.L52:
 568              		.align	2
 569              	.L51:
 570 0040 00000000 		.word	.LANCHOR1
 571 0044 4D510040 		.word	1073762637
 572              		.cfi_endproc
 573              	.LFE11:
 574              		.size	Touch_AMux_Next, .-Touch_AMux_Next
 575              		.section	.text.cyfitter_cfg,"ax",%progbits
 576              		.align	2
 577              		.global	cyfitter_cfg
 578              		.thumb
 579              		.thumb_func
 580              		.type	cyfitter_cfg, %function
 581              	cyfitter_cfg:
 582              	.LFB12:
 439:Generated_Source\PSoC5/cyfitter_cfg.c **** 		break;
 440:Generated_Source\PSoC5/cyfitter_cfg.c **** 	}
 441:Generated_Source\PSoC5/cyfitter_cfg.c **** }
 442:Generated_Source\PSoC5/cyfitter_cfg.c **** 
 443:Generated_Source\PSoC5/cyfitter_cfg.c **** 
 444:Generated_Source\PSoC5/cyfitter_cfg.c **** 
 445:Generated_Source\PSoC5/cyfitter_cfg.c **** /*******************************************************************************
 446:Generated_Source\PSoC5/cyfitter_cfg.c **** * Function Name: cyfitter_cfg
 447:Generated_Source\PSoC5/cyfitter_cfg.c **** ********************************************************************************
 448:Generated_Source\PSoC5/cyfitter_cfg.c **** * Summary:
 449:Generated_Source\PSoC5/cyfitter_cfg.c **** *  This function is called by the start-up code for the selected device. It
 450:Generated_Source\PSoC5/cyfitter_cfg.c **** *  performs all of the necessary device configuration based on the design
 451:Generated_Source\PSoC5/cyfitter_cfg.c **** *  settings.  This includes settings from the Design Wide Resources (DWR) such
 452:Generated_Source\PSoC5/cyfitter_cfg.c **** *  as Clocks and Pins as well as any component configuration that is necessary.
 453:Generated_Source\PSoC5/cyfitter_cfg.c **** *
 454:Generated_Source\PSoC5/cyfitter_cfg.c **** * Parameters:
 455:Generated_Source\PSoC5/cyfitter_cfg.c **** *   void
 456:Generated_Source\PSoC5/cyfitter_cfg.c **** *
 457:Generated_Source\PSoC5/cyfitter_cfg.c **** * Return:
 458:Generated_Source\PSoC5/cyfitter_cfg.c **** *   void
 459:Generated_Source\PSoC5/cyfitter_cfg.c **** *
 460:Generated_Source\PSoC5/cyfitter_cfg.c **** *******************************************************************************/
 461:Generated_Source\PSoC5/cyfitter_cfg.c **** 
 462:Generated_Source\PSoC5/cyfitter_cfg.c **** void cyfitter_cfg(void)
 463:Generated_Source\PSoC5/cyfitter_cfg.c **** {
 583              		.loc 1 463 0
ARM GAS  C:\Users\emman\AppData\Local\Temp\ccYKiRxu.s 			page 20


 584              		.cfi_startproc
 585              		@ args = 0, pretend = 0, frame = 0
 586              		@ frame_needed = 0, uses_anonymous_args = 0
 587 0000 38B5     		push	{r3, r4, r5, lr}
 588              		.cfi_def_cfa_offset 16
 589              		.cfi_offset 3, -16
 590              		.cfi_offset 4, -12
 591              		.cfi_offset 5, -8
 592              		.cfi_offset 14, -4
 464:Generated_Source\PSoC5/cyfitter_cfg.c **** #ifdef CYGlobalIntDisable
 465:Generated_Source\PSoC5/cyfitter_cfg.c **** 	/* Disable interrupts by default. Let user enable if/when they want. */
 466:Generated_Source\PSoC5/cyfitter_cfg.c **** 	CYGlobalIntDisable
 593              		.loc 1 466 0
 594              		.syntax unified
 595              	@ 466 "Generated_Source\PSoC5\cyfitter_cfg.c" 1
 596 0002 72B6     		CPSID   i
 597              	@ 0 "" 2
 467:Generated_Source\PSoC5/cyfitter_cfg.c **** #endif
 468:Generated_Source\PSoC5/cyfitter_cfg.c **** 
 469:Generated_Source\PSoC5/cyfitter_cfg.c **** 	/* Enable/Disable Debug functionality based on settings from System DWR */
 470:Generated_Source\PSoC5/cyfitter_cfg.c **** 	CY_SET_XTND_REG8((void CYFAR *)CYREG_MLOGIC_DEBUG, (CY_GET_XTND_REG8((void CYFAR *)CYREG_MLOGIC_DE
 598              		.loc 1 470 0
 599              		.thumb
 600              		.syntax unified
 601 0004 334A     		ldr	r2, .L57
 602 0006 1378     		ldrb	r3, [r2]	@ zero_extendqisi2
 603 0008 43F00403 		orr	r3, r3, #4
 604 000c 1370     		strb	r3, [r2]
 605              	.LVL36:
 606              	.LBB3:
 471:Generated_Source\PSoC5/cyfitter_cfg.c **** 
 472:Generated_Source\PSoC5/cyfitter_cfg.c **** 	{
 473:Generated_Source\PSoC5/cyfitter_cfg.c **** 
 474:Generated_Source\PSoC5/cyfitter_cfg.c **** 		CYPACKED typedef struct {
 475:Generated_Source\PSoC5/cyfitter_cfg.c **** 			void CYFAR *address;
 476:Generated_Source\PSoC5/cyfitter_cfg.c **** 			uint16 size;
 477:Generated_Source\PSoC5/cyfitter_cfg.c **** 		} CYPACKED_ATTR cfg_memset_t;
 478:Generated_Source\PSoC5/cyfitter_cfg.c **** 
 479:Generated_Source\PSoC5/cyfitter_cfg.c **** 		static const cfg_memset_t CYCODE cfg_memset_list[] = {
 480:Generated_Source\PSoC5/cyfitter_cfg.c **** 			/* address, size */
 481:Generated_Source\PSoC5/cyfitter_cfg.c **** 			{(void CYFAR *)(CYREG_PRT0_DR), 16u},
 482:Generated_Source\PSoC5/cyfitter_cfg.c **** 			{(void CYFAR *)(CYREG_PRT3_DR), 16u},
 483:Generated_Source\PSoC5/cyfitter_cfg.c **** 			{(void CYFAR *)(CYREG_PRT5_DR), 32u},
 484:Generated_Source\PSoC5/cyfitter_cfg.c **** 			{(void CYFAR *)(CYREG_PRT15_DR), 16u},
 485:Generated_Source\PSoC5/cyfitter_cfg.c **** 			{(void CYFAR *)(CYDEV_UCFG_B0_P0_U0_BASE), 4096u},
 486:Generated_Source\PSoC5/cyfitter_cfg.c **** 			{(void CYFAR *)(CYDEV_UCFG_B1_P2_U0_BASE), 2048u},
 487:Generated_Source\PSoC5/cyfitter_cfg.c **** 			{(void CYFAR *)(CYDEV_UCFG_DSI0_BASE), 2560u},
 488:Generated_Source\PSoC5/cyfitter_cfg.c **** 			{(void CYFAR *)(CYDEV_UCFG_DSI12_BASE), 512u},
 489:Generated_Source\PSoC5/cyfitter_cfg.c **** 			{(void CYFAR *)(CYREG_BCTL0_MDCLK_EN), 32u},
 490:Generated_Source\PSoC5/cyfitter_cfg.c **** 		};
 491:Generated_Source\PSoC5/cyfitter_cfg.c **** 
 492:Generated_Source\PSoC5/cyfitter_cfg.c **** 		uint8 CYDATA i;
 493:Generated_Source\PSoC5/cyfitter_cfg.c **** 
 494:Generated_Source\PSoC5/cyfitter_cfg.c **** 		/* Zero out critical memory blocks before beginning configuration */
 495:Generated_Source\PSoC5/cyfitter_cfg.c **** 		for (i = 0u; i < (sizeof(cfg_memset_list)/sizeof(cfg_memset_list[0])); i++)
 607              		.loc 1 495 0
 608 000e 0024     		movs	r4, #0
ARM GAS  C:\Users\emman\AppData\Local\Temp\ccYKiRxu.s 			page 21


 609 0010 0BE0     		b	.L54
 610              	.LVL37:
 611              	.L55:
 612              	.LBB4:
 496:Generated_Source\PSoC5/cyfitter_cfg.c **** 		{
 497:Generated_Source\PSoC5/cyfitter_cfg.c **** 			const cfg_memset_t CYCODE * CYDATA ms = &cfg_memset_list[i];
 498:Generated_Source\PSoC5/cyfitter_cfg.c **** 			CYMEMZERO(ms->address, (size_t)(uint32)(ms->size));
 613              		.loc 1 498 0 discriminator 3
 614 0012 3148     		ldr	r0, .L57+4
 615 0014 6300     		lsls	r3, r4, #1
 616 0016 1A19     		adds	r2, r3, r4
 617 0018 5100     		lsls	r1, r2, #1
 618 001a 0144     		add	r1, r1, r0
 619 001c 0A46     		mov	r2, r1
 620 001e 098A     		ldrh	r1, [r1, #16]
 621 0020 D068     		ldr	r0, [r2, #12]	@ unaligned
 622 0022 FFF7FEFF 		bl	CYMEMZERO
 623              	.LVL38:
 624              	.LBE4:
 495:Generated_Source\PSoC5/cyfitter_cfg.c **** 		{
 625              		.loc 1 495 0 discriminator 3
 626 0026 0134     		adds	r4, r4, #1
 627              	.LVL39:
 628 0028 E4B2     		uxtb	r4, r4
 629              	.LVL40:
 630              	.L54:
 495:Generated_Source\PSoC5/cyfitter_cfg.c **** 		{
 631              		.loc 1 495 0 is_stmt 0 discriminator 1
 632 002a 082C     		cmp	r4, #8
 633 002c F1D9     		bls	.L55
 499:Generated_Source\PSoC5/cyfitter_cfg.c **** 		}
 500:Generated_Source\PSoC5/cyfitter_cfg.c **** 
 501:Generated_Source\PSoC5/cyfitter_cfg.c **** 		cfg_write_bytes32(cy_cfg_addr_table, cy_cfg_data_table);
 634              		.loc 1 501 0 is_stmt 1
 635 002e 2B49     		ldr	r1, .L57+8
 636 0030 4FF09040 		mov	r0, #1207959552
 637 0034 FFF7FEFF 		bl	cfg_write_bytes32
 638              	.LVL41:
 502:Generated_Source\PSoC5/cyfitter_cfg.c **** 
 503:Generated_Source\PSoC5/cyfitter_cfg.c **** 		/* Perform normal device configuration. Order is not critical for these items. */
 504:Generated_Source\PSoC5/cyfitter_cfg.c **** 		CY_SET_XTND_REG8((void CYFAR *)(CYREG_DSM0_CR3), 0x0Au);
 639              		.loc 1 504 0
 640 0038 0A25     		movs	r5, #10
 641 003a 294B     		ldr	r3, .L57+12
 642 003c 1D70     		strb	r5, [r3]
 505:Generated_Source\PSoC5/cyfitter_cfg.c **** 
 506:Generated_Source\PSoC5/cyfitter_cfg.c **** 		/* B0_P6_U1_CFG24 Starting address: CYDEV_UCFG_B0_P6_U1_CFG24 */
 507:Generated_Source\PSoC5/cyfitter_cfg.c **** 		CY_SET_XTND_REG32((void CYFAR *)(CYREG_B0_P6_U1_CFG24), 0x44044444u);
 643              		.loc 1 507 0
 644 003e 294A     		ldr	r2, .L57+16
 645 0040 03F53443 		add	r3, r3, #46080
 646 0044 5533     		adds	r3, r3, #85
 647 0046 1A60     		str	r2, [r3]
 508:Generated_Source\PSoC5/cyfitter_cfg.c **** 
 509:Generated_Source\PSoC5/cyfitter_cfg.c **** 		/* Enable digital routing */
 510:Generated_Source\PSoC5/cyfitter_cfg.c **** 		CY_SET_XTND_REG8((void CYFAR *)CYREG_BCTL0_BANK_CTL, CY_GET_XTND_REG8((void CYFAR *)CYREG_BCTL0_B
 648              		.loc 1 510 0
ARM GAS  C:\Users\emman\AppData\Local\Temp\ccYKiRxu.s 			page 22


 649 0048 274A     		ldr	r2, .L57+20
 650 004a 1378     		ldrb	r3, [r2]	@ zero_extendqisi2
 651 004c 43F00203 		orr	r3, r3, #2
 652 0050 1370     		strb	r3, [r2]
 511:Generated_Source\PSoC5/cyfitter_cfg.c **** 		CY_SET_XTND_REG8((void CYFAR *)CYREG_BCTL1_BANK_CTL, CY_GET_XTND_REG8((void CYFAR *)CYREG_BCTL1_B
 653              		.loc 1 511 0
 654 0052 1032     		adds	r2, r2, #16
 655 0054 1378     		ldrb	r3, [r2]	@ zero_extendqisi2
 656 0056 43F00203 		orr	r3, r3, #2
 657 005a 1370     		strb	r3, [r2]
 512:Generated_Source\PSoC5/cyfitter_cfg.c **** 
 513:Generated_Source\PSoC5/cyfitter_cfg.c **** 		/* Enable UDB array */
 514:Generated_Source\PSoC5/cyfitter_cfg.c **** 		CY_SET_XTND_REG8((void CYFAR *)CYREG_PM_ACT_CFG0, CY_GET_XTND_REG8((void CYFAR *)CYREG_PM_ACT_CFG
 658              		.loc 1 514 0
 659 005c 234C     		ldr	r4, .L57+24
 660              	.LVL42:
 661 005e 2378     		ldrb	r3, [r4]	@ zero_extendqisi2
 662 0060 43F04003 		orr	r3, r3, #64
 663 0064 2370     		strb	r3, [r4]
 515:Generated_Source\PSoC5/cyfitter_cfg.c **** 		CY_SET_XTND_REG8((void CYFAR *)CYREG_PM_AVAIL_CR2, CY_GET_XTND_REG8((void CYFAR *)CYREG_PM_AVAIL_
 664              		.loc 1 515 0
 665 0066 A2F58632 		sub	r2, r2, #68608
 666 006a 513A     		subs	r2, r2, #81
 667 006c 1378     		ldrb	r3, [r2]	@ zero_extendqisi2
 668 006e 43F01003 		orr	r3, r3, #16
 669 0072 1370     		strb	r3, [r2]
 670              	.LBE3:
 516:Generated_Source\PSoC5/cyfitter_cfg.c **** 	}
 517:Generated_Source\PSoC5/cyfitter_cfg.c **** 
 518:Generated_Source\PSoC5/cyfitter_cfg.c **** 
 519:Generated_Source\PSoC5/cyfitter_cfg.c **** 	/* Perform second pass device configuration. These items must be configured in specific order afte
 520:Generated_Source\PSoC5/cyfitter_cfg.c **** 	CYCONFIGCPY((void CYFAR *)(CYREG_PRT12_DR), (const void CYFAR *)(BS_IOPINS0_7_VAL), 10u);
 671              		.loc 1 520 0
 672 0074 2A46     		mov	r2, r5
 673 0076 1E49     		ldr	r1, .L57+28
 674 0078 1E48     		ldr	r0, .L57+32
 675 007a FFF7FEFF 		bl	CYCONFIGCPY
 676              	.LVL43:
 521:Generated_Source\PSoC5/cyfitter_cfg.c **** 	CYCONFIGCPY((void CYFAR *)(CYREG_PRT12_DR + 0x0000000Bu), (const void CYFAR *)(BS_IOPINS1_7_VAL), 
 677              		.loc 1 521 0
 678 007e 0522     		movs	r2, #5
 679 0080 1D49     		ldr	r1, .L57+36
 680 0082 1E48     		ldr	r0, .L57+40
 681 0084 FFF7FEFF 		bl	CYCONFIGCPY
 682              	.LVL44:
 522:Generated_Source\PSoC5/cyfitter_cfg.c **** 	CYCONFIGCPY((void CYFAR *)(CYREG_PRT1_DM0), (const void CYFAR *)(BS_IOPINS0_1_VAL), 8u);
 683              		.loc 1 522 0
 684 0088 0822     		movs	r2, #8
 685 008a 1D49     		ldr	r1, .L57+44
 686 008c 1D48     		ldr	r0, .L57+48
 687 008e FFF7FEFF 		bl	CYCONFIGCPY
 688              	.LVL45:
 523:Generated_Source\PSoC5/cyfitter_cfg.c **** 	CYCONFIGCPY((void CYFAR *)(CYREG_PRT2_DM0), (const void CYFAR *)(BS_IOPINS0_2_VAL), 8u);
 689              		.loc 1 523 0
 690 0092 0822     		movs	r2, #8
 691 0094 1C49     		ldr	r1, .L57+52
 692 0096 1D48     		ldr	r0, .L57+56
ARM GAS  C:\Users\emman\AppData\Local\Temp\ccYKiRxu.s 			page 23


 693 0098 FFF7FEFF 		bl	CYCONFIGCPY
 694              	.LVL46:
 524:Generated_Source\PSoC5/cyfitter_cfg.c **** 	CYCONFIGCPY((void CYFAR *)(CYREG_PRT4_DR), (const void CYFAR *)(BS_IOPINS0_4_VAL), 10u);
 695              		.loc 1 524 0
 696 009c 2A46     		mov	r2, r5
 697 009e 1C49     		ldr	r1, .L57+60
 698 00a0 1C48     		ldr	r0, .L57+64
 699 00a2 FFF7FEFF 		bl	CYCONFIGCPY
 700              	.LVL47:
 525:Generated_Source\PSoC5/cyfitter_cfg.c **** 	/* Switch Boost to the precision bandgap reference from its internal reference */
 526:Generated_Source\PSoC5/cyfitter_cfg.c **** 	CY_SET_REG8((void CYXDATA *)CYREG_BOOST_CR2, (CY_GET_REG8((void CYXDATA *)CYREG_BOOST_CR2) | 0x08u
 701              		.loc 1 526 0
 702 00a6 1C4A     		ldr	r2, .L57+68
 703 00a8 1378     		ldrb	r3, [r2]	@ zero_extendqisi2
 704 00aa 43F00803 		orr	r3, r3, #8
 705 00ae 1370     		strb	r3, [r2]
 527:Generated_Source\PSoC5/cyfitter_cfg.c **** 
 528:Generated_Source\PSoC5/cyfitter_cfg.c **** 	/* Set Flash Cycles based on max possible frequency in case a glitch occurs during ClockSetup(). *
 529:Generated_Source\PSoC5/cyfitter_cfg.c **** 	CY_SET_XTND_REG8((void CYFAR *)(CYREG_CACHE_CC_CTL), (((CYDEV_INSTRUCT_CACHE_ENABLED) != 0) ? 0x61
 706              		.loc 1 529 0
 707 00b0 1A4D     		ldr	r5, .L57+72
 708 00b2 6123     		movs	r3, #97
 709 00b4 2B70     		strb	r3, [r5]
 530:Generated_Source\PSoC5/cyfitter_cfg.c **** 	/* Setup clocks based on selections from Clock DWR */
 531:Generated_Source\PSoC5/cyfitter_cfg.c **** 	ClockSetup();
 710              		.loc 1 531 0
 711 00b6 FFF7FEFF 		bl	ClockSetup
 712              	.LVL48:
 532:Generated_Source\PSoC5/cyfitter_cfg.c **** 	/* Set Flash Cycles based on newly configured 24.00MHz Bus Clock. */
 533:Generated_Source\PSoC5/cyfitter_cfg.c **** 	CY_SET_XTND_REG8((void CYFAR *)(CYREG_CACHE_CC_CTL), (((CYDEV_INSTRUCT_CACHE_ENABLED) != 0) ? 0x81
 713              		.loc 1 533 0
 714 00ba 8123     		movs	r3, #129
 715 00bc 2B70     		strb	r3, [r5]
 534:Generated_Source\PSoC5/cyfitter_cfg.c **** 	CY_SET_XTND_REG8((void CYFAR *)(CYREG_PANTHER_WAITPIPE), 0x01u);
 716              		.loc 1 534 0
 717 00be 0122     		movs	r2, #1
 718 00c0 174B     		ldr	r3, .L57+76
 719 00c2 1A70     		strb	r2, [r3]
 535:Generated_Source\PSoC5/cyfitter_cfg.c **** 
 536:Generated_Source\PSoC5/cyfitter_cfg.c **** 	/* Perform basic analog initialization to defaults */
 537:Generated_Source\PSoC5/cyfitter_cfg.c **** 	AnalogSetDefault();
 720              		.loc 1 537 0
 721 00c4 FFF7FEFF 		bl	AnalogSetDefault
 722              	.LVL49:
 538:Generated_Source\PSoC5/cyfitter_cfg.c **** 
 539:Generated_Source\PSoC5/cyfitter_cfg.c **** 	/* Configure alternate active mode */
 540:Generated_Source\PSoC5/cyfitter_cfg.c **** 	CYCONFIGCPY((void CYFAR *)CYDEV_PM_STBY_BASE, (const void CYFAR *)CYDEV_PM_ACT_BASE, 14u);
 723              		.loc 1 540 0
 724 00c8 0E22     		movs	r2, #14
 725 00ca 2146     		mov	r1, r4
 726 00cc 1548     		ldr	r0, .L57+80
 727 00ce FFF7FEFF 		bl	CYCONFIGCPY
 728              	.LVL50:
 729 00d2 38BD     		pop	{r3, r4, r5, pc}
 730              	.L58:
 731              		.align	2
 732              	.L57:
ARM GAS  C:\Users\emman\AppData\Local\Temp\ccYKiRxu.s 			page 24


 733 00d4 E8460040 		.word	1073759976
 734 00d8 00000000 		.word	.LANCHOR0
 735 00dc 6C000048 		.word	1207959660
 736 00e0 83580040 		.word	1073764483
 737 00e4 44440444 		.word	1141130308
 738 00e8 03500140 		.word	1073827843
 739 00ec A0430040 		.word	1073759136
 740 00f0 8C020048 		.word	1207960204
 741 00f4 C0510040 		.word	1073762752
 742 00f8 98020048 		.word	1207960216
 743 00fc CB510040 		.word	1073762763
 744 0100 A0020048 		.word	1207960224
 745 0104 12510040 		.word	1073762578
 746 0108 A8020048 		.word	1207960232
 747 010c 22510040 		.word	1073762594
 748 0110 B0020048 		.word	1207960240
 749 0114 40510040 		.word	1073762624
 750 0118 22430040 		.word	1073759010
 751 011c 00480040 		.word	1073760256
 752 0120 04000840 		.word	1074266116
 753 0124 B0430040 		.word	1073759152
 754              		.cfi_endproc
 755              	.LFE12:
 756              		.size	cyfitter_cfg, .-cyfitter_cfg
 757              		.global	Touch_AMux_curChannel
 758              		.global	Touch_ADC_AMux__maskTable
 759              		.global	Touch_ADC_AMux__addrTable
 760              		.section	.rodata
 761              		.align	2
 762              		.set	.LANCHOR0,. + 0
 763              		.type	Touch_ADC_AMux__addrTable, %object
 764              		.size	Touch_ADC_AMux__addrTable, 8
 765              	Touch_ADC_AMux__addrTable:
 766 0000 035B0040 		.word	1073765123
 767 0004 24430040 		.word	1073759012
 768              		.type	Touch_ADC_AMux__maskTable, %object
 769              		.size	Touch_ADC_AMux__maskTable, 2
 770              	Touch_ADC_AMux__maskTable:
 771 0008 40       		.byte	64
 772 0009 00       		.byte	0
 773 000a 0000     		.space	2
 774              		.type	cfg_memset_list.5049, %object
 775              		.size	cfg_memset_list.5049, 54
 776              	cfg_memset_list.5049:
 777 000c 00510040 		.word	1073762560
 778 0010 1000     		.short	16
 779 0012 30510040 		.4byte	1073762608
 780 0016 1000     		.short	16
 781 0018 50510040 		.word	1073762640
 782 001c 2000     		.short	32
 783 001e F0510040 		.4byte	1073762800
 784 0022 1000     		.short	16
 785 0024 00000140 		.word	1073807360
 786 0028 0010     		.short	4096
 787 002a 00140140 		.4byte	1073812480
 788 002e 0008     		.short	2048
 789 0030 00400140 		.word	1073823744
ARM GAS  C:\Users\emman\AppData\Local\Temp\ccYKiRxu.s 			page 25


 790 0034 000A     		.short	2560
 791 0036 004C0140 		.4byte	1073826816
 792 003a 0002     		.short	512
 793 003c 00500140 		.word	1073827840
 794 0040 2000     		.short	32
 795              		.data
 796              		.set	.LANCHOR1,. + 0
 797              		.type	Touch_AMux_curChannel, %object
 798              		.size	Touch_AMux_curChannel, 1
 799              	Touch_AMux_curChannel:
 800 0000 FF       		.byte	-1
 801              		.text
 802              	.Letext0:
 803              		.file 2 "c:\\program files (x86)\\cypress\\psoc creator\\4.2\\psoc creator\\import\\gnu\\arm\\5.4.
 804              		.file 3 "Generated_Source\\PSoC5\\cytypes.h"
 805              		.file 4 "Generated_Source\\PSoC5\\CyLib.h"