ARM GAS  C:\Users\emman\AppData\Local\Temp\cckEIm0N.s 			page 1


   1              		.syntax unified
   2              		.cpu cortex-m3
   3              		.fpu softvfp
   4              		.eabi_attribute 20, 1
   5              		.eabi_attribute 21, 1
   6              		.eabi_attribute 23, 3
   7              		.eabi_attribute 24, 1
   8              		.eabi_attribute 25, 1
   9              		.eabi_attribute 26, 1
  10              		.eabi_attribute 30, 1
  11              		.eabi_attribute 34, 1
  12              		.eabi_attribute 18, 4
  13              		.thumb
  14              		.syntax unified
  15              		.file	"main.c"
  16              		.text
  17              	.Ltext0:
  18              		.cfi_sections	.debug_frame
  19              		.global	__aeabi_fcmpgt
  20              		.global	__aeabi_fcmplt
  21              		.global	__aeabi_fdiv
  22              		.global	__aeabi_fmul
  23              		.global	__aeabi_fadd
  24              		.global	__aeabi_fsub
  25              		.global	__aeabi_f2iz
  26              		.section	.text.mapANGtoTIME,"ax",%progbits
  27              		.align	2
  28              		.global	mapANGtoTIME
  29              		.thumb
  30              		.thumb_func
  31              		.type	mapANGtoTIME, %function
  32              	mapANGtoTIME:
  33              	.LFB64:
  34              		.file 1 "main.c"
   1:main.c        **** /* ========================================
   2:main.c        ****  *
   3:main.c        ****  * Copyright YOUR COMPANY, THE YEAR
   4:main.c        ****  * All Rights Reserved
   5:main.c        ****  * UNPUBLISHED, LICENSED SOFTWARE.
   6:main.c        ****  *
   7:main.c        ****  * CONFIDENTIAL AND PROPRIETARY INFORMATION
   8:main.c        ****  * WHICH IS THE PROPERTY OF your company.
   9:main.c        ****  *
  10:main.c        ****  * ========================================
  11:main.c        **** */
  12:main.c        **** #include "project.h"
  13:main.c        **** #include <stdio.h>
  14:main.c        **** #include <stdlib.h>
  15:main.c        **** #include <string.h>
  16:main.c        **** 
  17:main.c        **** 
  18:main.c        **** 
  19:main.c        **** const int PWMSERVO_MIN = 544;
  20:main.c        **** const int PWMSERVO_MAX = 2400;
  21:main.c        **** const int PWMSERVO_X_CORRECTION = 90-9;
  22:main.c        **** const int PWMSERVO_Y_CORRECTION = 90+3;
  23:main.c        **** const float X_Volt_EMPMAX = 4.5;
ARM GAS  C:\Users\emman\AppData\Local\Temp\cckEIm0N.s 			page 2


  24:main.c        **** const float Y_Volt_EMPMAX = 4.3;
  25:main.c        **** const int X_MAX = 3540;
  26:main.c        **** const int Y_MAX = 3690;
  27:main.c        **** const int X_MIN = 380;
  28:main.c        **** const int Y_MIN = 180;
  29:main.c        **** float Xrel = 0;
  30:main.c        **** float Yrel = 0;
  31:main.c        **** float Vddval = 5;
  32:main.c        **** float Vssval = 0;
  33:main.c        **** 
  34:main.c        **** int x_int = 0;
  35:main.c        **** int y_int = 0;
  36:main.c        **** float x_float = 0;
  37:main.c        **** float y_float = 0;
  38:main.c        **** int x_req = 2000;
  39:main.c        **** int y_req = 2000;
  40:main.c        **** float X_Ak=0;
  41:main.c        **** float Y_Ak=0;
  42:main.c        **** float X_Akmenos1=0;
  43:main.c        **** float Y_Akmenos1=0;
  44:main.c        **** float X_Ek=0;
  45:main.c        **** float Y_Ek=0;
  46:main.c        **** float X_Ekmenos1=0;
  47:main.c        **** float Y_Ekmenos1=0;
  48:main.c        **** float X_prep=0;
  49:main.c        **** float Y_prep=0;
  50:main.c        **** 
  51:main.c        **** 
  52:main.c        **** CY_ISR_PROTO(Y_interrupcion_Handler);
  53:main.c        **** CY_ISR_PROTO(X_interrupcion_Handler);
  54:main.c        **** 
  55:main.c        **** //Definiendo funciones que utilizaremos en nuestro sistema de control
  56:main.c        **** int mapANGtoTIME(float Angulo){ //Esta función mapea apartir de un rango dado a otro rango dado.
  35              		.loc 1 56 0
  36              		.cfi_startproc
  37              		@ args = 0, pretend = 0, frame = 0
  38              		@ frame_needed = 0, uses_anonymous_args = 0
  39              	.LVL0:
  40 0000 10B5     		push	{r4, lr}
  41              		.cfi_def_cfa_offset 8
  42              		.cfi_offset 4, -8
  43              		.cfi_offset 14, -4
  44 0002 0446     		mov	r4, r0
  57:main.c        ****     if (0<Angulo && Angulo<180){
  45              		.loc 1 57 0
  46 0004 0021     		movs	r1, #0
  47 0006 FFF7FEFF 		bl	__aeabi_fcmpgt
  48              	.LVL1:
  49 000a A8B1     		cbz	r0, .L2
  50              		.loc 1 57 0 is_stmt 0 discriminator 1
  51 000c 1049     		ldr	r1, .L13
  52 000e 2046     		mov	r0, r4
  53 0010 FFF7FEFF 		bl	__aeabi_fcmplt
  54              	.LVL2:
  55 0014 80B1     		cbz	r0, .L2
  56              	.LBB2:
  58:main.c        ****         float angrelativo = (Angulo)/180;
ARM GAS  C:\Users\emman\AppData\Local\Temp\cckEIm0N.s 			page 3


  57              		.loc 1 58 0 is_stmt 1
  58 0016 0E49     		ldr	r1, .L13
  59 0018 2046     		mov	r0, r4
  60 001a FFF7FEFF 		bl	__aeabi_fdiv
  61              	.LVL3:
  59:main.c        ****         float timerelative= angrelativo*(PWMSERVO_MAX-PWMSERVO_MIN);
  62              		.loc 1 59 0
  63 001e 0D49     		ldr	r1, .L13+4
  64 0020 FFF7FEFF 		bl	__aeabi_fmul
  65              	.LVL4:
  60:main.c        ****         return timerelative+PWMSERVO_MIN-1;
  66              		.loc 1 60 0
  67 0024 0C49     		ldr	r1, .L13+8
  68 0026 FFF7FEFF 		bl	__aeabi_fadd
  69              	.LVL5:
  70 002a 4FF07E51 		mov	r1, #1065353216
  71 002e FFF7FEFF 		bl	__aeabi_fsub
  72              	.LVL6:
  73 0032 FFF7FEFF 		bl	__aeabi_f2iz
  74              	.LVL7:
  75 0036 10BD     		pop	{r4, pc}
  76              	.LVL8:
  77              	.L2:
  78              	.LBE2:
  61:main.c        ****     }
  62:main.c        ****     else{
  63:main.c        ****         if (Angulo>180){
  79              		.loc 1 63 0
  80 0038 0549     		ldr	r1, .L13
  81 003a 2046     		mov	r0, r4
  82 003c FFF7FEFF 		bl	__aeabi_fcmpgt
  83              	.LVL9:
  84 0040 10B1     		cbz	r0, .L11
  85              	.LBB3:
  64:main.c        ****             float angrelativo = (180)/180;
  65:main.c        ****             float timerelative= angrelativo*(PWMSERVO_MAX-PWMSERVO_MIN);
  66:main.c        ****             return timerelative+PWMSERVO_MIN-1;
  86              		.loc 1 66 0
  87 0042 40F65F10 		movw	r0, #2399
  88 0046 10BD     		pop	{r4, pc}
  89              	.LVL10:
  90              	.L11:
  91              	.LBE3:
  92              	.LBB4:
  67:main.c        ****         }
  68:main.c        ****         else{
  69:main.c        ****             float angrelativo = (0)/180;
  70:main.c        ****             float timerelative= angrelativo*(PWMSERVO_MAX-PWMSERVO_MIN);
  71:main.c        ****             return timerelative+PWMSERVO_MIN-1;
  93              		.loc 1 71 0
  94 0048 40F21F20 		movw	r0, #543
  95              	.LBE4:
  72:main.c        ****         }
  73:main.c        ****     }
  74:main.c        **** }
  96              		.loc 1 74 0
  97 004c 10BD     		pop	{r4, pc}
ARM GAS  C:\Users\emman\AppData\Local\Temp\cckEIm0N.s 			page 4


  98              	.LVL11:
  99              	.L14:
 100 004e 00BF     		.align	2
 101              	.L13:
 102 0050 00003443 		.word	1127481344
 103 0054 0000E844 		.word	1156055040
 104 0058 00000844 		.word	1141374976
 105              		.cfi_endproc
 106              	.LFE64:
 107              		.size	mapANGtoTIME, .-mapANGtoTIME
 108              		.section	.text.SetServoX,"ax",%progbits
 109              		.align	2
 110              		.global	SetServoX
 111              		.thumb
 112              		.thumb_func
 113              		.type	SetServoX, %function
 114              	SetServoX:
 115              	.LFB65:
  75:main.c        **** void SetServoX(float Angulo){
 116              		.loc 1 75 0
 117              		.cfi_startproc
 118              		@ args = 0, pretend = 0, frame = 0
 119              		@ frame_needed = 0, uses_anonymous_args = 0
 120              	.LVL12:
 121 0000 08B5     		push	{r3, lr}
 122              		.cfi_def_cfa_offset 8
 123              		.cfi_offset 3, -8
 124              		.cfi_offset 14, -4
  76:main.c        ****     Angulo=(Angulo*-1)+PWMSERVO_X_CORRECTION;
 125              		.loc 1 76 0
 126 0002 0146     		mov	r1, r0
 127 0004 0448     		ldr	r0, .L17
 128              	.LVL13:
 129 0006 FFF7FEFF 		bl	__aeabi_fsub
 130              	.LVL14:
  77:main.c        ****     PWM_X_WriteCompare1(mapANGtoTIME(Angulo)); 
 131              		.loc 1 77 0
 132 000a FFF7FEFF 		bl	mapANGtoTIME
 133              	.LVL15:
 134 000e 80B2     		uxth	r0, r0
 135 0010 FFF7FEFF 		bl	PWM_X_WriteCompare1
 136              	.LVL16:
 137 0014 08BD     		pop	{r3, pc}
 138              	.L18:
 139 0016 00BF     		.align	2
 140              	.L17:
 141 0018 0000A242 		.word	1117913088
 142              		.cfi_endproc
 143              	.LFE65:
 144              		.size	SetServoX, .-SetServoX
 145              		.section	.text.SetServoY,"ax",%progbits
 146              		.align	2
 147              		.global	SetServoY
 148              		.thumb
 149              		.thumb_func
 150              		.type	SetServoY, %function
 151              	SetServoY:
ARM GAS  C:\Users\emman\AppData\Local\Temp\cckEIm0N.s 			page 5


 152              	.LFB66:
  78:main.c        ****     return;
  79:main.c        **** }
  80:main.c        **** void SetServoY(float Angulo){
 153              		.loc 1 80 0
 154              		.cfi_startproc
 155              		@ args = 0, pretend = 0, frame = 0
 156              		@ frame_needed = 0, uses_anonymous_args = 0
 157              	.LVL17:
 158 0000 08B5     		push	{r3, lr}
 159              		.cfi_def_cfa_offset 8
 160              		.cfi_offset 3, -8
 161              		.cfi_offset 14, -4
  81:main.c        ****     Angulo=(Angulo*-1)+PWMSERVO_Y_CORRECTION;
 162              		.loc 1 81 0
 163 0002 0146     		mov	r1, r0
 164 0004 0448     		ldr	r0, .L21
 165              	.LVL18:
 166 0006 FFF7FEFF 		bl	__aeabi_fsub
 167              	.LVL19:
  82:main.c        ****     PWM_Y_WriteCompare1(mapANGtoTIME(Angulo));
 168              		.loc 1 82 0
 169 000a FFF7FEFF 		bl	mapANGtoTIME
 170              	.LVL20:
 171 000e 80B2     		uxth	r0, r0
 172 0010 FFF7FEFF 		bl	PWM_Y_WriteCompare1
 173              	.LVL21:
 174 0014 08BD     		pop	{r3, pc}
 175              	.L22:
 176 0016 00BF     		.align	2
 177              	.L21:
 178 0018 0000BA42 		.word	1119485952
 179              		.cfi_endproc
 180              	.LFE66:
 181              		.size	SetServoY, .-SetServoY
 182              		.section	.text.ReadXAxis,"ax",%progbits
 183              		.align	2
 184              		.global	ReadXAxis
 185              		.thumb
 186              		.thumb_func
 187              		.type	ReadXAxis, %function
 188              	ReadXAxis:
 189              	.LFB67:
  83:main.c        ****     return;
  84:main.c        **** }
  85:main.c        **** /*void Volt_update(void){ //Actualiza el valor del voltaje minimo y maximo que puede leer para ajus
  86:main.c        ****     AxisSelector_Write(0xFF);   //Seleccionamos el eje X poniendo unos.
  87:main.c        ****     CyDelay(1);
  88:main.c        ****     Vddval = ADC_YAxis_CountsTo_Volts(ADC_YAxis_GetResult16());
  89:main.c        ****     AxisSelector_Write(0x00);   //Seleccionamos el eje Y poniendo ceros.
  90:main.c        ****     CyDelay(1);
  91:main.c        ****     Vssval = ADC_XAxis_CountsTo_Volts(ADC_XAxis_GetResult16());
  92:main.c        ****     return;
  93:main.c        **** }*/
  94:main.c        **** int ReadXAxis(void){
 190              		.loc 1 94 0
 191              		.cfi_startproc
ARM GAS  C:\Users\emman\AppData\Local\Temp\cckEIm0N.s 			page 6


 192              		@ args = 0, pretend = 0, frame = 0
 193              		@ frame_needed = 0, uses_anonymous_args = 0
 194 0000 10B5     		push	{r4, lr}
 195              		.cfi_def_cfa_offset 8
 196              		.cfi_offset 4, -8
 197              		.cfi_offset 14, -4
  95:main.c        ****     int value_int = Touch_Measure();
 198              		.loc 1 95 0
 199 0002 FFF7FEFF 		bl	Touch_Measure
 200              	.LVL22:
 201 0006 0446     		mov	r4, r0
 202              	.LVL23:
  96:main.c        ****     Touch_ActivateY();
 203              		.loc 1 96 0
 204 0008 FFF7FEFF 		bl	Touch_ActivateY
 205              	.LVL24:
  97:main.c        ****     return value_int;
  98:main.c        **** }
 206              		.loc 1 98 0
 207 000c 2046     		mov	r0, r4
 208 000e 10BD     		pop	{r4, pc}
 209              		.cfi_endproc
 210              	.LFE67:
 211              		.size	ReadXAxis, .-ReadXAxis
 212              		.section	.text.ReadYAxis,"ax",%progbits
 213              		.align	2
 214              		.global	ReadYAxis
 215              		.thumb
 216              		.thumb_func
 217              		.type	ReadYAxis, %function
 218              	ReadYAxis:
 219              	.LFB68:
  99:main.c        **** 
 100:main.c        **** int ReadYAxis(void){
 220              		.loc 1 100 0
 221              		.cfi_startproc
 222              		@ args = 0, pretend = 0, frame = 0
 223              		@ frame_needed = 0, uses_anonymous_args = 0
 224 0000 10B5     		push	{r4, lr}
 225              		.cfi_def_cfa_offset 8
 226              		.cfi_offset 4, -8
 227              		.cfi_offset 14, -4
 101:main.c        ****     int value_int = Touch_Measure();
 228              		.loc 1 101 0
 229 0002 FFF7FEFF 		bl	Touch_Measure
 230              	.LVL25:
 231 0006 0446     		mov	r4, r0
 232              	.LVL26:
 102:main.c        ****     Touch_ActivateX();
 233              		.loc 1 102 0
 234 0008 FFF7FEFF 		bl	Touch_ActivateX
 235              	.LVL27:
 103:main.c        ****     return value_int;
 104:main.c        **** }
 236              		.loc 1 104 0
 237 000c 2046     		mov	r0, r4
 238 000e 10BD     		pop	{r4, pc}
ARM GAS  C:\Users\emman\AppData\Local\Temp\cckEIm0N.s 			page 7


 239              		.cfi_endproc
 240              	.LFE68:
 241              		.size	ReadYAxis, .-ReadYAxis
 242              		.global	__aeabi_i2f
 243              		.section	.text.PosRealX,"ax",%progbits
 244              		.align	2
 245              		.global	PosRealX
 246              		.thumb
 247              		.thumb_func
 248              		.type	PosRealX, %function
 249              	PosRealX:
 250              	.LFB69:
 105:main.c        **** 
 106:main.c        **** float PosRealX(int PosXint){
 251              		.loc 1 106 0
 252              		.cfi_startproc
 253              		@ args = 0, pretend = 0, frame = 0
 254              		@ frame_needed = 0, uses_anonymous_args = 0
 255              	.LVL28:
 256 0000 08B5     		push	{r3, lr}
 257              		.cfi_def_cfa_offset 8
 258              		.cfi_offset 3, -8
 259              		.cfi_offset 14, -4
 107:main.c        ****     float PosVolt=((PosXint-X_MIN)*Xrel);
 260              		.loc 1 107 0
 261 0002 A0F5BE70 		sub	r0, r0, #380
 262              	.LVL29:
 263 0006 FFF7FEFF 		bl	__aeabi_i2f
 264              	.LVL30:
 265 000a 024B     		ldr	r3, .L29
 266 000c 1968     		ldr	r1, [r3]	@ float
 267 000e FFF7FEFF 		bl	__aeabi_fmul
 268              	.LVL31:
 108:main.c        ****     return PosVolt;
 109:main.c        **** }
 269              		.loc 1 109 0
 270 0012 08BD     		pop	{r3, pc}
 271              	.L30:
 272              		.align	2
 273              	.L29:
 274 0014 00000000 		.word	.LANCHOR0
 275              		.cfi_endproc
 276              	.LFE69:
 277              		.size	PosRealX, .-PosRealX
 278              		.section	.text.PosRealY,"ax",%progbits
 279              		.align	2
 280              		.global	PosRealY
 281              		.thumb
 282              		.thumb_func
 283              		.type	PosRealY, %function
 284              	PosRealY:
 285              	.LFB70:
 110:main.c        **** 
 111:main.c        **** float PosRealY(int PosYint){
 286              		.loc 1 111 0
 287              		.cfi_startproc
 288              		@ args = 0, pretend = 0, frame = 0
ARM GAS  C:\Users\emman\AppData\Local\Temp\cckEIm0N.s 			page 8


 289              		@ frame_needed = 0, uses_anonymous_args = 0
 290              	.LVL32:
 291 0000 08B5     		push	{r3, lr}
 292              		.cfi_def_cfa_offset 8
 293              		.cfi_offset 3, -8
 294              		.cfi_offset 14, -4
 112:main.c        ****     float PosVolt=((PosYint-Y_MIN)*Yrel);
 295              		.loc 1 112 0
 296 0002 B438     		subs	r0, r0, #180
 297              	.LVL33:
 298 0004 FFF7FEFF 		bl	__aeabi_i2f
 299              	.LVL34:
 300 0008 024B     		ldr	r3, .L33
 301 000a 5968     		ldr	r1, [r3, #4]	@ float
 302 000c FFF7FEFF 		bl	__aeabi_fmul
 303              	.LVL35:
 113:main.c        ****     return PosVolt;
 114:main.c        **** }
 304              		.loc 1 114 0
 305 0010 08BD     		pop	{r3, pc}
 306              	.L34:
 307 0012 00BF     		.align	2
 308              	.L33:
 309 0014 00000000 		.word	.LANCHOR0
 310              		.cfi_endproc
 311              	.LFE70:
 312              		.size	PosRealY, .-PosRealY
 313              		.section	.text.Saturador,"ax",%progbits
 314              		.align	2
 315              		.global	Saturador
 316              		.thumb
 317              		.thumb_func
 318              		.type	Saturador, %function
 319              	Saturador:
 320              	.LFB71:
 115:main.c        **** 
 116:main.c        **** float Saturador(float val, float min, float max){
 321              		.loc 1 116 0
 322              		.cfi_startproc
 323              		@ args = 0, pretend = 0, frame = 0
 324              		@ frame_needed = 0, uses_anonymous_args = 0
 325              	.LVL36:
 326 0000 70B5     		push	{r4, r5, r6, lr}
 327              		.cfi_def_cfa_offset 16
 328              		.cfi_offset 4, -16
 329              		.cfi_offset 5, -12
 330              		.cfi_offset 6, -8
 331              		.cfi_offset 14, -4
 332 0002 0546     		mov	r5, r0
 333 0004 0E46     		mov	r6, r1
 334 0006 1446     		mov	r4, r2
 117:main.c        ****     if (val>max){
 335              		.loc 1 117 0
 336 0008 1146     		mov	r1, r2
 337              	.LVL37:
 338 000a FFF7FEFF 		bl	__aeabi_fcmpgt
 339              	.LVL38:
ARM GAS  C:\Users\emman\AppData\Local\Temp\cckEIm0N.s 			page 9


 340 000e 30B9     		cbnz	r0, .L38
 118:main.c        ****         return max;
 119:main.c        ****     }
 120:main.c        ****     else{
 121:main.c        ****         if (val<min){
 341              		.loc 1 121 0
 342 0010 3146     		mov	r1, r6
 343 0012 2846     		mov	r0, r5
 344 0014 FFF7FEFF 		bl	__aeabi_fcmplt
 345              	.LVL39:
 346 0018 18B1     		cbz	r0, .L41
 122:main.c        ****             return min;
 347              		.loc 1 122 0
 348 001a 3046     		mov	r0, r6
 349 001c 70BD     		pop	{r4, r5, r6, pc}
 350              	.LVL40:
 351              	.L38:
 118:main.c        ****         return max;
 352              		.loc 1 118 0
 353 001e 2046     		mov	r0, r4
 354 0020 70BD     		pop	{r4, r5, r6, pc}
 355              	.LVL41:
 356              	.L41:
 123:main.c        ****         }
 124:main.c        ****         else{
 125:main.c        ****             return val;
 357              		.loc 1 125 0
 358 0022 2846     		mov	r0, r5
 126:main.c        ****         }
 127:main.c        ****     }
 128:main.c        ****     
 129:main.c        **** }
 359              		.loc 1 129 0
 360 0024 70BD     		pop	{r4, r5, r6, pc}
 361              		.cfi_endproc
 362              	.LFE71:
 363              		.size	Saturador, .-Saturador
 364              		.global	__aeabi_f2d
 365              		.global	__aeabi_dmul
 366              		.global	__aeabi_dadd
 367              		.global	__aeabi_d2f
 368 0026 00BF     		.section	.text.Y_interrupcion_Handler,"ax",%progbits
 369              		.align	2
 370              		.global	Y_interrupcion_Handler
 371              		.thumb
 372              		.thumb_func
 373              		.type	Y_interrupcion_Handler, %function
 374              	Y_interrupcion_Handler:
 375              	.LFB73:
 130:main.c        **** 
 131:main.c        **** void printScreen(int Xpos, int Ypos, int Xreq, int Yreq){
 132:main.c        ****         char x_to_print[10];
 133:main.c        ****         char y_to_print[10];
 134:main.c        ****         char x_pos_print[10];
 135:main.c        ****         char y_pos_print[10];       
 136:main.c        ****         sprintf(x_to_print, "Xrq=%d", Xreq);
 137:main.c        ****         sprintf(y_to_print, "Yrq=%d", Yreq);
ARM GAS  C:\Users\emman\AppData\Local\Temp\cckEIm0N.s 			page 10


 138:main.c        ****         sprintf(x_pos_print, "Xps=%d", Xpos);
 139:main.c        ****         sprintf(y_pos_print, "Yps=%d", Ypos);
 140:main.c        ****         LCD_ClearDisplay();
 141:main.c        ****         LCD_Position(0u, 0u); // first row, first column
 142:main.c        ****         LCD_PrintString(x_to_print);   
 143:main.c        ****         LCD_Position(1u, 0u); // first row, first column
 144:main.c        ****         LCD_PrintString(y_to_print);
 145:main.c        ****         LCD_Position(0u, 8u); // first row, first column
 146:main.c        ****         LCD_PrintString(x_pos_print);   
 147:main.c        ****         LCD_Position(1u, 8u); // first row, first column
 148:main.c        ****         LCD_PrintString(y_pos_print);
 149:main.c        ****         return;
 150:main.c        **** }
 151:main.c        **** 
 152:main.c        **** CY_ISR(Y_interrupcion_Handler)
 153:main.c        **** {
 376              		.loc 1 153 0
 377              		.cfi_startproc
 378              		@ args = 0, pretend = 0, frame = 0
 379              		@ frame_needed = 0, uses_anonymous_args = 0
 380 0000 F8B5     		push	{r3, r4, r5, r6, r7, lr}
 381              		.cfi_def_cfa_offset 24
 382              		.cfi_offset 3, -24
 383              		.cfi_offset 4, -20
 384              		.cfi_offset 5, -16
 385              		.cfi_offset 6, -12
 386              		.cfi_offset 7, -8
 387              		.cfi_offset 14, -4
 154:main.c        ****         y_int = ReadYAxis();
 388              		.loc 1 154 0
 389 0002 FFF7FEFF 		bl	ReadYAxis
 390              	.LVL42:
 391 0006 284C     		ldr	r4, .L45+24
 392 0008 A060     		str	r0, [r4, #8]
 155:main.c        ****         Y_Ek = PosRealY(y_req-y_int);
 393              		.loc 1 155 0
 394 000a 284B     		ldr	r3, .L45+28
 395 000c 1B68     		ldr	r3, [r3]
 396 000e 1D1A     		subs	r5, r3, r0
 397 0010 2846     		mov	r0, r5
 398 0012 FFF7FEFF 		bl	PosRealY
 399              	.LVL43:
 400 0016 E060     		str	r0, [r4, #12]	@ float
 156:main.c        ****         y_int = y_req-y_int;
 401              		.loc 1 156 0
 402 0018 A560     		str	r5, [r4, #8]
 157:main.c        ****         Y_Ak=Y_prep+Y_Ek*(251.59);
 403              		.loc 1 157 0
 404 001a FFF7FEFF 		bl	__aeabi_f2d
 405              	.LVL44:
 406 001e 1CA3     		adr	r3, .L45
 407 0020 D3E90023 		ldrd	r2, [r3]
 408 0024 FFF7FEFF 		bl	__aeabi_dmul
 409              	.LVL45:
 410 0028 0646     		mov	r6, r0
 411 002a 0F46     		mov	r7, r1
 412 002c 2069     		ldr	r0, [r4, #16]	@ float
ARM GAS  C:\Users\emman\AppData\Local\Temp\cckEIm0N.s 			page 11


 413 002e FFF7FEFF 		bl	__aeabi_f2d
 414              	.LVL46:
 415 0032 3246     		mov	r2, r6
 416 0034 3B46     		mov	r3, r7
 417 0036 FFF7FEFF 		bl	__aeabi_dadd
 418              	.LVL47:
 419 003a FFF7FEFF 		bl	__aeabi_d2f
 420              	.LVL48:
 158:main.c        ****         Y_Ak=Saturador(Y_Ak,-30,30);
 421              		.loc 1 158 0
 422 003e 1C4A     		ldr	r2, .L45+32
 423 0040 1C49     		ldr	r1, .L45+36
 424 0042 FFF7FEFF 		bl	Saturador
 425              	.LVL49:
 426 0046 6061     		str	r0, [r4, #20]	@ float
 159:main.c        ****         SetServoY(-Y_Ak);
 427              		.loc 1 159 0
 428 0048 00F10040 		add	r0, r0, #-2147483648
 429 004c FFF7FEFF 		bl	SetServoY
 430              	.LVL50:
 160:main.c        ****         Y_Akmenos1=Y_Ak;
 431              		.loc 1 160 0
 432 0050 6069     		ldr	r0, [r4, #20]	@ float
 433 0052 A061     		str	r0, [r4, #24]	@ float
 161:main.c        ****         Y_Ekmenos1=Y_Ek;
 434              		.loc 1 161 0
 435 0054 E568     		ldr	r5, [r4, #12]	@ float
 436 0056 E561     		str	r5, [r4, #28]	@ float
 162:main.c        ****         Y_prep = Y_Akmenos1*0.2632+Y_Ekmenos1*(-242.38);
 437              		.loc 1 162 0
 438 0058 FFF7FEFF 		bl	__aeabi_f2d
 439              	.LVL51:
 440 005c 0EA3     		adr	r3, .L45+8
 441 005e D3E90023 		ldrd	r2, [r3]
 442 0062 FFF7FEFF 		bl	__aeabi_dmul
 443              	.LVL52:
 444 0066 0646     		mov	r6, r0
 445 0068 0F46     		mov	r7, r1
 446 006a 2846     		mov	r0, r5
 447 006c FFF7FEFF 		bl	__aeabi_f2d
 448              	.LVL53:
 449 0070 0BA3     		adr	r3, .L45+16
 450 0072 D3E90023 		ldrd	r2, [r3]
 451 0076 FFF7FEFF 		bl	__aeabi_dmul
 452              	.LVL54:
 453 007a 0246     		mov	r2, r0
 454 007c 0B46     		mov	r3, r1
 455 007e 3046     		mov	r0, r6
 456 0080 3946     		mov	r1, r7
 457 0082 FFF7FEFF 		bl	__aeabi_dadd
 458              	.LVL55:
 459 0086 FFF7FEFF 		bl	__aeabi_d2f
 460              	.LVL56:
 461 008a 2061     		str	r0, [r4, #16]	@ float
 462 008c F8BD     		pop	{r3, r4, r5, r6, r7, pc}
 463              	.L46:
 464 008e 00BF     		.align	3
ARM GAS  C:\Users\emman\AppData\Local\Temp\cckEIm0N.s 			page 12


 465              	.L45:
 466 0090 7B14AE47 		.word	1202590843
 467 0094 E1726F40 		.word	1081045729
 468 0098 2AA913D0 		.word	-804017878
 469 009c 44D8D03F 		.word	1070651460
 470 00a0 5C8FC2F5 		.word	-171798692
 471 00a4 284C6EC0 		.word	-1066513368
 472 00a8 00000000 		.word	.LANCHOR0
 473 00ac 00000000 		.word	.LANCHOR1
 474 00b0 0000F041 		.word	1106247680
 475 00b4 0000F0C1 		.word	-1041235968
 476              		.cfi_endproc
 477              	.LFE73:
 478              		.size	Y_interrupcion_Handler, .-Y_interrupcion_Handler
 479              		.section	.text.X_interrupcion_Handler,"ax",%progbits
 480              		.align	2
 481              		.global	X_interrupcion_Handler
 482              		.thumb
 483              		.thumb_func
 484              		.type	X_interrupcion_Handler, %function
 485              	X_interrupcion_Handler:
 486              	.LFB74:
 163:main.c        **** 
 164:main.c        **** }
 165:main.c        **** 
 166:main.c        **** CY_ISR(X_interrupcion_Handler)
 167:main.c        **** {
 487              		.loc 1 167 0
 488              		.cfi_startproc
 489              		@ args = 0, pretend = 0, frame = 0
 490              		@ frame_needed = 0, uses_anonymous_args = 0
 491 0000 F8B5     		push	{r3, r4, r5, r6, r7, lr}
 492              		.cfi_def_cfa_offset 24
 493              		.cfi_offset 3, -24
 494              		.cfi_offset 4, -20
 495              		.cfi_offset 5, -16
 496              		.cfi_offset 6, -12
 497              		.cfi_offset 7, -8
 498              		.cfi_offset 14, -4
 168:main.c        ****         x_int = ReadXAxis();
 499              		.loc 1 168 0
 500 0002 FFF7FEFF 		bl	ReadXAxis
 501              	.LVL57:
 502 0006 284C     		ldr	r4, .L49+24
 503 0008 2062     		str	r0, [r4, #32]
 169:main.c        ****         X_Ek = PosRealX(x_req-x_int);
 504              		.loc 1 169 0
 505 000a 284B     		ldr	r3, .L49+28
 506 000c 5B68     		ldr	r3, [r3, #4]
 507 000e 1D1A     		subs	r5, r3, r0
 508 0010 2846     		mov	r0, r5
 509 0012 FFF7FEFF 		bl	PosRealX
 510              	.LVL58:
 511 0016 6062     		str	r0, [r4, #36]	@ float
 170:main.c        ****         x_int = x_req-x_int;
 512              		.loc 1 170 0
 513 0018 2562     		str	r5, [r4, #32]
ARM GAS  C:\Users\emman\AppData\Local\Temp\cckEIm0N.s 			page 13


 171:main.c        ****         X_Ak=X_prep+X_Ek*(251.59);
 514              		.loc 1 171 0
 515 001a FFF7FEFF 		bl	__aeabi_f2d
 516              	.LVL59:
 517 001e 1CA3     		adr	r3, .L49
 518 0020 D3E90023 		ldrd	r2, [r3]
 519 0024 FFF7FEFF 		bl	__aeabi_dmul
 520              	.LVL60:
 521 0028 0646     		mov	r6, r0
 522 002a 0F46     		mov	r7, r1
 523 002c A06A     		ldr	r0, [r4, #40]	@ float
 524 002e FFF7FEFF 		bl	__aeabi_f2d
 525              	.LVL61:
 526 0032 3246     		mov	r2, r6
 527 0034 3B46     		mov	r3, r7
 528 0036 FFF7FEFF 		bl	__aeabi_dadd
 529              	.LVL62:
 530 003a FFF7FEFF 		bl	__aeabi_d2f
 531              	.LVL63:
 172:main.c        ****         X_Ak=Saturador(X_Ak,-30,30);
 532              		.loc 1 172 0
 533 003e 1C4A     		ldr	r2, .L49+32
 534 0040 1C49     		ldr	r1, .L49+36
 535 0042 FFF7FEFF 		bl	Saturador
 536              	.LVL64:
 537 0046 E062     		str	r0, [r4, #44]	@ float
 173:main.c        ****         SetServoX(X_Ak);
 538              		.loc 1 173 0
 539 0048 FFF7FEFF 		bl	SetServoX
 540              	.LVL65:
 174:main.c        ****         X_Akmenos1=X_Ak;
 541              		.loc 1 174 0
 542 004c E06A     		ldr	r0, [r4, #44]	@ float
 543 004e 2063     		str	r0, [r4, #48]	@ float
 175:main.c        ****         X_Ekmenos1=X_Ek;
 544              		.loc 1 175 0
 545 0050 656A     		ldr	r5, [r4, #36]	@ float
 546 0052 6563     		str	r5, [r4, #52]	@ float
 176:main.c        ****         X_prep = X_Akmenos1*0.519211+X_Ekmenos1*(-94.13);
 547              		.loc 1 176 0
 548 0054 FFF7FEFF 		bl	__aeabi_f2d
 549              	.LVL66:
 550 0058 0FA3     		adr	r3, .L49+8
 551 005a D3E90023 		ldrd	r2, [r3]
 552 005e FFF7FEFF 		bl	__aeabi_dmul
 553              	.LVL67:
 554 0062 0646     		mov	r6, r0
 555 0064 0F46     		mov	r7, r1
 556 0066 2846     		mov	r0, r5
 557 0068 FFF7FEFF 		bl	__aeabi_f2d
 558              	.LVL68:
 559 006c 0CA3     		adr	r3, .L49+16
 560 006e D3E90023 		ldrd	r2, [r3]
 561 0072 FFF7FEFF 		bl	__aeabi_dmul
 562              	.LVL69:
 563 0076 0246     		mov	r2, r0
 564 0078 0B46     		mov	r3, r1
ARM GAS  C:\Users\emman\AppData\Local\Temp\cckEIm0N.s 			page 14


 565 007a 3046     		mov	r0, r6
 566 007c 3946     		mov	r1, r7
 567 007e FFF7FEFF 		bl	__aeabi_dadd
 568              	.LVL70:
 569 0082 FFF7FEFF 		bl	__aeabi_d2f
 570              	.LVL71:
 571 0086 A062     		str	r0, [r4, #40]	@ float
 572 0088 F8BD     		pop	{r3, r4, r5, r6, r7, pc}
 573              	.L50:
 574 008a 00BFAFF3 		.align	3
 574      0080
 575              	.L49:
 576 0090 7B14AE47 		.word	1202590843
 577 0094 E1726F40 		.word	1081045729
 578 0098 8D261763 		.word	1662461581
 579 009c 609DE03F 		.word	1071684960
 580 00a0 B81E85EB 		.word	-343597384
 581 00a4 518857C0 		.word	-1068005295
 582 00a8 00000000 		.word	.LANCHOR0
 583 00ac 00000000 		.word	.LANCHOR1
 584 00b0 0000F041 		.word	1106247680
 585 00b4 0000F0C1 		.word	-1041235968
 586              		.cfi_endproc
 587              	.LFE74:
 588              		.size	X_interrupcion_Handler, .-X_interrupcion_Handler
 589              		.section	.text.printScreen,"ax",%progbits
 590              		.align	2
 591              		.global	printScreen
 592              		.thumb
 593              		.thumb_func
 594              		.type	printScreen, %function
 595              	printScreen:
 596              	.LFB72:
 131:main.c        ****         char x_to_print[10];
 597              		.loc 1 131 0
 598              		.cfi_startproc
 599              		@ args = 0, pretend = 0, frame = 48
 600              		@ frame_needed = 0, uses_anonymous_args = 0
 601              	.LVL72:
 602 0000 70B5     		push	{r4, r5, r6, lr}
 603              		.cfi_def_cfa_offset 16
 604              		.cfi_offset 4, -16
 605              		.cfi_offset 5, -12
 606              		.cfi_offset 6, -8
 607              		.cfi_offset 14, -4
 608 0002 8CB0     		sub	sp, sp, #48
 609              		.cfi_def_cfa_offset 64
 610 0004 0546     		mov	r5, r0
 611 0006 0C46     		mov	r4, r1
 612 0008 1E46     		mov	r6, r3
 136:main.c        ****         sprintf(y_to_print, "Yrq=%d", Yreq);
 613              		.loc 1 136 0
 614 000a 1A49     		ldr	r1, .L53
 615              	.LVL73:
 616 000c 09A8     		add	r0, sp, #36
 617              	.LVL74:
 618 000e FFF7FEFF 		bl	sprintf
ARM GAS  C:\Users\emman\AppData\Local\Temp\cckEIm0N.s 			page 15


 619              	.LVL75:
 137:main.c        ****         sprintf(x_pos_print, "Xps=%d", Xpos);
 620              		.loc 1 137 0
 621 0012 3246     		mov	r2, r6
 622 0014 1849     		ldr	r1, .L53+4
 623 0016 06A8     		add	r0, sp, #24
 624 0018 FFF7FEFF 		bl	sprintf
 625              	.LVL76:
 138:main.c        ****         sprintf(y_pos_print, "Yps=%d", Ypos);
 626              		.loc 1 138 0
 627 001c 2A46     		mov	r2, r5
 628 001e 1749     		ldr	r1, .L53+8
 629 0020 03A8     		add	r0, sp, #12
 630 0022 FFF7FEFF 		bl	sprintf
 631              	.LVL77:
 139:main.c        ****         LCD_ClearDisplay();
 632              		.loc 1 139 0
 633 0026 2246     		mov	r2, r4
 634 0028 1549     		ldr	r1, .L53+12
 635 002a 6846     		mov	r0, sp
 636 002c FFF7FEFF 		bl	sprintf
 637              	.LVL78:
 140:main.c        ****         LCD_Position(0u, 0u); // first row, first column
 638              		.loc 1 140 0
 639 0030 0120     		movs	r0, #1
 640 0032 FFF7FEFF 		bl	LCD_WriteControl
 641              	.LVL79:
 141:main.c        ****         LCD_PrintString(x_to_print);   
 642              		.loc 1 141 0
 643 0036 0021     		movs	r1, #0
 644 0038 0846     		mov	r0, r1
 645 003a FFF7FEFF 		bl	LCD_Position
 646              	.LVL80:
 142:main.c        ****         LCD_Position(1u, 0u); // first row, first column
 647              		.loc 1 142 0
 648 003e 09A8     		add	r0, sp, #36
 649 0040 FFF7FEFF 		bl	LCD_PrintString
 650              	.LVL81:
 143:main.c        ****         LCD_PrintString(y_to_print);
 651              		.loc 1 143 0
 652 0044 0021     		movs	r1, #0
 653 0046 0120     		movs	r0, #1
 654 0048 FFF7FEFF 		bl	LCD_Position
 655              	.LVL82:
 144:main.c        ****         LCD_Position(0u, 8u); // first row, first column
 656              		.loc 1 144 0
 657 004c 06A8     		add	r0, sp, #24
 658 004e FFF7FEFF 		bl	LCD_PrintString
 659              	.LVL83:
 145:main.c        ****         LCD_PrintString(x_pos_print);   
 660              		.loc 1 145 0
 661 0052 0821     		movs	r1, #8
 662 0054 0020     		movs	r0, #0
 663 0056 FFF7FEFF 		bl	LCD_Position
 664              	.LVL84:
 146:main.c        ****         LCD_Position(1u, 8u); // first row, first column
 665              		.loc 1 146 0
ARM GAS  C:\Users\emman\AppData\Local\Temp\cckEIm0N.s 			page 16


 666 005a 03A8     		add	r0, sp, #12
 667 005c FFF7FEFF 		bl	LCD_PrintString
 668              	.LVL85:
 147:main.c        ****         LCD_PrintString(y_pos_print);
 669              		.loc 1 147 0
 670 0060 0821     		movs	r1, #8
 671 0062 0120     		movs	r0, #1
 672 0064 FFF7FEFF 		bl	LCD_Position
 673              	.LVL86:
 148:main.c        ****         return;
 674              		.loc 1 148 0
 675 0068 6846     		mov	r0, sp
 676 006a FFF7FEFF 		bl	LCD_PrintString
 677              	.LVL87:
 150:main.c        **** 
 678              		.loc 1 150 0
 679 006e 0CB0     		add	sp, sp, #48
 680              		.cfi_def_cfa_offset 16
 681              		@ sp needed
 682 0070 70BD     		pop	{r4, r5, r6, pc}
 683              	.LVL88:
 684              	.L54:
 685 0072 00BF     		.align	2
 686              	.L53:
 687 0074 00000000 		.word	.LC0
 688 0078 08000000 		.word	.LC1
 689 007c 10000000 		.word	.LC2
 690 0080 18000000 		.word	.LC3
 691              		.cfi_endproc
 692              	.LFE72:
 693              		.size	printScreen, .-printScreen
 694              		.section	.text.main,"ax",%progbits
 695              		.align	2
 696              		.global	main
 697              		.thumb
 698              		.thumb_func
 699              		.type	main, %function
 700              	main:
 701              	.LFB75:
 177:main.c        **** 
 178:main.c        **** }
 179:main.c        **** 
 180:main.c        **** int main(void)
 181:main.c        **** {   
 702              		.loc 1 181 0
 703              		.cfi_startproc
 704              		@ Volatile: function does not return.
 705              		@ args = 0, pretend = 0, frame = 0
 706              		@ frame_needed = 0, uses_anonymous_args = 0
 707 0000 08B5     		push	{r3, lr}
 708              		.cfi_def_cfa_offset 8
 709              		.cfi_offset 3, -8
 710              		.cfi_offset 14, -4
 182:main.c        ****     //Inicializamos variables globales
 183:main.c        ****     Xrel =(X_Volt_EMPMAX/(X_MAX-X_MIN));
 711              		.loc 1 183 0
 712 0002 194B     		ldr	r3, .L58
ARM GAS  C:\Users\emman\AppData\Local\Temp\cckEIm0N.s 			page 17


 713 0004 194A     		ldr	r2, .L58+4
 714 0006 1A60     		str	r2, [r3]	@ float
 184:main.c        ****     Yrel =(Y_Volt_EMPMAX/(Y_MAX-Y_MIN));
 715              		.loc 1 184 0
 716 0008 194A     		ldr	r2, .L58+8
 717 000a 5A60     		str	r2, [r3, #4]	@ float
 185:main.c        ****         
 186:main.c        ****     //Inicializamos los contadores que generaran las señales para los servos
 187:main.c        ****     PWM_X_Start();
 718              		.loc 1 187 0
 719 000c FFF7FEFF 		bl	PWM_X_Start
 720              	.LVL89:
 188:main.c        ****     PWM_Y_Start();
 721              		.loc 1 188 0
 722 0010 FFF7FEFF 		bl	PWM_Y_Start
 723              	.LVL90:
 189:main.c        ****     CyDelay(100);
 724              		.loc 1 189 0
 725 0014 6420     		movs	r0, #100
 726 0016 FFF7FEFF 		bl	CyDelay
 727              	.LVL91:
 190:main.c        ****     
 191:main.c        ****     //Separamos los PWM 10 milisegundos entre sí
 192:main.c        ****     PWM_reset_Write(0xF);
 728              		.loc 1 192 0
 729 001a 0F20     		movs	r0, #15
 730 001c FFF7FEFF 		bl	PWM_reset_Write
 731              	.LVL92:
 193:main.c        ****     CyDelay(20);
 732              		.loc 1 193 0
 733 0020 1420     		movs	r0, #20
 734 0022 FFF7FEFF 		bl	CyDelay
 735              	.LVL93:
 194:main.c        ****     PWM_reset_Write(0x6);
 736              		.loc 1 194 0
 737 0026 0620     		movs	r0, #6
 738 0028 FFF7FEFF 		bl	PWM_reset_Write
 739              	.LVL94:
 195:main.c        ****     CyDelay(10);
 740              		.loc 1 195 0
 741 002c 0A20     		movs	r0, #10
 742 002e FFF7FEFF 		bl	CyDelay
 743              	.LVL95:
 196:main.c        ****     PWM_reset_Write(0x0);
 744              		.loc 1 196 0
 745 0032 0020     		movs	r0, #0
 746 0034 FFF7FEFF 		bl	PWM_reset_Write
 747              	.LVL96:
 197:main.c        ****     Touch_Start();
 748              		.loc 1 197 0
 749 0038 FFF7FEFF 		bl	Touch_Start
 750              	.LVL97:
 198:main.c        **** 
 199:main.c        ****     /* Place your initialization/startup code here (e.g. MyInst_Start()) */
 200:main.c        ****     LCD_Start();
 751              		.loc 1 200 0
 752 003c FFF7FEFF 		bl	LCD_Start
ARM GAS  C:\Users\emman\AppData\Local\Temp\cckEIm0N.s 			page 18


 753              	.LVL98:
 201:main.c        ****     Y_interrupcion_StartEx(Y_interrupcion_Handler);
 754              		.loc 1 201 0
 755 0040 0C48     		ldr	r0, .L58+12
 756 0042 FFF7FEFF 		bl	Y_interrupcion_StartEx
 757              	.LVL99:
 202:main.c        ****     X_interrupcion_StartEx(X_interrupcion_Handler);
 758              		.loc 1 202 0
 759 0046 0C48     		ldr	r0, .L58+16
 760 0048 FFF7FEFF 		bl	X_interrupcion_StartEx
 761              	.LVL100:
 203:main.c        ****     CyGlobalIntEnable; /* Enable global interrupts. */
 762              		.loc 1 203 0
 763              		.syntax unified
 764              	@ 203 "main.c" 1
 765 004c 62B6     		CPSIE   i
 766              	@ 0 "" 2
 767              		.thumb
 768              		.syntax unified
 769              	.L56:
 204:main.c        ****     for(;;)
 205:main.c        ****     {
 206:main.c        ****         printScreen(x_int, y_int, x_req, y_req);        
 770              		.loc 1 206 0 discriminator 1
 771 004e 0B4A     		ldr	r2, .L58+20
 772 0050 0548     		ldr	r0, .L58
 773 0052 1368     		ldr	r3, [r2]
 774 0054 5268     		ldr	r2, [r2, #4]
 775 0056 8168     		ldr	r1, [r0, #8]
 776 0058 006A     		ldr	r0, [r0, #32]
 777 005a FFF7FEFF 		bl	printScreen
 778              	.LVL101:
 207:main.c        ****         CyDelay(100);       
 779              		.loc 1 207 0 discriminator 1
 780 005e 6420     		movs	r0, #100
 781 0060 FFF7FEFF 		bl	CyDelay
 782              	.LVL102:
 783 0064 F3E7     		b	.L56
 784              	.L59:
 785 0066 00BF     		.align	2
 786              	.L58:
 787 0068 00000000 		.word	.LANCHOR0
 788 006c 36A7BA3A 		.word	985311030
 789 0070 9292A03A 		.word	983601810
 790 0074 00000000 		.word	Y_interrupcion_Handler
 791 0078 00000000 		.word	X_interrupcion_Handler
 792 007c 00000000 		.word	.LANCHOR1
 793              		.cfi_endproc
 794              	.LFE75:
 795              		.size	main, .-main
 796              		.global	Y_prep
 797              		.global	X_prep
 798              		.global	Y_Ekmenos1
 799              		.global	X_Ekmenos1
 800              		.global	Y_Ek
 801              		.global	X_Ek
 802              		.global	Y_Akmenos1
ARM GAS  C:\Users\emman\AppData\Local\Temp\cckEIm0N.s 			page 19


 803              		.global	X_Akmenos1
 804              		.global	Y_Ak
 805              		.global	X_Ak
 806              		.global	y_req
 807              		.global	x_req
 808              		.global	y_float
 809              		.global	x_float
 810              		.global	y_int
 811              		.global	x_int
 812              		.global	Vssval
 813              		.global	Vddval
 814              		.global	Yrel
 815              		.global	Xrel
 816              		.global	Y_MIN
 817              		.global	X_MIN
 818              		.global	Y_MAX
 819              		.global	X_MAX
 820              		.global	Y_Volt_EMPMAX
 821              		.global	X_Volt_EMPMAX
 822              		.global	PWMSERVO_Y_CORRECTION
 823              		.global	PWMSERVO_X_CORRECTION
 824              		.global	PWMSERVO_MAX
 825              		.global	PWMSERVO_MIN
 826              		.section	.rodata
 827              		.align	2
 828              		.type	Y_MIN, %object
 829              		.size	Y_MIN, 4
 830              	Y_MIN:
 831 0000 B4000000 		.word	180
 832              		.type	X_MIN, %object
 833              		.size	X_MIN, 4
 834              	X_MIN:
 835 0004 7C010000 		.word	380
 836              		.type	Y_MAX, %object
 837              		.size	Y_MAX, 4
 838              	Y_MAX:
 839 0008 6A0E0000 		.word	3690
 840              		.type	X_MAX, %object
 841              		.size	X_MAX, 4
 842              	X_MAX:
 843 000c D40D0000 		.word	3540
 844              		.type	Y_Volt_EMPMAX, %object
 845              		.size	Y_Volt_EMPMAX, 4
 846              	Y_Volt_EMPMAX:
 847 0010 9A998940 		.word	1082759578
 848              		.type	X_Volt_EMPMAX, %object
 849              		.size	X_Volt_EMPMAX, 4
 850              	X_Volt_EMPMAX:
 851 0014 00009040 		.word	1083179008
 852              		.type	PWMSERVO_Y_CORRECTION, %object
 853              		.size	PWMSERVO_Y_CORRECTION, 4
 854              	PWMSERVO_Y_CORRECTION:
 855 0018 5D000000 		.word	93
 856              		.type	PWMSERVO_X_CORRECTION, %object
 857              		.size	PWMSERVO_X_CORRECTION, 4
 858              	PWMSERVO_X_CORRECTION:
 859 001c 51000000 		.word	81
ARM GAS  C:\Users\emman\AppData\Local\Temp\cckEIm0N.s 			page 20


 860              		.type	PWMSERVO_MAX, %object
 861              		.size	PWMSERVO_MAX, 4
 862              	PWMSERVO_MAX:
 863 0020 60090000 		.word	2400
 864              		.type	PWMSERVO_MIN, %object
 865              		.size	PWMSERVO_MIN, 4
 866              	PWMSERVO_MIN:
 867 0024 20020000 		.word	544
 868              		.data
 869              		.align	2
 870              		.set	.LANCHOR1,. + 0
 871              		.type	y_req, %object
 872              		.size	y_req, 4
 873              	y_req:
 874 0000 D0070000 		.word	2000
 875              		.type	x_req, %object
 876              		.size	x_req, 4
 877              	x_req:
 878 0004 D0070000 		.word	2000
 879              		.type	Vddval, %object
 880              		.size	Vddval, 4
 881              	Vddval:
 882 0008 0000A040 		.word	1084227584
 883              		.section	.rodata.str1.4,"aMS",%progbits,1
 884              		.align	2
 885              	.LC0:
 886 0000 5872713D 		.ascii	"Xrq=%d\000"
 886      256400
 887 0007 00       		.space	1
 888              	.LC1:
 889 0008 5972713D 		.ascii	"Yrq=%d\000"
 889      256400
 890 000f 00       		.space	1
 891              	.LC2:
 892 0010 5870733D 		.ascii	"Xps=%d\000"
 892      256400
 893 0017 00       		.space	1
 894              	.LC3:
 895 0018 5970733D 		.ascii	"Yps=%d\000"
 895      256400
 896              		.bss
 897              		.align	2
 898              		.set	.LANCHOR0,. + 0
 899              		.type	Xrel, %object
 900              		.size	Xrel, 4
 901              	Xrel:
 902 0000 00000000 		.space	4
 903              		.type	Yrel, %object
 904              		.size	Yrel, 4
 905              	Yrel:
 906 0004 00000000 		.space	4
 907              		.type	y_int, %object
 908              		.size	y_int, 4
 909              	y_int:
 910 0008 00000000 		.space	4
 911              		.type	Y_Ek, %object
 912              		.size	Y_Ek, 4
ARM GAS  C:\Users\emman\AppData\Local\Temp\cckEIm0N.s 			page 21


 913              	Y_Ek:
 914 000c 00000000 		.space	4
 915              		.type	Y_prep, %object
 916              		.size	Y_prep, 4
 917              	Y_prep:
 918 0010 00000000 		.space	4
 919              		.type	Y_Ak, %object
 920              		.size	Y_Ak, 4
 921              	Y_Ak:
 922 0014 00000000 		.space	4
 923              		.type	Y_Akmenos1, %object
 924              		.size	Y_Akmenos1, 4
 925              	Y_Akmenos1:
 926 0018 00000000 		.space	4
 927              		.type	Y_Ekmenos1, %object
 928              		.size	Y_Ekmenos1, 4
 929              	Y_Ekmenos1:
 930 001c 00000000 		.space	4
 931              		.type	x_int, %object
 932              		.size	x_int, 4
 933              	x_int:
 934 0020 00000000 		.space	4
 935              		.type	X_Ek, %object
 936              		.size	X_Ek, 4
 937              	X_Ek:
 938 0024 00000000 		.space	4
 939              		.type	X_prep, %object
 940              		.size	X_prep, 4
 941              	X_prep:
 942 0028 00000000 		.space	4
 943              		.type	X_Ak, %object
 944              		.size	X_Ak, 4
 945              	X_Ak:
 946 002c 00000000 		.space	4
 947              		.type	X_Akmenos1, %object
 948              		.size	X_Akmenos1, 4
 949              	X_Akmenos1:
 950 0030 00000000 		.space	4
 951              		.type	X_Ekmenos1, %object
 952              		.size	X_Ekmenos1, 4
 953              	X_Ekmenos1:
 954 0034 00000000 		.space	4
 955              		.type	y_float, %object
 956              		.size	y_float, 4
 957              	y_float:
 958 0038 00000000 		.space	4
 959              		.type	x_float, %object
 960              		.size	x_float, 4
 961              	x_float:
 962 003c 00000000 		.space	4
 963              		.type	Vssval, %object
 964              		.size	Vssval, 4
 965              	Vssval:
 966 0040 00000000 		.space	4
 967              		.text
 968              	.Letext0:
 969              		.file 2 "c:\\program files (x86)\\cypress\\psoc creator\\4.2\\psoc creator\\import\\gnu\\arm\\5.4.
ARM GAS  C:\Users\emman\AppData\Local\Temp\cckEIm0N.s 			page 22


 970              		.file 3 "c:\\program files (x86)\\cypress\\psoc creator\\4.2\\psoc creator\\import\\gnu\\arm\\5.4.
 971              		.file 4 "Generated_Source\\PSoC5/core_cm3.h"
 972              		.file 5 "Generated_Source\\PSoC5/PWM_X.h"
 973              		.file 6 "Generated_Source\\PSoC5/PWM_Y.h"
 974              		.file 7 "Generated_Source\\PSoC5/Touch.h"
 975              		.file 8 "c:\\program files (x86)\\cypress\\psoc creator\\4.2\\psoc creator\\import\\gnu\\arm\\5.4.
 976              		.file 9 "Generated_Source\\PSoC5/LCD.h"
 977              		.file 10 "Generated_Source\\PSoC5/CyLib.h"
 978              		.file 11 "Generated_Source\\PSoC5/PWM_reset.h"
 979              		.file 12 "Generated_Source\\PSoC5/Y_interrupcion.h"
 980              		.file 13 "Generated_Source\\PSoC5/X_interrupcion.h"