ARM GAS  C:\Users\emman\AppData\Local\Temp\ccDIVkqh.s 			page 1


   1              		.syntax unified
   2              		.cpu cortex-m3
   3              		.fpu softvfp
   4              		.eabi_attribute 20, 1
   5              		.eabi_attribute 21, 1
   6              		.eabi_attribute 23, 3
   7              		.eabi_attribute 24, 1
   8              		.eabi_attribute 25, 1
   9              		.eabi_attribute 26, 1
  10              		.eabi_attribute 30, 1
  11              		.eabi_attribute 34, 1
  12              		.eabi_attribute 18, 4
  13              		.thumb
  14              		.syntax unified
  15              		.file	"Touch.c"
  16              		.text
  17              	.Ltext0:
  18              		.cfi_sections	.debug_frame
  19              		.section	.text.Touch_Init,"ax",%progbits
  20              		.align	2
  21              		.global	Touch_Init
  22              		.thumb
  23              		.thumb_func
  24              		.type	Touch_Init, %function
  25              	Touch_Init:
  26              	.LFB0:
  27              		.file 1 "Generated_Source\\PSoC5\\Touch.c"
   1:Generated_Source\PSoC5/Touch.c **** /*******************************************************************************
   2:Generated_Source\PSoC5/Touch.c **** * File Name: Touch.c
   3:Generated_Source\PSoC5/Touch.c **** * Version 2.0
   4:Generated_Source\PSoC5/Touch.c **** *
   5:Generated_Source\PSoC5/Touch.c **** * Description:
   6:Generated_Source\PSoC5/Touch.c **** *  This file provides the API source code for the Resistive Touch component.
   7:Generated_Source\PSoC5/Touch.c **** *
   8:Generated_Source\PSoC5/Touch.c **** * Note:
   9:Generated_Source\PSoC5/Touch.c **** *
  10:Generated_Source\PSoC5/Touch.c **** ********************************************************************************
  11:Generated_Source\PSoC5/Touch.c **** * Copyright 2012-2015, Cypress Semiconductor Corporation.  All rights reserved.
  12:Generated_Source\PSoC5/Touch.c **** * You may use this file only in accordance with the license, terms, conditions,
  13:Generated_Source\PSoC5/Touch.c **** * disclaimers, and limitations in the end user license agreement accompanying
  14:Generated_Source\PSoC5/Touch.c **** * the software package with which this file was provided.
  15:Generated_Source\PSoC5/Touch.c **** *******************************************************************************/
  16:Generated_Source\PSoC5/Touch.c **** 
  17:Generated_Source\PSoC5/Touch.c **** #include "CyLib.h"
  18:Generated_Source\PSoC5/Touch.c **** #include "Touch.h"
  19:Generated_Source\PSoC5/Touch.c **** #include "Touch_xm.h"
  20:Generated_Source\PSoC5/Touch.c **** #include "Touch_xp.h"
  21:Generated_Source\PSoC5/Touch.c **** #include "Touch_ym.h"
  22:Generated_Source\PSoC5/Touch.c **** #include "Touch_yp.h"
  23:Generated_Source\PSoC5/Touch.c **** 
  24:Generated_Source\PSoC5/Touch.c **** uint8 Touch_initVar = 0u;
  25:Generated_Source\PSoC5/Touch.c **** static uint8 Touch_measurementFlag = 0u;
  26:Generated_Source\PSoC5/Touch.c **** 
  27:Generated_Source\PSoC5/Touch.c **** 
  28:Generated_Source\PSoC5/Touch.c **** /*******************************************************************************
  29:Generated_Source\PSoC5/Touch.c **** * Function Name: Touch_Init
  30:Generated_Source\PSoC5/Touch.c **** ********************************************************************************
ARM GAS  C:\Users\emman\AppData\Local\Temp\ccDIVkqh.s 			page 2


  31:Generated_Source\PSoC5/Touch.c **** *
  32:Generated_Source\PSoC5/Touch.c **** * Summary:
  33:Generated_Source\PSoC5/Touch.c **** *  Calls the Init() function of the ADC and AMux components.
  34:Generated_Source\PSoC5/Touch.c **** *
  35:Generated_Source\PSoC5/Touch.c **** * Parameters:
  36:Generated_Source\PSoC5/Touch.c **** *  None
  37:Generated_Source\PSoC5/Touch.c **** *
  38:Generated_Source\PSoC5/Touch.c **** * Return:
  39:Generated_Source\PSoC5/Touch.c **** *  None
  40:Generated_Source\PSoC5/Touch.c **** *
  41:Generated_Source\PSoC5/Touch.c **** *******************************************************************************/
  42:Generated_Source\PSoC5/Touch.c **** void Touch_Init(void) 
  43:Generated_Source\PSoC5/Touch.c **** {
  28              		.loc 1 43 0
  29              		.cfi_startproc
  30              		@ args = 0, pretend = 0, frame = 0
  31              		@ frame_needed = 0, uses_anonymous_args = 0
  32 0000 08B5     		push	{r3, lr}
  33              		.cfi_def_cfa_offset 8
  34              		.cfi_offset 3, -8
  35              		.cfi_offset 14, -4
  44:Generated_Source\PSoC5/Touch.c ****     Touch_AMux_Init();
  36              		.loc 1 44 0
  37 0002 FFF7FEFF 		bl	Touch_AMux_Init
  38              	.LVL0:
  45:Generated_Source\PSoC5/Touch.c ****     Touch_ADC_Init();
  39              		.loc 1 45 0
  40 0006 FFF7FEFF 		bl	Touch_ADC_Init
  41              	.LVL1:
  42 000a 08BD     		pop	{r3, pc}
  43              		.cfi_endproc
  44              	.LFE0:
  45              		.size	Touch_Init, .-Touch_Init
  46              		.section	.text.Touch_Stop,"ax",%progbits
  47              		.align	2
  48              		.global	Touch_Stop
  49              		.thumb
  50              		.thumb_func
  51              		.type	Touch_Stop, %function
  52              	Touch_Stop:
  53              	.LFB2:
  46:Generated_Source\PSoC5/Touch.c **** }
  47:Generated_Source\PSoC5/Touch.c **** 
  48:Generated_Source\PSoC5/Touch.c **** 
  49:Generated_Source\PSoC5/Touch.c **** /*******************************************************************************
  50:Generated_Source\PSoC5/Touch.c **** * Function Name: Touch_Start
  51:Generated_Source\PSoC5/Touch.c **** ********************************************************************************
  52:Generated_Source\PSoC5/Touch.c **** *
  53:Generated_Source\PSoC5/Touch.c **** * Summary:
  54:Generated_Source\PSoC5/Touch.c **** *  Calls Init() if the component has not been initialized before. Calls Enable()
  55:Generated_Source\PSoC5/Touch.c **** *  to begin the component operation.
  56:Generated_Source\PSoC5/Touch.c **** *
  57:Generated_Source\PSoC5/Touch.c **** * Parameters:
  58:Generated_Source\PSoC5/Touch.c **** *  None
  59:Generated_Source\PSoC5/Touch.c **** *
  60:Generated_Source\PSoC5/Touch.c **** * Return:
  61:Generated_Source\PSoC5/Touch.c **** *  None
ARM GAS  C:\Users\emman\AppData\Local\Temp\ccDIVkqh.s 			page 3


  62:Generated_Source\PSoC5/Touch.c **** * 
  63:Generated_Source\PSoC5/Touch.c **** * Global variables:
  64:Generated_Source\PSoC5/Touch.c **** *  Touch_initVar - Indicates whether the component has been
  65:Generated_Source\PSoC5/Touch.c **** *                             initialized.
  66:Generated_Source\PSoC5/Touch.c **** *
  67:Generated_Source\PSoC5/Touch.c **** *******************************************************************************/
  68:Generated_Source\PSoC5/Touch.c **** void Touch_Start(void)  
  69:Generated_Source\PSoC5/Touch.c **** {
  70:Generated_Source\PSoC5/Touch.c ****     if(Touch_initVar == 0u)
  71:Generated_Source\PSoC5/Touch.c ****     {    
  72:Generated_Source\PSoC5/Touch.c ****         Touch_Init();
  73:Generated_Source\PSoC5/Touch.c ****         Touch_initVar = 1u;
  74:Generated_Source\PSoC5/Touch.c ****     }
  75:Generated_Source\PSoC5/Touch.c ****     Touch_Enable();
  76:Generated_Source\PSoC5/Touch.c **** }
  77:Generated_Source\PSoC5/Touch.c **** 
  78:Generated_Source\PSoC5/Touch.c **** 
  79:Generated_Source\PSoC5/Touch.c **** /*******************************************************************************
  80:Generated_Source\PSoC5/Touch.c **** * Function Name: Touch_Stop
  81:Generated_Source\PSoC5/Touch.c **** ********************************************************************************
  82:Generated_Source\PSoC5/Touch.c **** *
  83:Generated_Source\PSoC5/Touch.c **** * Summary:
  84:Generated_Source\PSoC5/Touch.c **** *  Stops the ADC and AMux components.
  85:Generated_Source\PSoC5/Touch.c **** *
  86:Generated_Source\PSoC5/Touch.c **** * Parameters:
  87:Generated_Source\PSoC5/Touch.c **** *  None
  88:Generated_Source\PSoC5/Touch.c **** *
  89:Generated_Source\PSoC5/Touch.c **** * Return:
  90:Generated_Source\PSoC5/Touch.c **** *  None
  91:Generated_Source\PSoC5/Touch.c **** *
  92:Generated_Source\PSoC5/Touch.c **** *******************************************************************************/
  93:Generated_Source\PSoC5/Touch.c **** void Touch_Stop(void)  
  94:Generated_Source\PSoC5/Touch.c **** {
  54              		.loc 1 94 0
  55              		.cfi_startproc
  56              		@ args = 0, pretend = 0, frame = 0
  57              		@ frame_needed = 0, uses_anonymous_args = 0
  58 0000 08B5     		push	{r3, lr}
  59              		.cfi_def_cfa_offset 8
  60              		.cfi_offset 3, -8
  61              		.cfi_offset 14, -4
  95:Generated_Source\PSoC5/Touch.c ****     Touch_ADC_Stop();
  62              		.loc 1 95 0
  63 0002 FFF7FEFF 		bl	Touch_ADC_Stop
  64              	.LVL2:
  96:Generated_Source\PSoC5/Touch.c ****     Touch_AMux_Stop();
  65              		.loc 1 96 0
  66 0006 FFF7FEFF 		bl	Touch_AMux_Stop
  67              	.LVL3:
  68 000a 08BD     		pop	{r3, pc}
  69              		.cfi_endproc
  70              	.LFE2:
  71              		.size	Touch_Stop, .-Touch_Stop
  72              		.section	.text.Touch_Enable,"ax",%progbits
  73              		.align	2
  74              		.global	Touch_Enable
  75              		.thumb
ARM GAS  C:\Users\emman\AppData\Local\Temp\ccDIVkqh.s 			page 4


  76              		.thumb_func
  77              		.type	Touch_Enable, %function
  78              	Touch_Enable:
  79              	.LFB3:
  97:Generated_Source\PSoC5/Touch.c **** }
  98:Generated_Source\PSoC5/Touch.c **** 
  99:Generated_Source\PSoC5/Touch.c **** 
 100:Generated_Source\PSoC5/Touch.c **** /*******************************************************************************
 101:Generated_Source\PSoC5/Touch.c **** * Function Name: Touch_Enable
 102:Generated_Source\PSoC5/Touch.c **** ********************************************************************************
 103:Generated_Source\PSoC5/Touch.c **** *
 104:Generated_Source\PSoC5/Touch.c **** * Summary:
 105:Generated_Source\PSoC5/Touch.c **** *  Enables the ADC component.
 106:Generated_Source\PSoC5/Touch.c **** *
 107:Generated_Source\PSoC5/Touch.c **** * Parameters:
 108:Generated_Source\PSoC5/Touch.c **** *  None
 109:Generated_Source\PSoC5/Touch.c **** *
 110:Generated_Source\PSoC5/Touch.c **** * Return:
 111:Generated_Source\PSoC5/Touch.c **** *  None
 112:Generated_Source\PSoC5/Touch.c **** *
 113:Generated_Source\PSoC5/Touch.c **** *******************************************************************************/
 114:Generated_Source\PSoC5/Touch.c **** void Touch_Enable(void)  
 115:Generated_Source\PSoC5/Touch.c **** {
  80              		.loc 1 115 0
  81              		.cfi_startproc
  82              		@ args = 0, pretend = 0, frame = 0
  83              		@ frame_needed = 0, uses_anonymous_args = 0
  84 0000 08B5     		push	{r3, lr}
  85              		.cfi_def_cfa_offset 8
  86              		.cfi_offset 3, -8
  87              		.cfi_offset 14, -4
 116:Generated_Source\PSoC5/Touch.c ****     Touch_ADC_Enable();
  88              		.loc 1 116 0
  89 0002 FFF7FEFF 		bl	Touch_ADC_Enable
  90              	.LVL4:
  91 0006 08BD     		pop	{r3, pc}
  92              		.cfi_endproc
  93              	.LFE3:
  94              		.size	Touch_Enable, .-Touch_Enable
  95              		.section	.text.Touch_Start,"ax",%progbits
  96              		.align	2
  97              		.global	Touch_Start
  98              		.thumb
  99              		.thumb_func
 100              		.type	Touch_Start, %function
 101              	Touch_Start:
 102              	.LFB1:
  69:Generated_Source\PSoC5/Touch.c ****     if(Touch_initVar == 0u)
 103              		.loc 1 69 0
 104              		.cfi_startproc
 105              		@ args = 0, pretend = 0, frame = 0
 106              		@ frame_needed = 0, uses_anonymous_args = 0
 107 0000 08B5     		push	{r3, lr}
 108              		.cfi_def_cfa_offset 8
 109              		.cfi_offset 3, -8
 110              		.cfi_offset 14, -4
  70:Generated_Source\PSoC5/Touch.c ****     {    
ARM GAS  C:\Users\emman\AppData\Local\Temp\ccDIVkqh.s 			page 5


 111              		.loc 1 70 0
 112 0002 054B     		ldr	r3, .L10
 113 0004 1B78     		ldrb	r3, [r3]	@ zero_extendqisi2
 114 0006 23B9     		cbnz	r3, .L8
  72:Generated_Source\PSoC5/Touch.c ****         Touch_initVar = 1u;
 115              		.loc 1 72 0
 116 0008 FFF7FEFF 		bl	Touch_Init
 117              	.LVL5:
  73:Generated_Source\PSoC5/Touch.c ****     }
 118              		.loc 1 73 0
 119 000c 0122     		movs	r2, #1
 120 000e 024B     		ldr	r3, .L10
 121 0010 1A70     		strb	r2, [r3]
 122              	.L8:
  75:Generated_Source\PSoC5/Touch.c **** }
 123              		.loc 1 75 0
 124 0012 FFF7FEFF 		bl	Touch_Enable
 125              	.LVL6:
 126 0016 08BD     		pop	{r3, pc}
 127              	.L11:
 128              		.align	2
 129              	.L10:
 130 0018 00000000 		.word	.LANCHOR0
 131              		.cfi_endproc
 132              	.LFE1:
 133              		.size	Touch_Start, .-Touch_Start
 134              		.section	.text.Touch_ActivateX,"ax",%progbits
 135              		.align	2
 136              		.global	Touch_ActivateX
 137              		.thumb
 138              		.thumb_func
 139              		.type	Touch_ActivateX, %function
 140              	Touch_ActivateX:
 141              	.LFB4:
 117:Generated_Source\PSoC5/Touch.c **** }
 118:Generated_Source\PSoC5/Touch.c **** 
 119:Generated_Source\PSoC5/Touch.c **** 
 120:Generated_Source\PSoC5/Touch.c **** /*******************************************************************************
 121:Generated_Source\PSoC5/Touch.c **** * Function Name: Touch_ActivateX
 122:Generated_Source\PSoC5/Touch.c **** ********************************************************************************
 123:Generated_Source\PSoC5/Touch.c **** *
 124:Generated_Source\PSoC5/Touch.c **** * Summary: 
 125:Generated_Source\PSoC5/Touch.c **** *  Configures the pins to measure the Y-axis.
 126:Generated_Source\PSoC5/Touch.c **** *
 127:Generated_Source\PSoC5/Touch.c **** * Parameters:
 128:Generated_Source\PSoC5/Touch.c **** *  None
 129:Generated_Source\PSoC5/Touch.c **** *
 130:Generated_Source\PSoC5/Touch.c **** * Return:
 131:Generated_Source\PSoC5/Touch.c **** *  None
 132:Generated_Source\PSoC5/Touch.c **** *
 133:Generated_Source\PSoC5/Touch.c **** *******************************************************************************/
 134:Generated_Source\PSoC5/Touch.c **** void Touch_ActivateX(void) 
 135:Generated_Source\PSoC5/Touch.c **** {
 142              		.loc 1 135 0
 143              		.cfi_startproc
 144              		@ args = 0, pretend = 0, frame = 0
 145              		@ frame_needed = 0, uses_anonymous_args = 0
ARM GAS  C:\Users\emman\AppData\Local\Temp\ccDIVkqh.s 			page 6


 146 0000 08B5     		push	{r3, lr}
 147              		.cfi_def_cfa_offset 8
 148              		.cfi_offset 3, -8
 149              		.cfi_offset 14, -4
 136:Generated_Source\PSoC5/Touch.c ****     /* Pins configuration to measure Y. */
 137:Generated_Source\PSoC5/Touch.c ****     CyPins_SetPinDriveMode(Touch_ym_0, PIN_DM_STRONG);
 150              		.loc 1 137 0
 151 0002 0F4A     		ldr	r2, .L15
 152 0004 1378     		ldrb	r3, [r2]	@ zero_extendqisi2
 153 0006 03F0F103 		and	r3, r3, #241
 154 000a 43F00C03 		orr	r3, r3, #12
 155 000e 1370     		strb	r3, [r2]
 138:Generated_Source\PSoC5/Touch.c ****     CyPins_SetPinDriveMode(Touch_yp_0, PIN_DM_STRONG);
 156              		.loc 1 138 0
 157 0010 0232     		adds	r2, r2, #2
 158 0012 1378     		ldrb	r3, [r2]	@ zero_extendqisi2
 159 0014 03F0F103 		and	r3, r3, #241
 160 0018 43F00C03 		orr	r3, r3, #12
 161 001c 1370     		strb	r3, [r2]
 139:Generated_Source\PSoC5/Touch.c ****     CyPins_SetPinDriveMode(Touch_xp_0, PIN_DM_ALG_HIZ);
 162              		.loc 1 139 0
 163 001e 033A     		subs	r2, r2, #3
 164 0020 1378     		ldrb	r3, [r2]	@ zero_extendqisi2
 165 0022 03F0F103 		and	r3, r3, #241
 166 0026 1370     		strb	r3, [r2]
 140:Generated_Source\PSoC5/Touch.c ****     CyPins_SetPinDriveMode(Touch_xm_0, PIN_DM_ALG_HIZ);
 167              		.loc 1 140 0
 168 0028 0232     		adds	r2, r2, #2
 169 002a 1378     		ldrb	r3, [r2]	@ zero_extendqisi2
 170 002c 03F0F103 		and	r3, r3, #241
 171 0030 1370     		strb	r3, [r2]
 141:Generated_Source\PSoC5/Touch.c ****     
 142:Generated_Source\PSoC5/Touch.c ****     /* Switch AMux if channel 0 is not selected. */
 143:Generated_Source\PSoC5/Touch.c ****     if(Touch_AMux_GetChannel() != Touch_AMUX_XP_CHAN)
 172              		.loc 1 143 0
 173 0032 FFF7FEFF 		bl	Touch_AMux_GetChannel
 174              	.LVL7:
 175 0036 08B1     		cbz	r0, .L12
 144:Generated_Source\PSoC5/Touch.c ****     {
 145:Generated_Source\PSoC5/Touch.c ****         Touch_AMux_Next();
 176              		.loc 1 145 0
 177 0038 FFF7FEFF 		bl	Touch_AMux_Next
 178              	.LVL8:
 179              	.L12:
 180 003c 08BD     		pop	{r3, pc}
 181              	.L16:
 182 003e 00BF     		.align	2
 183              	.L15:
 184 0040 21500040 		.word	1073762337
 185              		.cfi_endproc
 186              	.LFE4:
 187              		.size	Touch_ActivateX, .-Touch_ActivateX
 188              		.section	.text.Touch_ActivateY,"ax",%progbits
 189              		.align	2
 190              		.global	Touch_ActivateY
 191              		.thumb
 192              		.thumb_func
ARM GAS  C:\Users\emman\AppData\Local\Temp\ccDIVkqh.s 			page 7


 193              		.type	Touch_ActivateY, %function
 194              	Touch_ActivateY:
 195              	.LFB5:
 146:Generated_Source\PSoC5/Touch.c ****     }
 147:Generated_Source\PSoC5/Touch.c **** }
 148:Generated_Source\PSoC5/Touch.c **** 
 149:Generated_Source\PSoC5/Touch.c **** 
 150:Generated_Source\PSoC5/Touch.c **** /*******************************************************************************
 151:Generated_Source\PSoC5/Touch.c **** * Function Name: Touch_ActivateY
 152:Generated_Source\PSoC5/Touch.c **** ********************************************************************************
 153:Generated_Source\PSoC5/Touch.c **** *
 154:Generated_Source\PSoC5/Touch.c **** * Summary: 
 155:Generated_Source\PSoC5/Touch.c **** *  Configures the pins to measure X-axis.
 156:Generated_Source\PSoC5/Touch.c **** *
 157:Generated_Source\PSoC5/Touch.c **** * Parameters:
 158:Generated_Source\PSoC5/Touch.c **** *  None
 159:Generated_Source\PSoC5/Touch.c **** *
 160:Generated_Source\PSoC5/Touch.c **** * Return:
 161:Generated_Source\PSoC5/Touch.c **** *  None
 162:Generated_Source\PSoC5/Touch.c **** *
 163:Generated_Source\PSoC5/Touch.c **** *******************************************************************************/
 164:Generated_Source\PSoC5/Touch.c **** void Touch_ActivateY(void) 
 165:Generated_Source\PSoC5/Touch.c **** {
 196              		.loc 1 165 0
 197              		.cfi_startproc
 198              		@ args = 0, pretend = 0, frame = 0
 199              		@ frame_needed = 0, uses_anonymous_args = 0
 200 0000 08B5     		push	{r3, lr}
 201              		.cfi_def_cfa_offset 8
 202              		.cfi_offset 3, -8
 203              		.cfi_offset 14, -4
 166:Generated_Source\PSoC5/Touch.c ****     /* Pins configuration to measure X. */
 167:Generated_Source\PSoC5/Touch.c ****     CyPins_SetPinDriveMode(Touch_xm_0, PIN_DM_STRONG);
 204              		.loc 1 167 0
 205 0002 144A     		ldr	r2, .L21
 206 0004 1378     		ldrb	r3, [r2]	@ zero_extendqisi2
 207 0006 03F0F103 		and	r3, r3, #241
 208 000a 43F00C03 		orr	r3, r3, #12
 209 000e 1370     		strb	r3, [r2]
 168:Generated_Source\PSoC5/Touch.c ****     CyPins_SetPinDriveMode(Touch_xp_0, PIN_DM_STRONG);
 210              		.loc 1 168 0
 211 0010 023A     		subs	r2, r2, #2
 212 0012 1378     		ldrb	r3, [r2]	@ zero_extendqisi2
 213 0014 03F0F103 		and	r3, r3, #241
 214 0018 43F00C03 		orr	r3, r3, #12
 215 001c 1370     		strb	r3, [r2]
 169:Generated_Source\PSoC5/Touch.c ****     CyPins_SetPinDriveMode(Touch_yp_0, PIN_DM_ALG_HIZ);
 216              		.loc 1 169 0
 217 001e 0332     		adds	r2, r2, #3
 218 0020 1378     		ldrb	r3, [r2]	@ zero_extendqisi2
 219 0022 03F0F103 		and	r3, r3, #241
 220 0026 1370     		strb	r3, [r2]
 170:Generated_Source\PSoC5/Touch.c ****     CyPins_SetPinDriveMode(Touch_ym_0, PIN_DM_ALG_HIZ);
 221              		.loc 1 170 0
 222 0028 023A     		subs	r2, r2, #2
 223 002a 1378     		ldrb	r3, [r2]	@ zero_extendqisi2
 224 002c 03F0F103 		and	r3, r3, #241
ARM GAS  C:\Users\emman\AppData\Local\Temp\ccDIVkqh.s 			page 8


 225 0030 1370     		strb	r3, [r2]
 171:Generated_Source\PSoC5/Touch.c ****     
 172:Generated_Source\PSoC5/Touch.c ****     /* Switch AMux if channel 1 is not selected. */
 173:Generated_Source\PSoC5/Touch.c ****     if(Touch_AMux_GetChannel() == Touch_AMUX_XP_CHAN)
 226              		.loc 1 173 0
 227 0032 FFF7FEFF 		bl	Touch_AMux_GetChannel
 228              	.LVL9:
 229 0036 10B9     		cbnz	r0, .L18
 174:Generated_Source\PSoC5/Touch.c ****     {
 175:Generated_Source\PSoC5/Touch.c ****         Touch_AMux_Next();
 230              		.loc 1 175 0
 231 0038 FFF7FEFF 		bl	Touch_AMux_Next
 232              	.LVL10:
 233 003c 08BD     		pop	{r3, pc}
 234              	.L18:
 176:Generated_Source\PSoC5/Touch.c ****     }
 177:Generated_Source\PSoC5/Touch.c ****     /* Switch AMux to channel 1 if AMux is disconnected. */
 178:Generated_Source\PSoC5/Touch.c ****     else if(Touch_AMux_GetChannel() == Touch_AMUX_NO_CHAN)
 235              		.loc 1 178 0
 236 003e FFF7FEFF 		bl	Touch_AMux_GetChannel
 237              	.LVL11:
 238 0042 B0F1FF3F 		cmp	r0, #-1
 239 0046 03D1     		bne	.L17
 179:Generated_Source\PSoC5/Touch.c ****     {
 180:Generated_Source\PSoC5/Touch.c ****         Touch_AMux_Next();
 240              		.loc 1 180 0
 241 0048 FFF7FEFF 		bl	Touch_AMux_Next
 242              	.LVL12:
 181:Generated_Source\PSoC5/Touch.c ****         Touch_AMux_Next();
 243              		.loc 1 181 0
 244 004c FFF7FEFF 		bl	Touch_AMux_Next
 245              	.LVL13:
 246              	.L17:
 247 0050 08BD     		pop	{r3, pc}
 248              	.L22:
 249 0052 00BF     		.align	2
 250              	.L21:
 251 0054 22500040 		.word	1073762338
 252              		.cfi_endproc
 253              	.LFE5:
 254              		.size	Touch_ActivateY, .-Touch_ActivateY
 255              		.section	.text.Touch_Measure,"ax",%progbits
 256              		.align	2
 257              		.global	Touch_Measure
 258              		.thumb
 259              		.thumb_func
 260              		.type	Touch_Measure, %function
 261              	Touch_Measure:
 262              	.LFB7:
 182:Generated_Source\PSoC5/Touch.c ****     }
 183:Generated_Source\PSoC5/Touch.c ****     else
 184:Generated_Source\PSoC5/Touch.c ****     {
 185:Generated_Source\PSoC5/Touch.c ****         /* Channel 1 is already selected. */
 186:Generated_Source\PSoC5/Touch.c ****     }
 187:Generated_Source\PSoC5/Touch.c **** }
 188:Generated_Source\PSoC5/Touch.c **** 
 189:Generated_Source\PSoC5/Touch.c **** 
ARM GAS  C:\Users\emman\AppData\Local\Temp\ccDIVkqh.s 			page 9


 190:Generated_Source\PSoC5/Touch.c **** /*******************************************************************************
 191:Generated_Source\PSoC5/Touch.c **** * Function Name: Touch_TouchDetect
 192:Generated_Source\PSoC5/Touch.c **** ********************************************************************************
 193:Generated_Source\PSoC5/Touch.c **** *
 194:Generated_Source\PSoC5/Touch.c **** * Summary:
 195:Generated_Source\PSoC5/Touch.c **** *  Determines if the screen is touched.
 196:Generated_Source\PSoC5/Touch.c **** *
 197:Generated_Source\PSoC5/Touch.c **** * Parameters:
 198:Generated_Source\PSoC5/Touch.c **** *  None
 199:Generated_Source\PSoC5/Touch.c **** *
 200:Generated_Source\PSoC5/Touch.c **** * Return:
 201:Generated_Source\PSoC5/Touch.c **** *  uint8: The touch state.
 202:Generated_Source\PSoC5/Touch.c **** *  0 - untouched
 203:Generated_Source\PSoC5/Touch.c **** *  1 - touched
 204:Generated_Source\PSoC5/Touch.c **** *
 205:Generated_Source\PSoC5/Touch.c **** *******************************************************************************/
 206:Generated_Source\PSoC5/Touch.c **** uint8 Touch_TouchDetect(void) 
 207:Generated_Source\PSoC5/Touch.c **** {
 208:Generated_Source\PSoC5/Touch.c ****     /* Configure x+ pin to detect touch. */
 209:Generated_Source\PSoC5/Touch.c ****     CyPins_SetPinDriveMode(Touch_xp_0, PIN_DM_STRONG);
 210:Generated_Source\PSoC5/Touch.c **** 
 211:Generated_Source\PSoC5/Touch.c ****     /* Add delay for signal to stabilize. */
 212:Generated_Source\PSoC5/Touch.c ****     CyDelayUs(5u);
 213:Generated_Source\PSoC5/Touch.c **** 
 214:Generated_Source\PSoC5/Touch.c ****     CyPins_SetPinDriveMode(Touch_xp_0, PIN_DM_RES_UP);
 215:Generated_Source\PSoC5/Touch.c ****     
 216:Generated_Source\PSoC5/Touch.c ****     /* Switch AMux if channel 0 is not selected. */
 217:Generated_Source\PSoC5/Touch.c ****     if(Touch_AMux_GetChannel() != Touch_AMUX_XP_CHAN)
 218:Generated_Source\PSoC5/Touch.c ****     {
 219:Generated_Source\PSoC5/Touch.c ****         Touch_AMux_Next();
 220:Generated_Source\PSoC5/Touch.c ****     }
 221:Generated_Source\PSoC5/Touch.c **** 
 222:Generated_Source\PSoC5/Touch.c ****     /* Configure x-, y+ and y- to detect touch. */
 223:Generated_Source\PSoC5/Touch.c ****     CyPins_SetPinDriveMode(Touch_xm_0, PIN_DM_ALG_HIZ);
 224:Generated_Source\PSoC5/Touch.c ****     CyPins_SetPinDriveMode(Touch_yp_0, PIN_DM_ALG_HIZ);
 225:Generated_Source\PSoC5/Touch.c ****     CyPins_SetPinDriveMode(Touch_ym_0, PIN_DM_STRONG);
 226:Generated_Source\PSoC5/Touch.c **** 
 227:Generated_Source\PSoC5/Touch.c ****     /* Add delay for signal to stabilize. The delay is dependant on whether
 228:Generated_Source\PSoC5/Touch.c ****     * the measurement has been done before touch detect or not.
 229:Generated_Source\PSoC5/Touch.c ****     */
 230:Generated_Source\PSoC5/Touch.c ****     if (Touch_measurementFlag == 0u)
 231:Generated_Source\PSoC5/Touch.c ****     {
 232:Generated_Source\PSoC5/Touch.c ****         CyDelayUs(20u);
 233:Generated_Source\PSoC5/Touch.c ****     }
 234:Generated_Source\PSoC5/Touch.c ****     else
 235:Generated_Source\PSoC5/Touch.c ****     {
 236:Generated_Source\PSoC5/Touch.c ****         Touch_measurementFlag = 0u;
 237:Generated_Source\PSoC5/Touch.c ****         CyDelayUs(8u);        
 238:Generated_Source\PSoC5/Touch.c ****     }
 239:Generated_Source\PSoC5/Touch.c ****     /* The screen is touched if the measured value is lower than the specified
 240:Generated_Source\PSoC5/Touch.c ****     * threshold.
 241:Generated_Source\PSoC5/Touch.c ****     */
 242:Generated_Source\PSoC5/Touch.c ****     return ((Touch_Measure() < Touch_TOUCH_THRESHOLD) ? 1u : 0u);
 243:Generated_Source\PSoC5/Touch.c **** }
 244:Generated_Source\PSoC5/Touch.c **** 
 245:Generated_Source\PSoC5/Touch.c **** 
 246:Generated_Source\PSoC5/Touch.c **** /*******************************************************************************
ARM GAS  C:\Users\emman\AppData\Local\Temp\ccDIVkqh.s 			page 10


 247:Generated_Source\PSoC5/Touch.c **** * Function Name: Touch_Measure
 248:Generated_Source\PSoC5/Touch.c **** ********************************************************************************
 249:Generated_Source\PSoC5/Touch.c **** *
 250:Generated_Source\PSoC5/Touch.c **** * Summary:
 251:Generated_Source\PSoC5/Touch.c **** *  Returns the result of the ADC conversion. Does not return until ADC
 252:Generated_Source\PSoC5/Touch.c **** *  conversion is complete.
 253:Generated_Source\PSoC5/Touch.c **** *
 254:Generated_Source\PSoC5/Touch.c **** * Parameters:
 255:Generated_Source\PSoC5/Touch.c **** *  None
 256:Generated_Source\PSoC5/Touch.c **** *
 257:Generated_Source\PSoC5/Touch.c **** * Return:
 258:Generated_Source\PSoC5/Touch.c **** *  int16: the result of the ADC conversion.
 259:Generated_Source\PSoC5/Touch.c **** *
 260:Generated_Source\PSoC5/Touch.c **** *******************************************************************************/
 261:Generated_Source\PSoC5/Touch.c **** int16 Touch_Measure(void) 
 262:Generated_Source\PSoC5/Touch.c **** {       
 263              		.loc 1 262 0
 264              		.cfi_startproc
 265              		@ args = 0, pretend = 0, frame = 0
 266              		@ frame_needed = 0, uses_anonymous_args = 0
 267 0000 08B5     		push	{r3, lr}
 268              		.cfi_def_cfa_offset 8
 269              		.cfi_offset 3, -8
 270              		.cfi_offset 14, -4
 263:Generated_Source\PSoC5/Touch.c ****     int16 result;
 264:Generated_Source\PSoC5/Touch.c **** 
 265:Generated_Source\PSoC5/Touch.c ****     /* Trigger the ADC conversion and wait for results (blocking). */
 266:Generated_Source\PSoC5/Touch.c ****     Touch_ADC_StartConvert();
 271              		.loc 1 266 0
 272 0002 FFF7FEFF 		bl	Touch_ADC_StartConvert
 273              	.LVL14:
 267:Generated_Source\PSoC5/Touch.c ****     (void)Touch_ADC_IsEndConversion(Touch_ADC_WAIT_FOR_RESULT);
 274              		.loc 1 267 0
 275 0006 0020     		movs	r0, #0
 276 0008 FFF7FEFF 		bl	Touch_ADC_IsEndConversion
 277              	.LVL15:
 268:Generated_Source\PSoC5/Touch.c ****     result = Touch_ADC_GetResult16();
 278              		.loc 1 268 0
 279 000c FFF7FEFF 		bl	Touch_ADC_GetResult16
 280              	.LVL16:
 269:Generated_Source\PSoC5/Touch.c **** 
 270:Generated_Source\PSoC5/Touch.c ****     /* Assert a flag indicating that the measurement has been done. */
 271:Generated_Source\PSoC5/Touch.c ****     Touch_measurementFlag = 1u;
 281              		.loc 1 271 0
 282 0010 0122     		movs	r2, #1
 283 0012 014B     		ldr	r3, .L25
 284 0014 5A70     		strb	r2, [r3, #1]
 272:Generated_Source\PSoC5/Touch.c ****     return (result);
 273:Generated_Source\PSoC5/Touch.c **** }
 285              		.loc 1 273 0
 286 0016 08BD     		pop	{r3, pc}
 287              	.L26:
 288              		.align	2
 289              	.L25:
 290 0018 00000000 		.word	.LANCHOR0
 291              		.cfi_endproc
 292              	.LFE7:
ARM GAS  C:\Users\emman\AppData\Local\Temp\ccDIVkqh.s 			page 11


 293              		.size	Touch_Measure, .-Touch_Measure
 294              		.section	.text.Touch_TouchDetect,"ax",%progbits
 295              		.align	2
 296              		.global	Touch_TouchDetect
 297              		.thumb
 298              		.thumb_func
 299              		.type	Touch_TouchDetect, %function
 300              	Touch_TouchDetect:
 301              	.LFB6:
 207:Generated_Source\PSoC5/Touch.c ****     /* Configure x+ pin to detect touch. */
 302              		.loc 1 207 0
 303              		.cfi_startproc
 304              		@ args = 0, pretend = 0, frame = 0
 305              		@ frame_needed = 0, uses_anonymous_args = 0
 306 0000 10B5     		push	{r4, lr}
 307              		.cfi_def_cfa_offset 8
 308              		.cfi_offset 4, -8
 309              		.cfi_offset 14, -4
 209:Generated_Source\PSoC5/Touch.c **** 
 310              		.loc 1 209 0
 311 0002 1E4C     		ldr	r4, .L34
 312 0004 2378     		ldrb	r3, [r4]	@ zero_extendqisi2
 313 0006 03F0F103 		and	r3, r3, #241
 314 000a 43F00C03 		orr	r3, r3, #12
 315 000e 2370     		strb	r3, [r4]
 212:Generated_Source\PSoC5/Touch.c **** 
 316              		.loc 1 212 0
 317 0010 0520     		movs	r0, #5
 318 0012 FFF7FEFF 		bl	CyDelayUs
 319              	.LVL17:
 214:Generated_Source\PSoC5/Touch.c ****     
 320              		.loc 1 214 0
 321 0016 2378     		ldrb	r3, [r4]	@ zero_extendqisi2
 322 0018 03F0F103 		and	r3, r3, #241
 323 001c 43F00403 		orr	r3, r3, #4
 324 0020 2370     		strb	r3, [r4]
 217:Generated_Source\PSoC5/Touch.c ****     {
 325              		.loc 1 217 0
 326 0022 FFF7FEFF 		bl	Touch_AMux_GetChannel
 327              	.LVL18:
 328 0026 08B1     		cbz	r0, .L28
 219:Generated_Source\PSoC5/Touch.c ****     }
 329              		.loc 1 219 0
 330 0028 FFF7FEFF 		bl	Touch_AMux_Next
 331              	.LVL19:
 332              	.L28:
 223:Generated_Source\PSoC5/Touch.c ****     CyPins_SetPinDriveMode(Touch_yp_0, PIN_DM_ALG_HIZ);
 333              		.loc 1 223 0
 334 002c 144A     		ldr	r2, .L34+4
 335 002e 1378     		ldrb	r3, [r2]	@ zero_extendqisi2
 336 0030 03F0F103 		and	r3, r3, #241
 337 0034 1370     		strb	r3, [r2]
 224:Generated_Source\PSoC5/Touch.c ****     CyPins_SetPinDriveMode(Touch_ym_0, PIN_DM_STRONG);
 338              		.loc 1 224 0
 339 0036 0132     		adds	r2, r2, #1
 340 0038 1378     		ldrb	r3, [r2]	@ zero_extendqisi2
 341 003a 03F0F103 		and	r3, r3, #241
ARM GAS  C:\Users\emman\AppData\Local\Temp\ccDIVkqh.s 			page 12


 342 003e 1370     		strb	r3, [r2]
 225:Generated_Source\PSoC5/Touch.c **** 
 343              		.loc 1 225 0
 344 0040 023A     		subs	r2, r2, #2
 345 0042 1378     		ldrb	r3, [r2]	@ zero_extendqisi2
 346 0044 03F0F103 		and	r3, r3, #241
 347 0048 43F00C03 		orr	r3, r3, #12
 348 004c 1370     		strb	r3, [r2]
 230:Generated_Source\PSoC5/Touch.c ****     {
 349              		.loc 1 230 0
 350 004e 0D4B     		ldr	r3, .L34+8
 351 0050 5B78     		ldrb	r3, [r3, #1]	@ zero_extendqisi2
 352 0052 1BB9     		cbnz	r3, .L29
 232:Generated_Source\PSoC5/Touch.c ****     }
 353              		.loc 1 232 0
 354 0054 1420     		movs	r0, #20
 355 0056 FFF7FEFF 		bl	CyDelayUs
 356              	.LVL20:
 357 005a 05E0     		b	.L30
 358              	.L29:
 236:Generated_Source\PSoC5/Touch.c ****         CyDelayUs(8u);        
 359              		.loc 1 236 0
 360 005c 0022     		movs	r2, #0
 361 005e 094B     		ldr	r3, .L34+8
 362 0060 5A70     		strb	r2, [r3, #1]
 237:Generated_Source\PSoC5/Touch.c ****     }
 363              		.loc 1 237 0
 364 0062 0820     		movs	r0, #8
 365 0064 FFF7FEFF 		bl	CyDelayUs
 366              	.LVL21:
 367              	.L30:
 242:Generated_Source\PSoC5/Touch.c **** }
 368              		.loc 1 242 0
 369 0068 FFF7FEFF 		bl	Touch_Measure
 370              	.LVL22:
 371 006c B0F5EF6F 		cmp	r0, #1912
 372 0070 01DA     		bge	.L32
 373 0072 0120     		movs	r0, #1
 374 0074 10BD     		pop	{r4, pc}
 375              	.L32:
 376 0076 0020     		movs	r0, #0
 243:Generated_Source\PSoC5/Touch.c **** 
 377              		.loc 1 243 0
 378 0078 10BD     		pop	{r4, pc}
 379              	.L35:
 380 007a 00BF     		.align	2
 381              	.L34:
 382 007c 20500040 		.word	1073762336
 383 0080 22500040 		.word	1073762338
 384 0084 00000000 		.word	.LANCHOR0
 385              		.cfi_endproc
 386              	.LFE6:
 387              		.size	Touch_TouchDetect, .-Touch_TouchDetect
 388              		.global	Touch_initVar
 389              		.bss
 390              		.set	.LANCHOR0,. + 0
 391              		.type	Touch_initVar, %object
ARM GAS  C:\Users\emman\AppData\Local\Temp\ccDIVkqh.s 			page 13


 392              		.size	Touch_initVar, 1
 393              	Touch_initVar:
 394 0000 00       		.space	1
 395              		.type	Touch_measurementFlag, %object
 396              		.size	Touch_measurementFlag, 1
 397              	Touch_measurementFlag:
 398 0001 00       		.space	1
 399              		.text
 400              	.Letext0:
 401              		.file 2 "Generated_Source\\PSoC5\\cytypes.h"
 402              		.file 3 "Generated_Source\\PSoC5\\Touch_AMux.h"
 403              		.file 4 "Generated_Source\\PSoC5\\Touch_ADC.h"
 404              		.file 5 "Generated_Source\\PSoC5\\cyfitter_cfg.h"
 405              		.file 6 "Generated_Source\\PSoC5\\CyLib.h"