ARM GAS  C:\Users\esancho\AppData\Local\Temp\ccLRDo4j.s 			page 1


   1              		.syntax unified
   2              		.cpu cortex-m3
   3              		.fpu softvfp
   4              		.eabi_attribute 20, 1
   5              		.eabi_attribute 21, 1
   6              		.eabi_attribute 23, 3
   7              		.eabi_attribute 24, 1
   8              		.eabi_attribute 25, 1
   9              		.eabi_attribute 26, 1
  10              		.eabi_attribute 30, 4
  11              		.eabi_attribute 34, 1
  12              		.eabi_attribute 18, 4
  13              		.thumb
  14              		.syntax unified
  15              		.file	"cyfitter_cfg.c"
  16              		.text
  17              	.Ltext0:
  18              		.cfi_sections	.debug_frame
  19              		.section	.text.SetAnalogRoutingPumps,"ax",%progbits
  20              		.align	1
  21              		.global	SetAnalogRoutingPumps
  22              		.thumb
  23              		.thumb_func
  24              		.type	SetAnalogRoutingPumps, %function
  25              	SetAnalogRoutingPumps:
  26              	.LFB7:
  27              		.file 1 "Generated_Source\\PSoC5\\cyfitter_cfg.c"
   1:Generated_Source\PSoC5/cyfitter_cfg.c **** 
   2:Generated_Source\PSoC5/cyfitter_cfg.c **** /*******************************************************************************
   3:Generated_Source\PSoC5/cyfitter_cfg.c **** * File Name: cyfitter_cfg.c
   4:Generated_Source\PSoC5/cyfitter_cfg.c **** * 
   5:Generated_Source\PSoC5/cyfitter_cfg.c **** * PSoC Creator  4.2
   6:Generated_Source\PSoC5/cyfitter_cfg.c **** *
   7:Generated_Source\PSoC5/cyfitter_cfg.c **** * Description:
   8:Generated_Source\PSoC5/cyfitter_cfg.c **** * This file contains device initialization code.
   9:Generated_Source\PSoC5/cyfitter_cfg.c **** * Except for the user defined sections in CyClockStartupError(), this file should not be modified.
  10:Generated_Source\PSoC5/cyfitter_cfg.c **** * This file is automatically generated by PSoC Creator.
  11:Generated_Source\PSoC5/cyfitter_cfg.c **** *
  12:Generated_Source\PSoC5/cyfitter_cfg.c **** ********************************************************************************
  13:Generated_Source\PSoC5/cyfitter_cfg.c **** * Copyright (c) 2007-2018 Cypress Semiconductor.  All rights reserved.
  14:Generated_Source\PSoC5/cyfitter_cfg.c **** * You may use this file only in accordance with the license, terms, conditions, 
  15:Generated_Source\PSoC5/cyfitter_cfg.c **** * disclaimers, and limitations in the end user license agreement accompanying 
  16:Generated_Source\PSoC5/cyfitter_cfg.c **** * the software package with which this file was provided.
  17:Generated_Source\PSoC5/cyfitter_cfg.c **** ********************************************************************************/
  18:Generated_Source\PSoC5/cyfitter_cfg.c **** 
  19:Generated_Source\PSoC5/cyfitter_cfg.c **** #include <string.h>
  20:Generated_Source\PSoC5/cyfitter_cfg.c **** #include "cytypes.h"
  21:Generated_Source\PSoC5/cyfitter_cfg.c **** #include "cydevice_trm.h"
  22:Generated_Source\PSoC5/cyfitter_cfg.c **** #include "cyfitter.h"
  23:Generated_Source\PSoC5/cyfitter_cfg.c **** #include "CyLib.h"
  24:Generated_Source\PSoC5/cyfitter_cfg.c **** #include "cyfitter_cfg.h"
  25:Generated_Source\PSoC5/cyfitter_cfg.c **** #include "cyapicallbacks.h"
  26:Generated_Source\PSoC5/cyfitter_cfg.c **** 
  27:Generated_Source\PSoC5/cyfitter_cfg.c **** #define CY_NEED_CYCLOCKSTARTUPERROR 1
  28:Generated_Source\PSoC5/cyfitter_cfg.c **** 
  29:Generated_Source\PSoC5/cyfitter_cfg.c **** 
  30:Generated_Source\PSoC5/cyfitter_cfg.c **** #if defined(__GNUC__) || defined(__ARMCC_VERSION)
ARM GAS  C:\Users\esancho\AppData\Local\Temp\ccLRDo4j.s 			page 2


  31:Generated_Source\PSoC5/cyfitter_cfg.c ****     #define CYPACKED 
  32:Generated_Source\PSoC5/cyfitter_cfg.c ****     #define CYPACKED_ATTR __attribute__ ((packed))
  33:Generated_Source\PSoC5/cyfitter_cfg.c ****     #define CYALIGNED __attribute__ ((aligned))
  34:Generated_Source\PSoC5/cyfitter_cfg.c ****     #define CY_CFG_UNUSED __attribute__ ((unused))
  35:Generated_Source\PSoC5/cyfitter_cfg.c ****     #ifndef CY_CFG_SECTION
  36:Generated_Source\PSoC5/cyfitter_cfg.c ****         #define CY_CFG_SECTION __attribute__ ((section(".psocinit")))
  37:Generated_Source\PSoC5/cyfitter_cfg.c ****     #endif
  38:Generated_Source\PSoC5/cyfitter_cfg.c ****     
  39:Generated_Source\PSoC5/cyfitter_cfg.c ****     #if defined(__ARMCC_VERSION)
  40:Generated_Source\PSoC5/cyfitter_cfg.c ****         #define CY_CFG_MEMORY_BARRIER() __memory_changed()
  41:Generated_Source\PSoC5/cyfitter_cfg.c ****     #else
  42:Generated_Source\PSoC5/cyfitter_cfg.c ****         #define CY_CFG_MEMORY_BARRIER() __sync_synchronize()
  43:Generated_Source\PSoC5/cyfitter_cfg.c ****     #endif
  44:Generated_Source\PSoC5/cyfitter_cfg.c ****     
  45:Generated_Source\PSoC5/cyfitter_cfg.c **** #elif defined(__ICCARM__)
  46:Generated_Source\PSoC5/cyfitter_cfg.c ****     #include <intrinsics.h>
  47:Generated_Source\PSoC5/cyfitter_cfg.c **** 
  48:Generated_Source\PSoC5/cyfitter_cfg.c ****     #define CYPACKED __packed
  49:Generated_Source\PSoC5/cyfitter_cfg.c ****     #define CYPACKED_ATTR 
  50:Generated_Source\PSoC5/cyfitter_cfg.c ****     #define CYALIGNED _Pragma("data_alignment=4")
  51:Generated_Source\PSoC5/cyfitter_cfg.c ****     #define CY_CFG_UNUSED _Pragma("diag_suppress=Pe177")
  52:Generated_Source\PSoC5/cyfitter_cfg.c ****     #define CY_CFG_SECTION _Pragma("location=\".psocinit\"")
  53:Generated_Source\PSoC5/cyfitter_cfg.c ****     
  54:Generated_Source\PSoC5/cyfitter_cfg.c ****     #define CY_CFG_MEMORY_BARRIER() __DMB()
  55:Generated_Source\PSoC5/cyfitter_cfg.c ****     
  56:Generated_Source\PSoC5/cyfitter_cfg.c **** #else
  57:Generated_Source\PSoC5/cyfitter_cfg.c ****     #error Unsupported toolchain
  58:Generated_Source\PSoC5/cyfitter_cfg.c **** #endif
  59:Generated_Source\PSoC5/cyfitter_cfg.c **** 
  60:Generated_Source\PSoC5/cyfitter_cfg.c **** #ifndef CYCODE
  61:Generated_Source\PSoC5/cyfitter_cfg.c ****     #define CYCODE
  62:Generated_Source\PSoC5/cyfitter_cfg.c **** #endif
  63:Generated_Source\PSoC5/cyfitter_cfg.c **** #ifndef CYDATA
  64:Generated_Source\PSoC5/cyfitter_cfg.c ****     #define CYDATA
  65:Generated_Source\PSoC5/cyfitter_cfg.c **** #endif
  66:Generated_Source\PSoC5/cyfitter_cfg.c **** #ifndef CYFAR
  67:Generated_Source\PSoC5/cyfitter_cfg.c ****     #define CYFAR
  68:Generated_Source\PSoC5/cyfitter_cfg.c **** #endif
  69:Generated_Source\PSoC5/cyfitter_cfg.c **** #ifndef CYXDATA
  70:Generated_Source\PSoC5/cyfitter_cfg.c ****     #define CYXDATA
  71:Generated_Source\PSoC5/cyfitter_cfg.c **** #endif
  72:Generated_Source\PSoC5/cyfitter_cfg.c **** 
  73:Generated_Source\PSoC5/cyfitter_cfg.c **** 
  74:Generated_Source\PSoC5/cyfitter_cfg.c **** CY_CFG_UNUSED
  75:Generated_Source\PSoC5/cyfitter_cfg.c **** static void CYMEMZERO(void *s, size_t n);
  76:Generated_Source\PSoC5/cyfitter_cfg.c **** CY_CFG_UNUSED
  77:Generated_Source\PSoC5/cyfitter_cfg.c **** static void CYMEMZERO(void *s, size_t n)
  78:Generated_Source\PSoC5/cyfitter_cfg.c **** {
  79:Generated_Source\PSoC5/cyfitter_cfg.c **** 	(void)memset(s, 0, n);
  80:Generated_Source\PSoC5/cyfitter_cfg.c **** }
  81:Generated_Source\PSoC5/cyfitter_cfg.c **** CY_CFG_UNUSED
  82:Generated_Source\PSoC5/cyfitter_cfg.c **** static void CYCONFIGCPY(void *dest, const void *src, size_t n);
  83:Generated_Source\PSoC5/cyfitter_cfg.c **** CY_CFG_UNUSED
  84:Generated_Source\PSoC5/cyfitter_cfg.c **** static void CYCONFIGCPY(void *dest, const void *src, size_t n)
  85:Generated_Source\PSoC5/cyfitter_cfg.c **** {
  86:Generated_Source\PSoC5/cyfitter_cfg.c **** 	(void)memcpy(dest, src, n);
  87:Generated_Source\PSoC5/cyfitter_cfg.c **** }
ARM GAS  C:\Users\esancho\AppData\Local\Temp\ccLRDo4j.s 			page 3


  88:Generated_Source\PSoC5/cyfitter_cfg.c **** CY_CFG_UNUSED
  89:Generated_Source\PSoC5/cyfitter_cfg.c **** static void CYCONFIGCPYCODE(void *dest, const void *src, size_t n);
  90:Generated_Source\PSoC5/cyfitter_cfg.c **** CY_CFG_UNUSED
  91:Generated_Source\PSoC5/cyfitter_cfg.c **** static void CYCONFIGCPYCODE(void *dest, const void *src, size_t n)
  92:Generated_Source\PSoC5/cyfitter_cfg.c **** {
  93:Generated_Source\PSoC5/cyfitter_cfg.c **** 	(void)memcpy(dest, src, n);
  94:Generated_Source\PSoC5/cyfitter_cfg.c **** }
  95:Generated_Source\PSoC5/cyfitter_cfg.c **** 
  96:Generated_Source\PSoC5/cyfitter_cfg.c **** 
  97:Generated_Source\PSoC5/cyfitter_cfg.c **** 
  98:Generated_Source\PSoC5/cyfitter_cfg.c **** 
  99:Generated_Source\PSoC5/cyfitter_cfg.c **** /* Clock startup error codes                                                   */
 100:Generated_Source\PSoC5/cyfitter_cfg.c **** #define CYCLOCKSTART_NO_ERROR    0u
 101:Generated_Source\PSoC5/cyfitter_cfg.c **** #define CYCLOCKSTART_XTAL_ERROR  1u
 102:Generated_Source\PSoC5/cyfitter_cfg.c **** #define CYCLOCKSTART_32KHZ_ERROR 2u
 103:Generated_Source\PSoC5/cyfitter_cfg.c **** #define CYCLOCKSTART_PLL_ERROR   3u
 104:Generated_Source\PSoC5/cyfitter_cfg.c **** #define CYCLOCKSTART_FLL_ERROR   4u
 105:Generated_Source\PSoC5/cyfitter_cfg.c **** #define CYCLOCKSTART_WCO_ERROR   5u
 106:Generated_Source\PSoC5/cyfitter_cfg.c **** 
 107:Generated_Source\PSoC5/cyfitter_cfg.c **** 
 108:Generated_Source\PSoC5/cyfitter_cfg.c **** #ifdef CY_NEED_CYCLOCKSTARTUPERROR
 109:Generated_Source\PSoC5/cyfitter_cfg.c **** /*******************************************************************************
 110:Generated_Source\PSoC5/cyfitter_cfg.c **** * Function Name: CyClockStartupError
 111:Generated_Source\PSoC5/cyfitter_cfg.c **** ********************************************************************************
 112:Generated_Source\PSoC5/cyfitter_cfg.c **** * Summary:
 113:Generated_Source\PSoC5/cyfitter_cfg.c **** *  If an error is encountered during clock configuration (crystal startup error,
 114:Generated_Source\PSoC5/cyfitter_cfg.c **** *  PLL lock error, etc.), the system will end up here.  Unless reimplemented by
 115:Generated_Source\PSoC5/cyfitter_cfg.c **** *  the customer, this function will stop in an infinite loop.
 116:Generated_Source\PSoC5/cyfitter_cfg.c **** *
 117:Generated_Source\PSoC5/cyfitter_cfg.c **** * Parameters:
 118:Generated_Source\PSoC5/cyfitter_cfg.c **** *   void
 119:Generated_Source\PSoC5/cyfitter_cfg.c **** *
 120:Generated_Source\PSoC5/cyfitter_cfg.c **** * Return:
 121:Generated_Source\PSoC5/cyfitter_cfg.c **** *   void
 122:Generated_Source\PSoC5/cyfitter_cfg.c **** *
 123:Generated_Source\PSoC5/cyfitter_cfg.c **** *******************************************************************************/
 124:Generated_Source\PSoC5/cyfitter_cfg.c **** CY_CFG_UNUSED
 125:Generated_Source\PSoC5/cyfitter_cfg.c **** static void CyClockStartupError(uint8 errorCode);
 126:Generated_Source\PSoC5/cyfitter_cfg.c **** CY_CFG_UNUSED
 127:Generated_Source\PSoC5/cyfitter_cfg.c **** static void CyClockStartupError(uint8 errorCode)
 128:Generated_Source\PSoC5/cyfitter_cfg.c **** {
 129:Generated_Source\PSoC5/cyfitter_cfg.c ****     /* To remove the compiler warning if errorCode not used.                */
 130:Generated_Source\PSoC5/cyfitter_cfg.c ****     errorCode = errorCode;
 131:Generated_Source\PSoC5/cyfitter_cfg.c **** 
 132:Generated_Source\PSoC5/cyfitter_cfg.c ****     /* If we have a clock startup error (bad MHz crystal, PLL lock, etc.),  */
 133:Generated_Source\PSoC5/cyfitter_cfg.c ****     /* we will end up here to allow the customer to implement something to  */
 134:Generated_Source\PSoC5/cyfitter_cfg.c ****     /* deal with the clock condition.                                       */
 135:Generated_Source\PSoC5/cyfitter_cfg.c **** 
 136:Generated_Source\PSoC5/cyfitter_cfg.c **** #ifdef CY_CFG_CLOCK_STARTUP_ERROR_CALLBACK
 137:Generated_Source\PSoC5/cyfitter_cfg.c ****     CY_CFG_Clock_Startup_ErrorCallback();
 138:Generated_Source\PSoC5/cyfitter_cfg.c **** #else
 139:Generated_Source\PSoC5/cyfitter_cfg.c ****     /*  If not using CY_CFG_CLOCK_STARTUP_ERROR_CALLBACK, place your clock startup code here. */
 140:Generated_Source\PSoC5/cyfitter_cfg.c ****     /* `#START CyClockStartupError` */
 141:Generated_Source\PSoC5/cyfitter_cfg.c **** 
 142:Generated_Source\PSoC5/cyfitter_cfg.c **** 
 143:Generated_Source\PSoC5/cyfitter_cfg.c **** 
 144:Generated_Source\PSoC5/cyfitter_cfg.c ****     /* `#END` */
ARM GAS  C:\Users\esancho\AppData\Local\Temp\ccLRDo4j.s 			page 4


 145:Generated_Source\PSoC5/cyfitter_cfg.c **** 
 146:Generated_Source\PSoC5/cyfitter_cfg.c ****     while(1) {}
 147:Generated_Source\PSoC5/cyfitter_cfg.c **** #endif /* CY_CFG_CLOCK_STARTUP_ERROR_CALLBACK */
 148:Generated_Source\PSoC5/cyfitter_cfg.c **** }
 149:Generated_Source\PSoC5/cyfitter_cfg.c **** #endif
 150:Generated_Source\PSoC5/cyfitter_cfg.c **** 
 151:Generated_Source\PSoC5/cyfitter_cfg.c **** #define CY_CFG_BASE_ADDR_COUNT 24u
 152:Generated_Source\PSoC5/cyfitter_cfg.c **** CYPACKED typedef struct
 153:Generated_Source\PSoC5/cyfitter_cfg.c **** {
 154:Generated_Source\PSoC5/cyfitter_cfg.c **** 	uint8 offset;
 155:Generated_Source\PSoC5/cyfitter_cfg.c **** 	uint8 value;
 156:Generated_Source\PSoC5/cyfitter_cfg.c **** } CYPACKED_ATTR cy_cfg_addrvalue_t;
 157:Generated_Source\PSoC5/cyfitter_cfg.c **** 
 158:Generated_Source\PSoC5/cyfitter_cfg.c **** #define cy_cfg_addr_table ((const uint32 CYFAR *)0x48000000u)
 159:Generated_Source\PSoC5/cyfitter_cfg.c **** #define cy_cfg_data_table ((const cy_cfg_addrvalue_t CYFAR *)0x48000060u)
 160:Generated_Source\PSoC5/cyfitter_cfg.c **** 
 161:Generated_Source\PSoC5/cyfitter_cfg.c **** /* IOPORT_4 Address: CYDEV_PRTDSI_PRT4_BASE Size (bytes): 7 */
 162:Generated_Source\PSoC5/cyfitter_cfg.c **** #define BS_IOPORT_4_VAL ((const uint8 CYFAR *)0x4800025Cu)
 163:Generated_Source\PSoC5/cyfitter_cfg.c **** 
 164:Generated_Source\PSoC5/cyfitter_cfg.c **** /* IOPINS0_7 Address: CYREG_PRT12_DR Size (bytes): 10 */
 165:Generated_Source\PSoC5/cyfitter_cfg.c **** #define BS_IOPINS0_7_VAL ((const uint8 CYFAR *)0x48000264u)
 166:Generated_Source\PSoC5/cyfitter_cfg.c **** 
 167:Generated_Source\PSoC5/cyfitter_cfg.c **** /* IOPINS1_7 Address: CYREG_PRT12_DR + 0x0000000Bu Size (bytes): 5 */
 168:Generated_Source\PSoC5/cyfitter_cfg.c **** #define BS_IOPINS1_7_VAL ((const uint8 CYFAR *)0x48000270u)
 169:Generated_Source\PSoC5/cyfitter_cfg.c **** 
 170:Generated_Source\PSoC5/cyfitter_cfg.c **** /* IOPINS0_1 Address: CYREG_PRT1_DM0 Size (bytes): 8 */
 171:Generated_Source\PSoC5/cyfitter_cfg.c **** #define BS_IOPINS0_1_VAL ((const uint8 CYFAR *)0x48000278u)
 172:Generated_Source\PSoC5/cyfitter_cfg.c **** 
 173:Generated_Source\PSoC5/cyfitter_cfg.c **** /* IOPINS0_4 Address: CYREG_PRT4_DM0 Size (bytes): 8 */
 174:Generated_Source\PSoC5/cyfitter_cfg.c **** #define BS_IOPINS0_4_VAL ((const uint8 CYFAR *)0x48000280u)
 175:Generated_Source\PSoC5/cyfitter_cfg.c **** 
 176:Generated_Source\PSoC5/cyfitter_cfg.c **** /* CYDEV_CLKDIST_ACFG0_CFG0 Address: CYREG_CLKDIST_ACFG0_CFG0 Size (bytes): 8 */
 177:Generated_Source\PSoC5/cyfitter_cfg.c **** #define BS_CYDEV_CLKDIST_ACFG0_CFG0_VAL ((const uint8 CYFAR *)0x48000288u)
 178:Generated_Source\PSoC5/cyfitter_cfg.c **** 
 179:Generated_Source\PSoC5/cyfitter_cfg.c **** 
 180:Generated_Source\PSoC5/cyfitter_cfg.c **** /*******************************************************************************
 181:Generated_Source\PSoC5/cyfitter_cfg.c **** * Function Name: cfg_write_bytes32
 182:Generated_Source\PSoC5/cyfitter_cfg.c **** ********************************************************************************
 183:Generated_Source\PSoC5/cyfitter_cfg.c **** * Summary:
 184:Generated_Source\PSoC5/cyfitter_cfg.c **** *  This function is used for setting up the chip configuration areas that
 185:Generated_Source\PSoC5/cyfitter_cfg.c **** *  contain relatively sparse data.
 186:Generated_Source\PSoC5/cyfitter_cfg.c **** *
 187:Generated_Source\PSoC5/cyfitter_cfg.c **** * Parameters:
 188:Generated_Source\PSoC5/cyfitter_cfg.c **** *   void
 189:Generated_Source\PSoC5/cyfitter_cfg.c **** *
 190:Generated_Source\PSoC5/cyfitter_cfg.c **** * Return:
 191:Generated_Source\PSoC5/cyfitter_cfg.c **** *   void
 192:Generated_Source\PSoC5/cyfitter_cfg.c **** *
 193:Generated_Source\PSoC5/cyfitter_cfg.c **** *******************************************************************************/
 194:Generated_Source\PSoC5/cyfitter_cfg.c **** static void cfg_write_bytes32(const uint32 addr_table[], const cy_cfg_addrvalue_t data_table[]);
 195:Generated_Source\PSoC5/cyfitter_cfg.c **** static void cfg_write_bytes32(const uint32 addr_table[], const cy_cfg_addrvalue_t data_table[])
 196:Generated_Source\PSoC5/cyfitter_cfg.c **** {
 197:Generated_Source\PSoC5/cyfitter_cfg.c **** 	/* For 32-bit little-endian architectures */
 198:Generated_Source\PSoC5/cyfitter_cfg.c **** 	uint32 i, j = 0u;
 199:Generated_Source\PSoC5/cyfitter_cfg.c **** 	for (i = 0u; i < CY_CFG_BASE_ADDR_COUNT; i++)
 200:Generated_Source\PSoC5/cyfitter_cfg.c **** 	{
 201:Generated_Source\PSoC5/cyfitter_cfg.c **** 		uint32 baseAddr = addr_table[i];
ARM GAS  C:\Users\esancho\AppData\Local\Temp\ccLRDo4j.s 			page 5


 202:Generated_Source\PSoC5/cyfitter_cfg.c **** 		uint8 count = (uint8)baseAddr;
 203:Generated_Source\PSoC5/cyfitter_cfg.c **** 		baseAddr &= 0xFFFFFF00u;
 204:Generated_Source\PSoC5/cyfitter_cfg.c **** 		while (count != 0u)
 205:Generated_Source\PSoC5/cyfitter_cfg.c **** 		{
 206:Generated_Source\PSoC5/cyfitter_cfg.c **** 			CY_SET_REG8((void *)(baseAddr + data_table[j].offset), data_table[j].value);
 207:Generated_Source\PSoC5/cyfitter_cfg.c **** 			j++;
 208:Generated_Source\PSoC5/cyfitter_cfg.c **** 			count--;
 209:Generated_Source\PSoC5/cyfitter_cfg.c **** 		}
 210:Generated_Source\PSoC5/cyfitter_cfg.c **** 	}
 211:Generated_Source\PSoC5/cyfitter_cfg.c **** }
 212:Generated_Source\PSoC5/cyfitter_cfg.c **** 
 213:Generated_Source\PSoC5/cyfitter_cfg.c **** /*******************************************************************************
 214:Generated_Source\PSoC5/cyfitter_cfg.c **** * Function Name: ClockSetup
 215:Generated_Source\PSoC5/cyfitter_cfg.c **** ********************************************************************************
 216:Generated_Source\PSoC5/cyfitter_cfg.c **** *
 217:Generated_Source\PSoC5/cyfitter_cfg.c **** * Summary:
 218:Generated_Source\PSoC5/cyfitter_cfg.c **** *  Performs the initialization of all of the clocks in the device based on the
 219:Generated_Source\PSoC5/cyfitter_cfg.c **** *  settings in the Clock tab of the DWR.  This includes enabling the requested
 220:Generated_Source\PSoC5/cyfitter_cfg.c **** *  clocks and setting the necessary dividers to produce the desired frequency. 
 221:Generated_Source\PSoC5/cyfitter_cfg.c **** *
 222:Generated_Source\PSoC5/cyfitter_cfg.c **** * Parameters:
 223:Generated_Source\PSoC5/cyfitter_cfg.c **** *  void
 224:Generated_Source\PSoC5/cyfitter_cfg.c **** *
 225:Generated_Source\PSoC5/cyfitter_cfg.c **** * Return:
 226:Generated_Source\PSoC5/cyfitter_cfg.c **** *  void
 227:Generated_Source\PSoC5/cyfitter_cfg.c **** *
 228:Generated_Source\PSoC5/cyfitter_cfg.c **** *******************************************************************************/
 229:Generated_Source\PSoC5/cyfitter_cfg.c **** static void ClockSetup(void);
 230:Generated_Source\PSoC5/cyfitter_cfg.c **** static void ClockSetup(void)
 231:Generated_Source\PSoC5/cyfitter_cfg.c **** {
 232:Generated_Source\PSoC5/cyfitter_cfg.c **** 	uint32 timeout;
 233:Generated_Source\PSoC5/cyfitter_cfg.c **** 	uint8 pllLock;
 234:Generated_Source\PSoC5/cyfitter_cfg.c **** 
 235:Generated_Source\PSoC5/cyfitter_cfg.c **** 
 236:Generated_Source\PSoC5/cyfitter_cfg.c **** 	/* Configure Digital Clocks based on settings from Clock DWR */
 237:Generated_Source\PSoC5/cyfitter_cfg.c **** 	CY_SET_XTND_REG16((void CYFAR *)(CYREG_CLKDIST_DCFG0_CFG0), 0x0017u);
 238:Generated_Source\PSoC5/cyfitter_cfg.c **** 	CY_SET_XTND_REG8((void CYFAR *)(CYREG_CLKDIST_DCFG0_CFG0 + 0x2u), 0x18u);
 239:Generated_Source\PSoC5/cyfitter_cfg.c **** 
 240:Generated_Source\PSoC5/cyfitter_cfg.c **** 	/* Configure Analog Clocks based on settings from Clock DWR */
 241:Generated_Source\PSoC5/cyfitter_cfg.c **** 	CYCONFIGCPY((void CYFAR *)(CYREG_CLKDIST_ACFG0_CFG0), (const void CYFAR *)(BS_CYDEV_CLKDIST_ACFG0_
 242:Generated_Source\PSoC5/cyfitter_cfg.c **** 
 243:Generated_Source\PSoC5/cyfitter_cfg.c **** 	/* Configure ILO based on settings from Clock DWR */
 244:Generated_Source\PSoC5/cyfitter_cfg.c **** 	CY_SET_XTND_REG8((void CYFAR *)(CYREG_SLOWCLK_ILO_CR0), 0x02u);
 245:Generated_Source\PSoC5/cyfitter_cfg.c **** 	CY_SET_XTND_REG8((void CYFAR *)(CYREG_CLKDIST_CR), 0x08u);
 246:Generated_Source\PSoC5/cyfitter_cfg.c **** 
 247:Generated_Source\PSoC5/cyfitter_cfg.c **** 	/* Configure IMO based on settings from Clock DWR */
 248:Generated_Source\PSoC5/cyfitter_cfg.c **** 	CY_SET_XTND_REG8((void CYFAR *)(CYREG_FASTCLK_IMO_CR), 0x03u);
 249:Generated_Source\PSoC5/cyfitter_cfg.c **** 	CY_SET_XTND_REG8((void CYFAR *)(CYREG_IMO_TR1), (CY_GET_XTND_REG8((void CYFAR *)CYREG_FLSHID_CUST_
 250:Generated_Source\PSoC5/cyfitter_cfg.c **** 
 251:Generated_Source\PSoC5/cyfitter_cfg.c **** 	/* Configure PLL based on settings from Clock DWR */
 252:Generated_Source\PSoC5/cyfitter_cfg.c **** 	CY_SET_XTND_REG16((void CYFAR *)(CYREG_FASTCLK_PLL_P), 0x0008u);
 253:Generated_Source\PSoC5/cyfitter_cfg.c **** 	CY_SET_XTND_REG16((void CYFAR *)(CYREG_FASTCLK_PLL_CFG0), 0x1251u);
 254:Generated_Source\PSoC5/cyfitter_cfg.c **** 	/* Wait up to 250us for the PLL to lock */
 255:Generated_Source\PSoC5/cyfitter_cfg.c **** 	pllLock = 0u;
 256:Generated_Source\PSoC5/cyfitter_cfg.c **** 	for (timeout = 250u / 10u; (timeout > 0u) && (pllLock != 0x03u); timeout--)
 257:Generated_Source\PSoC5/cyfitter_cfg.c **** 	{ 
 258:Generated_Source\PSoC5/cyfitter_cfg.c **** 		pllLock = 0x03u & ((uint8)((uint8)pllLock << 1) | ((CY_GET_XTND_REG8((void CYFAR *)CYREG_FASTCLK_
ARM GAS  C:\Users\esancho\AppData\Local\Temp\ccLRDo4j.s 			page 6


 259:Generated_Source\PSoC5/cyfitter_cfg.c **** 		CyDelayCycles(10u * 48u); /* Delay 10us based on 48MHz clock */
 260:Generated_Source\PSoC5/cyfitter_cfg.c **** 	}
 261:Generated_Source\PSoC5/cyfitter_cfg.c **** 	/* If we ran out of time the PLL didn't lock so go to the error function */
 262:Generated_Source\PSoC5/cyfitter_cfg.c **** 	if (timeout == 0u)
 263:Generated_Source\PSoC5/cyfitter_cfg.c **** 	{
 264:Generated_Source\PSoC5/cyfitter_cfg.c **** 		CyClockStartupError(CYCLOCKSTART_PLL_ERROR);
 265:Generated_Source\PSoC5/cyfitter_cfg.c **** 	}
 266:Generated_Source\PSoC5/cyfitter_cfg.c **** 
 267:Generated_Source\PSoC5/cyfitter_cfg.c **** 	/* Configure Bus/Master Clock based on settings from Clock DWR */
 268:Generated_Source\PSoC5/cyfitter_cfg.c **** 	CY_SET_XTND_REG16((void CYFAR *)(CYREG_CLKDIST_MSTR0), 0x0100u);
 269:Generated_Source\PSoC5/cyfitter_cfg.c **** 	CY_SET_XTND_REG8((void CYFAR *)(CYREG_CLKDIST_MSTR0), 0x07u);
 270:Generated_Source\PSoC5/cyfitter_cfg.c **** 	CY_SET_XTND_REG8((void CYFAR *)(CYREG_CLKDIST_BCFG0), 0x00u);
 271:Generated_Source\PSoC5/cyfitter_cfg.c **** 	CY_SET_XTND_REG8((void CYFAR *)(CYREG_CLKDIST_BCFG2), 0x48u);
 272:Generated_Source\PSoC5/cyfitter_cfg.c **** 	CY_SET_XTND_REG8((void CYFAR *)(CYREG_CLKDIST_MSTR0), 0x00u);
 273:Generated_Source\PSoC5/cyfitter_cfg.c **** 	CY_SET_XTND_REG8((void CYFAR *)(CYREG_CLKDIST_LD), 0x02u);
 274:Generated_Source\PSoC5/cyfitter_cfg.c **** 	CY_SET_XTND_REG8((void CYFAR *)(CYREG_CLKDIST_DLY1), 0x04u);
 275:Generated_Source\PSoC5/cyfitter_cfg.c **** 
 276:Generated_Source\PSoC5/cyfitter_cfg.c **** 	CY_SET_XTND_REG8((void CYFAR *)(CYREG_PM_ACT_CFG2), ((CY_GET_XTND_REG8((void CYFAR *)CYREG_PM_ACT_
 277:Generated_Source\PSoC5/cyfitter_cfg.c **** 	CY_SET_XTND_REG8((void CYFAR *)(CYREG_PM_ACT_CFG1), ((CY_GET_XTND_REG8((void CYFAR *)CYREG_PM_ACT_
 278:Generated_Source\PSoC5/cyfitter_cfg.c **** 	CY_SET_XTND_REG8((void CYFAR *)(CYREG_PM_ACT_CFG0), ((CY_GET_XTND_REG8((void CYFAR *)CYREG_PM_ACT_
 279:Generated_Source\PSoC5/cyfitter_cfg.c **** }
 280:Generated_Source\PSoC5/cyfitter_cfg.c **** 
 281:Generated_Source\PSoC5/cyfitter_cfg.c **** 
 282:Generated_Source\PSoC5/cyfitter_cfg.c **** /* Analog API Functions */
 283:Generated_Source\PSoC5/cyfitter_cfg.c **** 
 284:Generated_Source\PSoC5/cyfitter_cfg.c **** 
 285:Generated_Source\PSoC5/cyfitter_cfg.c **** /*******************************************************************************
 286:Generated_Source\PSoC5/cyfitter_cfg.c **** * Function Name: AnalogSetDefault
 287:Generated_Source\PSoC5/cyfitter_cfg.c **** ********************************************************************************
 288:Generated_Source\PSoC5/cyfitter_cfg.c **** *
 289:Generated_Source\PSoC5/cyfitter_cfg.c **** * Summary:
 290:Generated_Source\PSoC5/cyfitter_cfg.c **** *  Sets up the analog portions of the chip to default values based on chip
 291:Generated_Source\PSoC5/cyfitter_cfg.c **** *  configuration options from the project.
 292:Generated_Source\PSoC5/cyfitter_cfg.c **** *
 293:Generated_Source\PSoC5/cyfitter_cfg.c **** * Parameters:
 294:Generated_Source\PSoC5/cyfitter_cfg.c **** *  void
 295:Generated_Source\PSoC5/cyfitter_cfg.c **** *
 296:Generated_Source\PSoC5/cyfitter_cfg.c **** * Return:
 297:Generated_Source\PSoC5/cyfitter_cfg.c **** *  void
 298:Generated_Source\PSoC5/cyfitter_cfg.c **** *
 299:Generated_Source\PSoC5/cyfitter_cfg.c **** *******************************************************************************/
 300:Generated_Source\PSoC5/cyfitter_cfg.c **** static void AnalogSetDefault(void);
 301:Generated_Source\PSoC5/cyfitter_cfg.c **** static void AnalogSetDefault(void)
 302:Generated_Source\PSoC5/cyfitter_cfg.c **** {
 303:Generated_Source\PSoC5/cyfitter_cfg.c **** 	uint8 bg_xover_inl_trim = CY_GET_XTND_REG8((void CYFAR *)(CYREG_FLSHID_MFG_CFG_BG_XOVER_INL_TRIM +
 304:Generated_Source\PSoC5/cyfitter_cfg.c **** 	uint8 cr4 = CY_GET_XTND_REG8((void CYFAR *)(CYREG_RESET_CR4));
 305:Generated_Source\PSoC5/cyfitter_cfg.c **** 	uint8 cr5 = CY_GET_XTND_REG8((void CYFAR *)(CYREG_RESET_CR5));
 306:Generated_Source\PSoC5/cyfitter_cfg.c **** 	CY_SET_XTND_REG8((void CYFAR *)(CYREG_BG_DFT0), (bg_xover_inl_trim & 0x07u));
 307:Generated_Source\PSoC5/cyfitter_cfg.c **** 	CY_SET_XTND_REG8((void CYFAR *)(CYREG_BG_DFT1), ((bg_xover_inl_trim >> 4) & 0x0Fu));
 308:Generated_Source\PSoC5/cyfitter_cfg.c **** 	/* Disable PRES while setting up SAR voltage reference */
 309:Generated_Source\PSoC5/cyfitter_cfg.c **** 	CY_SET_XTND_REG8((void CYFAR *)(CYREG_RESET_CR4), (cr4 | 0x03u));
 310:Generated_Source\PSoC5/cyfitter_cfg.c **** 	CY_SET_XTND_REG8((void CYFAR *)(CYREG_RESET_CR5), (cr5 | 0x03u));
 311:Generated_Source\PSoC5/cyfitter_cfg.c **** 	CY_SET_XTND_REG8((void CYFAR *)CYREG_PRT4_AG, 0x0Cu);
 312:Generated_Source\PSoC5/cyfitter_cfg.c **** 	CY_SET_XTND_REG8((void CYFAR *)CYREG_SAR0_CSR1, 0x40u);
 313:Generated_Source\PSoC5/cyfitter_cfg.c **** 	CY_SET_XTND_REG8((void CYFAR *)CYREG_SAR0_CSR3, 0x40u);
 314:Generated_Source\PSoC5/cyfitter_cfg.c **** 	CY_SET_XTND_REG8((void CYFAR *)CYREG_SAR1_CSR1, 0x40u);
 315:Generated_Source\PSoC5/cyfitter_cfg.c **** 	CY_SET_XTND_REG8((void CYFAR *)CYREG_SAR1_CSR3, 0x40u);
ARM GAS  C:\Users\esancho\AppData\Local\Temp\ccLRDo4j.s 			page 7


 316:Generated_Source\PSoC5/cyfitter_cfg.c **** 	CY_SET_XTND_REG8((void CYFAR *)CYREG_SAR0_SW0, 0x40u);
 317:Generated_Source\PSoC5/cyfitter_cfg.c **** 	CY_SET_XTND_REG8((void CYFAR *)CYREG_SAR0_SW3, 0x20u);
 318:Generated_Source\PSoC5/cyfitter_cfg.c **** 	CY_SET_XTND_REG8((void CYFAR *)CYREG_SAR1_SW0, 0x80u);
 319:Generated_Source\PSoC5/cyfitter_cfg.c **** 	CY_SET_XTND_REG8((void CYFAR *)CYREG_SAR1_SW3, 0x20u);
 320:Generated_Source\PSoC5/cyfitter_cfg.c **** 	CY_SET_XTND_REG8((void CYFAR *)CYREG_BUS_SW0, 0x80u);
 321:Generated_Source\PSoC5/cyfitter_cfg.c **** 	CyDelayUs(10u); /* Allow vref to settle before re-enabling PRES */
 322:Generated_Source\PSoC5/cyfitter_cfg.c **** 	CY_SET_XTND_REG8((void CYFAR *)(CYREG_RESET_CR5), (cr5));
 323:Generated_Source\PSoC5/cyfitter_cfg.c **** 	CY_SET_XTND_REG8((void CYFAR *)(CYREG_RESET_CR4), (cr4));
 324:Generated_Source\PSoC5/cyfitter_cfg.c **** 	CY_SET_XTND_REG8((void CYFAR *)CYREG_PUMP_CR0, 0x44u);
 325:Generated_Source\PSoC5/cyfitter_cfg.c **** }
 326:Generated_Source\PSoC5/cyfitter_cfg.c **** 
 327:Generated_Source\PSoC5/cyfitter_cfg.c **** 
 328:Generated_Source\PSoC5/cyfitter_cfg.c **** /*******************************************************************************
 329:Generated_Source\PSoC5/cyfitter_cfg.c **** * Function Name: SetAnalogRoutingPumps
 330:Generated_Source\PSoC5/cyfitter_cfg.c **** ********************************************************************************
 331:Generated_Source\PSoC5/cyfitter_cfg.c **** *
 332:Generated_Source\PSoC5/cyfitter_cfg.c **** * Summary:
 333:Generated_Source\PSoC5/cyfitter_cfg.c **** * Enables or disables the analog pumps feeding analog routing switches.
 334:Generated_Source\PSoC5/cyfitter_cfg.c **** * Intended to be called at startup, based on the Vdda system configuration;
 335:Generated_Source\PSoC5/cyfitter_cfg.c **** * may be called during operation when the user informs us that the Vdda voltage
 336:Generated_Source\PSoC5/cyfitter_cfg.c **** * crossed the pump threshold.
 337:Generated_Source\PSoC5/cyfitter_cfg.c **** *
 338:Generated_Source\PSoC5/cyfitter_cfg.c **** * Parameters:
 339:Generated_Source\PSoC5/cyfitter_cfg.c **** *  enabled - 1 to enable the pumps, 0 to disable the pumps
 340:Generated_Source\PSoC5/cyfitter_cfg.c **** *
 341:Generated_Source\PSoC5/cyfitter_cfg.c **** * Return:
 342:Generated_Source\PSoC5/cyfitter_cfg.c **** *  void
 343:Generated_Source\PSoC5/cyfitter_cfg.c **** *
 344:Generated_Source\PSoC5/cyfitter_cfg.c **** *******************************************************************************/
 345:Generated_Source\PSoC5/cyfitter_cfg.c **** void SetAnalogRoutingPumps(uint8 enabled)
 346:Generated_Source\PSoC5/cyfitter_cfg.c **** {
  28              		.loc 1 346 0
  29              		.cfi_startproc
  30              		@ args = 0, pretend = 0, frame = 0
  31              		@ frame_needed = 0, uses_anonymous_args = 0
  32              		@ link register save eliminated.
  33              	.LVL0:
 347:Generated_Source\PSoC5/cyfitter_cfg.c **** 	uint8 regValue = CY_GET_XTND_REG8((void CYFAR *)CYREG_PUMP_CR0);
  34              		.loc 1 347 0
  35 0000 054A     		ldr	r2, .L5
  36 0002 1378     		ldrb	r3, [r2]	@ zero_extendqisi2
  37 0004 DBB2     		uxtb	r3, r3
  38              	.LVL1:
 348:Generated_Source\PSoC5/cyfitter_cfg.c **** 	if (enabled != 0u)
  39              		.loc 1 348 0
  40 0006 10B1     		cbz	r0, .L2
 349:Generated_Source\PSoC5/cyfitter_cfg.c **** 	{
 350:Generated_Source\PSoC5/cyfitter_cfg.c **** 		regValue |= 0x22u;
  41              		.loc 1 350 0
  42 0008 43F02203 		orr	r3, r3, #34
  43              	.LVL2:
  44 000c 01E0     		b	.L3
  45              	.L2:
 351:Generated_Source\PSoC5/cyfitter_cfg.c **** 	}
 352:Generated_Source\PSoC5/cyfitter_cfg.c **** 	else
 353:Generated_Source\PSoC5/cyfitter_cfg.c **** 	{
 354:Generated_Source\PSoC5/cyfitter_cfg.c **** 		regValue &= (uint8)~0x22u;
ARM GAS  C:\Users\esancho\AppData\Local\Temp\ccLRDo4j.s 			page 8


  46              		.loc 1 354 0
  47 000e 03F0DD03 		and	r3, r3, #221
  48              	.LVL3:
  49              	.L3:
 355:Generated_Source\PSoC5/cyfitter_cfg.c **** 	}
 356:Generated_Source\PSoC5/cyfitter_cfg.c **** 	CY_SET_XTND_REG8((void CYFAR *)CYREG_PUMP_CR0, regValue);
  50              		.loc 1 356 0
  51 0012 1370     		strb	r3, [r2]
  52 0014 7047     		bx	lr
  53              	.L6:
  54 0016 00BF     		.align	2
  55              	.L5:
  56 0018 76580040 		.word	1073764470
  57              		.cfi_endproc
  58              	.LFE7:
  59              		.size	SetAnalogRoutingPumps, .-SetAnalogRoutingPumps
  60              		.section	.text.cyfitter_cfg,"ax",%progbits
  61              		.align	1
  62              		.global	cyfitter_cfg
  63              		.thumb
  64              		.thumb_func
  65              		.type	cyfitter_cfg, %function
  66              	cyfitter_cfg:
  67              	.LFB8:
 357:Generated_Source\PSoC5/cyfitter_cfg.c **** }
 358:Generated_Source\PSoC5/cyfitter_cfg.c **** 
 359:Generated_Source\PSoC5/cyfitter_cfg.c **** 
 360:Generated_Source\PSoC5/cyfitter_cfg.c **** 
 361:Generated_Source\PSoC5/cyfitter_cfg.c **** 
 362:Generated_Source\PSoC5/cyfitter_cfg.c **** /*******************************************************************************
 363:Generated_Source\PSoC5/cyfitter_cfg.c **** * Function Name: cyfitter_cfg
 364:Generated_Source\PSoC5/cyfitter_cfg.c **** ********************************************************************************
 365:Generated_Source\PSoC5/cyfitter_cfg.c **** * Summary:
 366:Generated_Source\PSoC5/cyfitter_cfg.c **** *  This function is called by the start-up code for the selected device. It
 367:Generated_Source\PSoC5/cyfitter_cfg.c **** *  performs all of the necessary device configuration based on the design
 368:Generated_Source\PSoC5/cyfitter_cfg.c **** *  settings.  This includes settings from the Design Wide Resources (DWR) such
 369:Generated_Source\PSoC5/cyfitter_cfg.c **** *  as Clocks and Pins as well as any component configuration that is necessary.
 370:Generated_Source\PSoC5/cyfitter_cfg.c **** *
 371:Generated_Source\PSoC5/cyfitter_cfg.c **** * Parameters:
 372:Generated_Source\PSoC5/cyfitter_cfg.c **** *   void
 373:Generated_Source\PSoC5/cyfitter_cfg.c **** *
 374:Generated_Source\PSoC5/cyfitter_cfg.c **** * Return:
 375:Generated_Source\PSoC5/cyfitter_cfg.c **** *   void
 376:Generated_Source\PSoC5/cyfitter_cfg.c **** *
 377:Generated_Source\PSoC5/cyfitter_cfg.c **** *******************************************************************************/
 378:Generated_Source\PSoC5/cyfitter_cfg.c **** 
 379:Generated_Source\PSoC5/cyfitter_cfg.c **** void cyfitter_cfg(void)
 380:Generated_Source\PSoC5/cyfitter_cfg.c **** {
  68              		.loc 1 380 0
  69              		.cfi_startproc
  70              		@ args = 0, pretend = 0, frame = 0
  71              		@ frame_needed = 0, uses_anonymous_args = 0
  72 0000 2DE9F041 		push	{r4, r5, r6, r7, r8, lr}
  73              		.cfi_def_cfa_offset 24
  74              		.cfi_offset 4, -24
  75              		.cfi_offset 5, -20
  76              		.cfi_offset 6, -16
ARM GAS  C:\Users\esancho\AppData\Local\Temp\ccLRDo4j.s 			page 9


  77              		.cfi_offset 7, -12
  78              		.cfi_offset 8, -8
  79              		.cfi_offset 14, -4
 381:Generated_Source\PSoC5/cyfitter_cfg.c **** #ifdef CYGlobalIntDisable
 382:Generated_Source\PSoC5/cyfitter_cfg.c **** 	/* Disable interrupts by default. Let user enable if/when they want. */
 383:Generated_Source\PSoC5/cyfitter_cfg.c **** 	CYGlobalIntDisable
  80              		.loc 1 383 0
  81              		.syntax unified
  82              	@ 383 "Generated_Source\PSoC5\cyfitter_cfg.c" 1
  83 0004 72B6     		CPSID   i
  84              	@ 0 "" 2
 384:Generated_Source\PSoC5/cyfitter_cfg.c **** #endif
 385:Generated_Source\PSoC5/cyfitter_cfg.c **** 
 386:Generated_Source\PSoC5/cyfitter_cfg.c **** 	/* Enable/Disable Debug functionality based on settings from System DWR */
 387:Generated_Source\PSoC5/cyfitter_cfg.c **** 	CY_SET_XTND_REG8((void CYFAR *)CYREG_MLOGIC_DEBUG, (CY_GET_XTND_REG8((void CYFAR *)CYREG_MLOGIC_DE
  85              		.loc 1 387 0
  86              		.thumb
  87              		.syntax unified
  88 0006 7F4A     		ldr	r2, .L22
  89              	.LBB48:
  90              	.LBB49:
 388:Generated_Source\PSoC5/cyfitter_cfg.c **** 
 389:Generated_Source\PSoC5/cyfitter_cfg.c **** 	{
 390:Generated_Source\PSoC5/cyfitter_cfg.c **** 
 391:Generated_Source\PSoC5/cyfitter_cfg.c **** 		CYPACKED typedef struct {
 392:Generated_Source\PSoC5/cyfitter_cfg.c **** 			void CYFAR *address;
 393:Generated_Source\PSoC5/cyfitter_cfg.c **** 			uint16 size;
 394:Generated_Source\PSoC5/cyfitter_cfg.c **** 		} CYPACKED_ATTR cfg_memset_t;
 395:Generated_Source\PSoC5/cyfitter_cfg.c **** 
 396:Generated_Source\PSoC5/cyfitter_cfg.c **** 
 397:Generated_Source\PSoC5/cyfitter_cfg.c **** 		CYPACKED typedef struct {
 398:Generated_Source\PSoC5/cyfitter_cfg.c **** 			void CYFAR *dest;
 399:Generated_Source\PSoC5/cyfitter_cfg.c **** 			const void CYFAR *src;
 400:Generated_Source\PSoC5/cyfitter_cfg.c **** 			uint16 size;
 401:Generated_Source\PSoC5/cyfitter_cfg.c **** 		} CYPACKED_ATTR cfg_memcpy_t;
 402:Generated_Source\PSoC5/cyfitter_cfg.c **** 
 403:Generated_Source\PSoC5/cyfitter_cfg.c **** 		static const cfg_memset_t CYCODE cfg_memset_list[] = {
 404:Generated_Source\PSoC5/cyfitter_cfg.c **** 			/* address, size */
 405:Generated_Source\PSoC5/cyfitter_cfg.c **** 			{(void CYFAR *)(CYREG_PRT0_DR), 16u},
 406:Generated_Source\PSoC5/cyfitter_cfg.c **** 			{(void CYFAR *)(CYREG_PRT2_DR), 32u},
 407:Generated_Source\PSoC5/cyfitter_cfg.c **** 			{(void CYFAR *)(CYREG_PRT5_DR), 32u},
 408:Generated_Source\PSoC5/cyfitter_cfg.c **** 			{(void CYFAR *)(CYREG_PRT15_DR), 16u},
 409:Generated_Source\PSoC5/cyfitter_cfg.c **** 			{(void CYFAR *)(CYDEV_UCFG_B0_P0_U0_BASE), 4096u},
 410:Generated_Source\PSoC5/cyfitter_cfg.c **** 			{(void CYFAR *)(CYDEV_UCFG_B1_P2_U0_BASE), 2048u},
 411:Generated_Source\PSoC5/cyfitter_cfg.c **** 			{(void CYFAR *)(CYDEV_UCFG_DSI0_BASE), 2560u},
 412:Generated_Source\PSoC5/cyfitter_cfg.c **** 			{(void CYFAR *)(CYDEV_UCFG_DSI12_BASE), 512u},
 413:Generated_Source\PSoC5/cyfitter_cfg.c **** 			{(void CYFAR *)(CYREG_BCTL0_MDCLK_EN), 32u},
 414:Generated_Source\PSoC5/cyfitter_cfg.c **** 		};
 415:Generated_Source\PSoC5/cyfitter_cfg.c **** 
 416:Generated_Source\PSoC5/cyfitter_cfg.c **** 		static const cfg_memcpy_t CYCODE cfg_memcpy_list [] = {
 417:Generated_Source\PSoC5/cyfitter_cfg.c **** 			/* dest, src, size */
 418:Generated_Source\PSoC5/cyfitter_cfg.c **** 			{(void CYFAR *)(CYDEV_PRTDSI_PRT4_BASE), BS_IOPORT_4_VAL, 7u},
 419:Generated_Source\PSoC5/cyfitter_cfg.c **** 		};
 420:Generated_Source\PSoC5/cyfitter_cfg.c **** 
 421:Generated_Source\PSoC5/cyfitter_cfg.c **** 		uint8 CYDATA i;
 422:Generated_Source\PSoC5/cyfitter_cfg.c **** 
 423:Generated_Source\PSoC5/cyfitter_cfg.c **** 		/* Zero out critical memory blocks before beginning configuration */
ARM GAS  C:\Users\esancho\AppData\Local\Temp\ccLRDo4j.s 			page 10


 424:Generated_Source\PSoC5/cyfitter_cfg.c **** 		for (i = 0u; i < (sizeof(cfg_memset_list)/sizeof(cfg_memset_list[0])); i++)
 425:Generated_Source\PSoC5/cyfitter_cfg.c **** 		{
 426:Generated_Source\PSoC5/cyfitter_cfg.c **** 			const cfg_memset_t CYCODE * CYDATA ms = &cfg_memset_list[i];
 427:Generated_Source\PSoC5/cyfitter_cfg.c **** 			CYMEMZERO(ms->address, (size_t)(uint32)(ms->size));
  91              		.loc 1 427 0
  92 0008 7F4D     		ldr	r5, .L22+4
  93              	.LBE49:
  94              	.LBE48:
 387:Generated_Source\PSoC5/cyfitter_cfg.c **** 
  95              		.loc 1 387 0
  96 000a 1378     		ldrb	r3, [r2]	@ zero_extendqisi2
  97 000c 0024     		movs	r4, #0
  98 000e 43F00403 		orr	r3, r3, #4
  99 0012 1370     		strb	r3, [r2]
 100              	.LVL4:
 101              	.LBB64:
 102              	.LBB52:
 103              		.loc 1 427 0
 104 0014 0626     		movs	r6, #6
 105              	.LVL5:
 106              	.L8:
 107              		.loc 1 427 0 is_stmt 0 discriminator 3
 108 0016 06FB0453 		mla	r3, r6, r4, r5
 109              	.LBB50:
 110              	.LBB51:
  79:Generated_Source\PSoC5/cyfitter_cfg.c **** }
 111              		.loc 1 79 0 is_stmt 1 discriminator 3
 112 001a 0021     		movs	r1, #0
 113 001c 9A88     		ldrh	r2, [r3, #4]	@ unaligned
 114 001e 1868     		ldr	r0, [r3]	@ unaligned
 115 0020 0134     		adds	r4, r4, #1
 116              	.LVL6:
 117 0022 FFF7FEFF 		bl	memset
 118              	.LVL7:
 119              	.LBE51:
 120              	.LBE50:
 121              	.LBE52:
 424:Generated_Source\PSoC5/cyfitter_cfg.c **** 		{
 122              		.loc 1 424 0 discriminator 3
 123 0026 092C     		cmp	r4, #9
 124 0028 F5D1     		bne	.L8
 125              	.LVL8:
 126              	.LBB53:
 127              	.LBB54:
 128              	.LBB55:
  86:Generated_Source\PSoC5/cyfitter_cfg.c **** }
 129              		.loc 1 86 0 discriminator 3
 130 002a 784B     		ldr	r3, .L22+8
 131 002c 784A     		ldr	r2, .L22+12
 132              	.LBE55:
 133              	.LBE54:
 134              	.LBE53:
 135              	.LBB58:
 136              	.LBB59:
 199:Generated_Source\PSoC5/cyfitter_cfg.c **** 	{
 137              		.loc 1 199 0 discriminator 3
 138 002e 794D     		ldr	r5, .L22+16
ARM GAS  C:\Users\esancho\AppData\Local\Temp\ccLRDo4j.s 			page 11


 139              	.LBE59:
 140              	.LBE58:
 141              	.LBB62:
 142              	.LBB57:
 143              	.LBB56:
  86:Generated_Source\PSoC5/cyfitter_cfg.c **** }
 144              		.loc 1 86 0 discriminator 3
 145 0030 92E80300 		ldmia	r2, {r0, r1}
 146 0034 1860     		str	r0, [r3]
 147 0036 9980     		strh	r1, [r3, #4]	@ movhi
 148 0038 7748     		ldr	r0, .L22+20
 149 003a 090C     		lsrs	r1, r1, #16
 150 003c 9971     		strb	r1, [r3, #6]
 151              	.LVL9:
 152 003e 0024     		movs	r4, #0
 153              	.LVL10:
 154              	.L11:
 155              	.LBE56:
 156              	.LBE57:
 157              	.LBE62:
 158              	.LBB63:
 159              	.LBB61:
 160              	.LBB60:
 201:Generated_Source\PSoC5/cyfitter_cfg.c **** 		uint8 count = (uint8)baseAddr;
 161              		.loc 1 201 0
 162 0040 50F8041F 		ldr	r1, [r0, #4]!
 163              	.LVL11:
 164 0044 04F11053 		add	r3, r4, #603979776
 165 0048 03F13002 		add	r2, r3, #48
 203:Generated_Source\PSoC5/cyfitter_cfg.c **** 		while (count != 0u)
 166              		.loc 1 203 0
 167 004c 21F0FF06 		bic	r6, r1, #255
 168              	.LVL12:
 169 0050 3133     		adds	r3, r3, #49
 170 0052 C9B2     		uxtb	r1, r1
 171 0054 0B44     		add	r3, r3, r1
 172 0056 5200     		lsls	r2, r2, #1
 173 0058 5B00     		lsls	r3, r3, #1
 174              	.LVL13:
 175              	.L9:
 176 005a 0232     		adds	r2, r2, #2
 204:Generated_Source\PSoC5/cyfitter_cfg.c **** 		{
 177              		.loc 1 204 0
 178 005c 9342     		cmp	r3, r2
 179 005e 06D0     		beq	.L21
 206:Generated_Source\PSoC5/cyfitter_cfg.c **** 			j++;
 180              		.loc 1 206 0
 181 0060 12F8027C 		ldrb	r7, [r2, #-2]	@ zero_extendqisi2
 182 0064 12F801EC 		ldrb	lr, [r2, #-1]	@ zero_extendqisi2
 183 0068 07F806E0 		strb	lr, [r7, r6]
 184 006c F5E7     		b	.L9
 185              	.L21:
 186              	.LBE60:
 199:Generated_Source\PSoC5/cyfitter_cfg.c **** 	{
 187              		.loc 1 199 0
 188 006e A842     		cmp	r0, r5
 189 0070 0C44     		add	r4, r4, r1
ARM GAS  C:\Users\esancho\AppData\Local\Temp\ccLRDo4j.s 			page 12


 190              	.LVL14:
 191 0072 E5D1     		bne	.L11
 192              	.LVL15:
 193              	.LBE61:
 194              	.LBE63:
 428:Generated_Source\PSoC5/cyfitter_cfg.c **** 		}
 429:Generated_Source\PSoC5/cyfitter_cfg.c **** 
 430:Generated_Source\PSoC5/cyfitter_cfg.c **** 		/* Copy device configuration data into registers */
 431:Generated_Source\PSoC5/cyfitter_cfg.c **** 		for (i = 0u; i < (sizeof(cfg_memcpy_list)/sizeof(cfg_memcpy_list[0])); i++)
 432:Generated_Source\PSoC5/cyfitter_cfg.c **** 		{
 433:Generated_Source\PSoC5/cyfitter_cfg.c **** 			const cfg_memcpy_t CYCODE * CYDATA mc = &cfg_memcpy_list[i];
 434:Generated_Source\PSoC5/cyfitter_cfg.c **** 			void * CYDATA destPtr = mc->dest;
 435:Generated_Source\PSoC5/cyfitter_cfg.c **** 			const void * CYDATA srcPtr = mc->src;
 436:Generated_Source\PSoC5/cyfitter_cfg.c **** 			uint16 CYDATA numBytes = mc->size;
 437:Generated_Source\PSoC5/cyfitter_cfg.c **** 			CYCONFIGCPY(destPtr, srcPtr, numBytes);
 438:Generated_Source\PSoC5/cyfitter_cfg.c **** 		}
 439:Generated_Source\PSoC5/cyfitter_cfg.c **** 
 440:Generated_Source\PSoC5/cyfitter_cfg.c **** 		cfg_write_bytes32(cy_cfg_addr_table, cy_cfg_data_table);
 441:Generated_Source\PSoC5/cyfitter_cfg.c **** 
 442:Generated_Source\PSoC5/cyfitter_cfg.c **** 		/* Enable digital routing */
 443:Generated_Source\PSoC5/cyfitter_cfg.c **** 		CY_SET_XTND_REG8((void CYFAR *)CYREG_BCTL0_BANK_CTL, CY_GET_XTND_REG8((void CYFAR *)CYREG_BCTL0_B
 195              		.loc 1 443 0
 196 0074 694A     		ldr	r2, .L22+24
 444:Generated_Source\PSoC5/cyfitter_cfg.c **** 		CY_SET_XTND_REG8((void CYFAR *)CYREG_BCTL1_BANK_CTL, CY_GET_XTND_REG8((void CYFAR *)CYREG_BCTL1_B
 445:Generated_Source\PSoC5/cyfitter_cfg.c **** 
 446:Generated_Source\PSoC5/cyfitter_cfg.c **** 		/* Enable UDB array */
 447:Generated_Source\PSoC5/cyfitter_cfg.c **** 		CY_SET_XTND_REG8((void CYFAR *)CYREG_PM_ACT_CFG0, CY_GET_XTND_REG8((void CYFAR *)CYREG_PM_ACT_CFG
 197              		.loc 1 447 0
 198 0076 6A4D     		ldr	r5, .L22+28
 443:Generated_Source\PSoC5/cyfitter_cfg.c **** 		CY_SET_XTND_REG8((void CYFAR *)CYREG_BCTL1_BANK_CTL, CY_GET_XTND_REG8((void CYFAR *)CYREG_BCTL1_B
 199              		.loc 1 443 0
 200 0078 1378     		ldrb	r3, [r2]	@ zero_extendqisi2
 201              	.LBE64:
 202              	.LBB65:
 203              	.LBB66:
 258:Generated_Source\PSoC5/cyfitter_cfg.c **** 		CyDelayCycles(10u * 48u); /* Delay 10us based on 48MHz clock */
 204              		.loc 1 258 0
 205 007a 6A4F     		ldr	r7, .L22+32
 206              	.LBE66:
 207              	.LBE65:
 208              	.LBB78:
 443:Generated_Source\PSoC5/cyfitter_cfg.c **** 		CY_SET_XTND_REG8((void CYFAR *)CYREG_BCTL1_BANK_CTL, CY_GET_XTND_REG8((void CYFAR *)CYREG_BCTL1_B
 209              		.loc 1 443 0
 210 007c 43F00203 		orr	r3, r3, #2
 211 0080 1370     		strb	r3, [r2]
 444:Generated_Source\PSoC5/cyfitter_cfg.c **** 		CY_SET_XTND_REG8((void CYFAR *)CYREG_BCTL1_BANK_CTL, CY_GET_XTND_REG8((void CYFAR *)CYREG_BCTL1_B
 212              		.loc 1 444 0
 213 0082 137C     		ldrb	r3, [r2, #16]	@ zero_extendqisi2
 214              	.LBE78:
 215              	.LBB79:
 216              	.LBB71:
 253:Generated_Source\PSoC5/cyfitter_cfg.c **** 	/* Wait up to 250us for the PLL to lock */
 217              		.loc 1 253 0
 218 0084 1926     		movs	r6, #25
 219              	.LBE71:
 220              	.LBE79:
 221              	.LBB80:
ARM GAS  C:\Users\esancho\AppData\Local\Temp\ccLRDo4j.s 			page 13


 444:Generated_Source\PSoC5/cyfitter_cfg.c **** 
 222              		.loc 1 444 0
 223 0086 43F00203 		orr	r3, r3, #2
 224 008a 1374     		strb	r3, [r2, #16]
 225              		.loc 1 447 0
 226 008c 2B78     		ldrb	r3, [r5]	@ zero_extendqisi2
 448:Generated_Source\PSoC5/cyfitter_cfg.c **** 		CY_SET_XTND_REG8((void CYFAR *)CYREG_PM_AVAIL_CR2, CY_GET_XTND_REG8((void CYFAR *)CYREG_PM_AVAIL_
 227              		.loc 1 448 0
 228 008e A2F58632 		sub	r2, r2, #68608
 447:Generated_Source\PSoC5/cyfitter_cfg.c **** 		CY_SET_XTND_REG8((void CYFAR *)CYREG_PM_AVAIL_CR2, CY_GET_XTND_REG8((void CYFAR *)CYREG_PM_AVAIL_
 229              		.loc 1 447 0
 230 0092 43F04003 		orr	r3, r3, #64
 231 0096 2B70     		strb	r3, [r5]
 232              		.loc 1 448 0
 233 0098 413A     		subs	r2, r2, #65
 234 009a 1378     		ldrb	r3, [r2]	@ zero_extendqisi2
 235              	.LBE80:
 236              	.LBB81:
 237              	.LBB72:
 255:Generated_Source\PSoC5/cyfitter_cfg.c **** 	for (timeout = 250u / 10u; (timeout > 0u) && (pllLock != 0x03u); timeout--)
 238              		.loc 1 255 0
 239 009c 0024     		movs	r4, #0
 240              	.LBE72:
 241              	.LBE81:
 242              	.LBB82:
 243              		.loc 1 448 0
 244 009e 43F01003 		orr	r3, r3, #16
 245 00a2 1370     		strb	r3, [r2]
 246              	.LVL16:
 247              	.LBE82:
 248              	.LBB83:
 249              	.LBB84:
  86:Generated_Source\PSoC5/cyfitter_cfg.c **** }
 250              		.loc 1 86 0
 251 00a4 604A     		ldr	r2, .L22+36
 252 00a6 614B     		ldr	r3, .L22+40
 253 00a8 07CA     		ldmia	r2, {r0, r1, r2}
 254 00aa 03C3     		stmia	r3!, {r0, r1}
 255 00ac 1A80     		strh	r2, [r3]	@ movhi
 256              	.LVL17:
 257              	.LBE84:
 258              	.LBE83:
 259              	.LBB85:
 260              	.LBB86:
 261 00ae 604A     		ldr	r2, .L22+44
 262 00b0 1068     		ldr	r0, [r2]	@ unaligned
 263 00b2 C3F80300 		str	r0, [r3, #3]	@ unaligned
 264 00b6 1279     		ldrb	r2, [r2, #4]	@ zero_extendqisi2
 265 00b8 DA71     		strb	r2, [r3, #7]
 266              	.LVL18:
 267              	.LBE86:
 268              	.LBE85:
 269              	.LBB87:
 270              	.LBB88:
 271 00ba 5E4A     		ldr	r2, .L22+48
 272 00bc 5E4B     		ldr	r3, .L22+52
 273 00be 03CB     		ldmia	r3!, {r0, r1}
ARM GAS  C:\Users\esancho\AppData\Local\Temp\ccLRDo4j.s 			page 14


 274 00c0 1060     		str	r0, [r2]	@ unaligned
 275 00c2 5160     		str	r1, [r2, #4]	@ unaligned
 276              	.LVL19:
 277              	.LBE88:
 278              	.LBE87:
 279              	.LBB89:
 280              	.LBB90:
 281 00c4 03CB     		ldmia	r3!, {r0, r1}
 282 00c6 5163     		str	r1, [r2, #52]	@ unaligned
 283              	.LVL20:
 284              	.LBE90:
 285              	.LBE89:
 449:Generated_Source\PSoC5/cyfitter_cfg.c **** 	}
 450:Generated_Source\PSoC5/cyfitter_cfg.c **** 
 451:Generated_Source\PSoC5/cyfitter_cfg.c **** 
 452:Generated_Source\PSoC5/cyfitter_cfg.c **** 	/* Perform second pass device configuration. These items must be configured in specific order afte
 453:Generated_Source\PSoC5/cyfitter_cfg.c **** 	CYCONFIGCPY((void CYFAR *)(CYREG_PRT12_DR), (const void CYFAR *)(BS_IOPINS0_7_VAL), 10u);
 454:Generated_Source\PSoC5/cyfitter_cfg.c **** 	CYCONFIGCPY((void CYFAR *)(CYREG_PRT12_DR + 0x0000000Bu), (const void CYFAR *)(BS_IOPINS1_7_VAL), 
 455:Generated_Source\PSoC5/cyfitter_cfg.c **** 	CYCONFIGCPY((void CYFAR *)(CYREG_PRT1_DM0), (const void CYFAR *)(BS_IOPINS0_1_VAL), 8u);
 456:Generated_Source\PSoC5/cyfitter_cfg.c **** 	CYCONFIGCPY((void CYFAR *)(CYREG_PRT4_DM0), (const void CYFAR *)(BS_IOPINS0_4_VAL), 8u);
 457:Generated_Source\PSoC5/cyfitter_cfg.c **** 	/* Switch Boost to the precision bandgap reference from its internal reference */
 458:Generated_Source\PSoC5/cyfitter_cfg.c **** 	CY_SET_REG8((void CYXDATA *)CYREG_BOOST_CR2, (CY_GET_REG8((void CYXDATA *)CYREG_BOOST_CR2) | 0x08u
 286              		.loc 1 458 0
 287 00c8 5C49     		ldr	r1, .L22+56
 288              	.LBB92:
 289              	.LBB91:
  86:Generated_Source\PSoC5/cyfitter_cfg.c **** }
 290              		.loc 1 86 0
 291 00ca 1063     		str	r0, [r2, #48]	@ unaligned
 292              	.LBE91:
 293              	.LBE92:
 294              		.loc 1 458 0
 295 00cc 0A78     		ldrb	r2, [r1]	@ zero_extendqisi2
 296 00ce 42F00802 		orr	r2, r2, #8
 297 00d2 0A70     		strb	r2, [r1]
 459:Generated_Source\PSoC5/cyfitter_cfg.c **** 
 460:Generated_Source\PSoC5/cyfitter_cfg.c **** 	/* Set Flash Cycles based on max possible frequency in case a glitch occurs during ClockSetup(). *
 461:Generated_Source\PSoC5/cyfitter_cfg.c **** 	CY_SET_XTND_REG8((void CYFAR *)(CYREG_CACHE_CC_CTL), (((CYDEV_INSTRUCT_CACHE_ENABLED) != 0) ? 0x61
 298              		.loc 1 461 0
 299 00d4 5A4A     		ldr	r2, .L22+60
 300 00d6 6121     		movs	r1, #97
 301 00d8 1170     		strb	r1, [r2]
 302              	.LBB93:
 303              	.LBB73:
 237:Generated_Source\PSoC5/cyfitter_cfg.c **** 	CY_SET_XTND_REG8((void CYFAR *)(CYREG_CLKDIST_DCFG0_CFG0 + 0x2u), 0x18u);
 304              		.loc 1 237 0
 305 00da A2F5F062 		sub	r2, r2, #1920
 306 00de 1721     		movs	r1, #23
 307 00e0 1180     		strh	r1, [r2]	@ movhi
 238:Generated_Source\PSoC5/cyfitter_cfg.c **** 
 308              		.loc 1 238 0
 309 00e2 1821     		movs	r1, #24
 310 00e4 9170     		strb	r1, [r2, #2]
 311              	.LVL21:
 312              	.LBB67:
 313              	.LBB68:
  86:Generated_Source\PSoC5/cyfitter_cfg.c **** }
ARM GAS  C:\Users\esancho\AppData\Local\Temp\ccLRDo4j.s 			page 15


 314              		.loc 1 86 0
 315 00e6 93E80300 		ldmia	r3, {r0, r1}
 316 00ea 8032     		adds	r2, r2, #128
 317              	.LBE68:
 318              	.LBE67:
 244:Generated_Source\PSoC5/cyfitter_cfg.c **** 	CY_SET_XTND_REG8((void CYFAR *)(CYREG_CLKDIST_CR), 0x08u);
 319              		.loc 1 244 0
 320 00ec 554B     		ldr	r3, .L22+64
 321              	.LBB70:
 322              	.LBB69:
  86:Generated_Source\PSoC5/cyfitter_cfg.c **** }
 323              		.loc 1 86 0
 324 00ee 82E80300 		stmia	r2, {r0, r1}
 325              	.LVL22:
 326              	.LBE69:
 327              	.LBE70:
 244:Generated_Source\PSoC5/cyfitter_cfg.c **** 	CY_SET_XTND_REG8((void CYFAR *)(CYREG_CLKDIST_CR), 0x08u);
 328              		.loc 1 244 0
 329 00f2 0222     		movs	r2, #2
 330 00f4 1A70     		strb	r2, [r3]
 248:Generated_Source\PSoC5/cyfitter_cfg.c **** 	CY_SET_XTND_REG8((void CYFAR *)(CYREG_IMO_TR1), (CY_GET_XTND_REG8((void CYFAR *)CYREG_FLSHID_CUST_
 331              		.loc 1 248 0
 332 00f6 0321     		movs	r1, #3
 245:Generated_Source\PSoC5/cyfitter_cfg.c **** 
 333              		.loc 1 245 0
 334 00f8 0822     		movs	r2, #8
 335 00fa 4FF04023 		mov	r3, #1073758208
 336 00fe 1A70     		strb	r2, [r3]
 248:Generated_Source\PSoC5/cyfitter_cfg.c **** 	CY_SET_XTND_REG8((void CYFAR *)(CYREG_IMO_TR1), (CY_GET_XTND_REG8((void CYFAR *)CYREG_FLSHID_CUST_
 337              		.loc 1 248 0
 338 0100 83F80012 		strb	r1, [r3, #512]
 249:Generated_Source\PSoC5/cyfitter_cfg.c **** 
 339              		.loc 1 249 0
 340 0104 504B     		ldr	r3, .L22+68
 341 0106 5149     		ldr	r1, .L22+72
 342 0108 1B78     		ldrb	r3, [r3]	@ zero_extendqisi2
 343 010a DBB2     		uxtb	r3, r3
 344 010c 0B70     		strb	r3, [r1]
 252:Generated_Source\PSoC5/cyfitter_cfg.c **** 	CY_SET_XTND_REG16((void CYFAR *)(CYREG_FASTCLK_PLL_CFG0), 0x1251u);
 345              		.loc 1 252 0
 346 010e 504B     		ldr	r3, .L22+76
 347 0110 1A80     		strh	r2, [r3]	@ movhi
 253:Generated_Source\PSoC5/cyfitter_cfg.c **** 	/* Wait up to 250us for the PLL to lock */
 348              		.loc 1 253 0
 349 0112 41F25122 		movw	r2, #4689
 350 0116 23F8022C 		strh	r2, [r3, #-2]	@ movhi
 351              	.LVL23:
 352              	.L13:
 258:Generated_Source\PSoC5/cyfitter_cfg.c **** 		CyDelayCycles(10u * 48u); /* Delay 10us based on 48MHz clock */
 353              		.loc 1 258 0
 354 011a 3B78     		ldrb	r3, [r7]	@ zero_extendqisi2
 259:Generated_Source\PSoC5/cyfitter_cfg.c **** 	}
 355              		.loc 1 259 0
 356 011c 4FF4F070 		mov	r0, #480
 258:Generated_Source\PSoC5/cyfitter_cfg.c **** 		CyDelayCycles(10u * 48u); /* Delay 10us based on 48MHz clock */
 357              		.loc 1 258 0
 358 0120 03F00103 		and	r3, r3, #1
ARM GAS  C:\Users\esancho\AppData\Local\Temp\ccLRDo4j.s 			page 16


 359 0124 43EA4404 		orr	r4, r3, r4, lsl #1
 360              	.LVL24:
 259:Generated_Source\PSoC5/cyfitter_cfg.c **** 	}
 361              		.loc 1 259 0
 362 0128 FFF7FEFF 		bl	CyDelayCycles
 363              	.LVL25:
 256:Generated_Source\PSoC5/cyfitter_cfg.c **** 	{ 
 364              		.loc 1 256 0
 365 012c 013E     		subs	r6, r6, #1
 366              	.LVL26:
 258:Generated_Source\PSoC5/cyfitter_cfg.c **** 		CyDelayCycles(10u * 48u); /* Delay 10us based on 48MHz clock */
 367              		.loc 1 258 0
 368 012e 04F00304 		and	r4, r4, #3
 369              	.LVL27:
 256:Generated_Source\PSoC5/cyfitter_cfg.c **** 	{ 
 370              		.loc 1 256 0
 371 0132 65D0     		beq	.L12
 372              	.LVL28:
 373 0134 032C     		cmp	r4, #3
 374 0136 F0D1     		bne	.L13
 268:Generated_Source\PSoC5/cyfitter_cfg.c **** 	CY_SET_XTND_REG8((void CYFAR *)(CYREG_CLKDIST_MSTR0), 0x07u);
 375              		.loc 1 268 0
 376 0138 464B     		ldr	r3, .L22+80
 377 013a 4FF48072 		mov	r2, #256
 378 013e 1A80     		strh	r2, [r3]	@ movhi
 270:Generated_Source\PSoC5/cyfitter_cfg.c **** 	CY_SET_XTND_REG8((void CYFAR *)(CYREG_CLKDIST_BCFG2), 0x48u);
 379              		.loc 1 270 0
 380 0140 4549     		ldr	r1, .L22+84
 269:Generated_Source\PSoC5/cyfitter_cfg.c **** 	CY_SET_XTND_REG8((void CYFAR *)(CYREG_CLKDIST_BCFG0), 0x00u);
 381              		.loc 1 269 0
 382 0142 0722     		movs	r2, #7
 383 0144 1A70     		strb	r2, [r3]
 271:Generated_Source\PSoC5/cyfitter_cfg.c **** 	CY_SET_XTND_REG8((void CYFAR *)(CYREG_CLKDIST_MSTR0), 0x00u);
 384              		.loc 1 271 0
 385 0146 4820     		movs	r0, #72
 270:Generated_Source\PSoC5/cyfitter_cfg.c **** 	CY_SET_XTND_REG8((void CYFAR *)(CYREG_CLKDIST_BCFG2), 0x48u);
 386              		.loc 1 270 0
 387 0148 0022     		movs	r2, #0
 388 014a 0A70     		strb	r2, [r1]
 271:Generated_Source\PSoC5/cyfitter_cfg.c **** 	CY_SET_XTND_REG8((void CYFAR *)(CYREG_CLKDIST_MSTR0), 0x00u);
 389              		.loc 1 271 0
 390 014c 8870     		strb	r0, [r1, #2]
 272:Generated_Source\PSoC5/cyfitter_cfg.c **** 	CY_SET_XTND_REG8((void CYFAR *)(CYREG_CLKDIST_LD), 0x02u);
 391              		.loc 1 272 0
 392 014e 1A70     		strb	r2, [r3]
 273:Generated_Source\PSoC5/cyfitter_cfg.c **** 	CY_SET_XTND_REG8((void CYFAR *)(CYREG_CLKDIST_DLY1), 0x04u);
 393              		.loc 1 273 0
 394 0150 0222     		movs	r2, #2
 395 0152 03F8032C 		strb	r2, [r3, #-3]
 274:Generated_Source\PSoC5/cyfitter_cfg.c **** 
 396              		.loc 1 274 0
 397 0156 0422     		movs	r2, #4
 398 0158 DA71     		strb	r2, [r3, #7]
 276:Generated_Source\PSoC5/cyfitter_cfg.c **** 	CY_SET_XTND_REG8((void CYFAR *)(CYREG_PM_ACT_CFG1), ((CY_GET_XTND_REG8((void CYFAR *)CYREG_PM_ACT_
 399              		.loc 1 276 0
 400 015a 404A     		ldr	r2, .L22+88
 401              	.LBE73:
ARM GAS  C:\Users\esancho\AppData\Local\Temp\ccLRDo4j.s 			page 17


 402              	.LBE93:
 403              	.LBB94:
 404              	.LBB95:
 304:Generated_Source\PSoC5/cyfitter_cfg.c **** 	uint8 cr5 = CY_GET_XTND_REG8((void CYFAR *)(CYREG_RESET_CR5));
 405              		.loc 1 304 0
 406 015c 404F     		ldr	r7, .L22+92
 407              	.LBE95:
 408              	.LBE94:
 409              	.LBB100:
 410              	.LBB74:
 276:Generated_Source\PSoC5/cyfitter_cfg.c **** 	CY_SET_XTND_REG8((void CYFAR *)(CYREG_PM_ACT_CFG1), ((CY_GET_XTND_REG8((void CYFAR *)CYREG_PM_ACT_
 411              		.loc 1 276 0
 412 015e 1378     		ldrb	r3, [r2]	@ zero_extendqisi2
 413              	.LBE74:
 414              	.LBE100:
 415              	.LBB101:
 416              	.LBB96:
 305:Generated_Source\PSoC5/cyfitter_cfg.c **** 	CY_SET_XTND_REG8((void CYFAR *)(CYREG_BG_DFT0), (bg_xover_inl_trim & 0x07u));
 417              		.loc 1 305 0
 418 0160 DFF82481 		ldr	r8, .L22+132
 419              	.LBE96:
 420              	.LBE101:
 421              	.LBB102:
 422              	.LBB75:
 276:Generated_Source\PSoC5/cyfitter_cfg.c **** 	CY_SET_XTND_REG8((void CYFAR *)(CYREG_PM_ACT_CFG1), ((CY_GET_XTND_REG8((void CYFAR *)CYREG_PM_ACT_
 423              		.loc 1 276 0
 424 0164 43F00103 		orr	r3, r3, #1
 425 0168 1370     		strb	r3, [r2]
 277:Generated_Source\PSoC5/cyfitter_cfg.c **** 	CY_SET_XTND_REG8((void CYFAR *)(CYREG_PM_ACT_CFG0), ((CY_GET_XTND_REG8((void CYFAR *)CYREG_PM_ACT_
 426              		.loc 1 277 0
 427 016a 12F8013C 		ldrb	r3, [r2, #-1]	@ zero_extendqisi2
 428              	.LBE75:
 429              	.LBE102:
 430              	.LBB103:
 431              	.LBB97:
 321:Generated_Source\PSoC5/cyfitter_cfg.c **** 	CY_SET_XTND_REG8((void CYFAR *)(CYREG_RESET_CR5), (cr5));
 432              		.loc 1 321 0
 433 016e 0A20     		movs	r0, #10
 434              	.LBE97:
 435              	.LBE103:
 436              	.LBB104:
 437              	.LBB76:
 277:Generated_Source\PSoC5/cyfitter_cfg.c **** 	CY_SET_XTND_REG8((void CYFAR *)(CYREG_PM_ACT_CFG0), ((CY_GET_XTND_REG8((void CYFAR *)CYREG_PM_ACT_
 438              		.loc 1 277 0
 439 0170 43F00303 		orr	r3, r3, #3
 440 0174 02F8013C 		strb	r3, [r2, #-1]
 278:Generated_Source\PSoC5/cyfitter_cfg.c **** }
 441              		.loc 1 278 0
 442 0178 2B78     		ldrb	r3, [r5]	@ zero_extendqisi2
 443              	.LBE76:
 444              	.LBE104:
 462:Generated_Source\PSoC5/cyfitter_cfg.c **** 	/* Setup clocks based on selections from Clock DWR */
 463:Generated_Source\PSoC5/cyfitter_cfg.c **** 	ClockSetup();
 464:Generated_Source\PSoC5/cyfitter_cfg.c **** 	/* Set Flash Cycles based on newly configured 24.00MHz Bus Clock. */
 465:Generated_Source\PSoC5/cyfitter_cfg.c **** 	CY_SET_XTND_REG8((void CYFAR *)(CYREG_CACHE_CC_CTL), (((CYDEV_INSTRUCT_CACHE_ENABLED) != 0) ? 0x81
 445              		.loc 1 465 0
 446 017a 8122     		movs	r2, #129
ARM GAS  C:\Users\esancho\AppData\Local\Temp\ccLRDo4j.s 			page 18


 447              	.LBB105:
 448              	.LBB77:
 278:Generated_Source\PSoC5/cyfitter_cfg.c **** }
 449              		.loc 1 278 0
 450 017c 43F08003 		orr	r3, r3, #128
 451 0180 2B70     		strb	r3, [r5]
 452              	.LVL29:
 453              	.LBE77:
 454              	.LBE105:
 455              		.loc 1 465 0
 456 0182 2F4B     		ldr	r3, .L22+60
 457 0184 1A70     		strb	r2, [r3]
 466:Generated_Source\PSoC5/cyfitter_cfg.c **** 	CY_SET_XTND_REG8((void CYFAR *)(CYREG_PANTHER_WAITPIPE), 0x01u);
 458              		.loc 1 466 0
 459 0186 03F5F723 		add	r3, r3, #505856
 460 018a 0122     		movs	r2, #1
 461 018c 0433     		adds	r3, r3, #4
 462 018e 1A70     		strb	r2, [r3]
 463              	.LBB106:
 464              	.LBB98:
 303:Generated_Source\PSoC5/cyfitter_cfg.c **** 	uint8 cr4 = CY_GET_XTND_REG8((void CYFAR *)(CYREG_RESET_CR4));
 465              		.loc 1 303 0
 466 0190 344B     		ldr	r3, .L22+96
 306:Generated_Source\PSoC5/cyfitter_cfg.c **** 	CY_SET_XTND_REG8((void CYFAR *)(CYREG_BG_DFT1), ((bg_xover_inl_trim >> 4) & 0x0Fu));
 467              		.loc 1 306 0
 468 0192 354A     		ldr	r2, .L22+100
 303:Generated_Source\PSoC5/cyfitter_cfg.c **** 	uint8 cr4 = CY_GET_XTND_REG8((void CYFAR *)(CYREG_RESET_CR4));
 469              		.loc 1 303 0
 470 0194 1B78     		ldrb	r3, [r3]	@ zero_extendqisi2
 304:Generated_Source\PSoC5/cyfitter_cfg.c **** 	uint8 cr5 = CY_GET_XTND_REG8((void CYFAR *)(CYREG_RESET_CR5));
 471              		.loc 1 304 0
 472 0196 3C78     		ldrb	r4, [r7]	@ zero_extendqisi2
 303:Generated_Source\PSoC5/cyfitter_cfg.c **** 	uint8 cr4 = CY_GET_XTND_REG8((void CYFAR *)(CYREG_RESET_CR4));
 473              		.loc 1 303 0
 474 0198 DBB2     		uxtb	r3, r3
 475              	.LVL30:
 305:Generated_Source\PSoC5/cyfitter_cfg.c **** 	CY_SET_XTND_REG8((void CYFAR *)(CYREG_BG_DFT0), (bg_xover_inl_trim & 0x07u));
 476              		.loc 1 305 0
 477 019a 98F80060 		ldrb	r6, [r8]	@ zero_extendqisi2
 304:Generated_Source\PSoC5/cyfitter_cfg.c **** 	uint8 cr5 = CY_GET_XTND_REG8((void CYFAR *)(CYREG_RESET_CR5));
 478              		.loc 1 304 0
 479 019e E4B2     		uxtb	r4, r4
 480              	.LVL31:
 306:Generated_Source\PSoC5/cyfitter_cfg.c **** 	CY_SET_XTND_REG8((void CYFAR *)(CYREG_BG_DFT1), ((bg_xover_inl_trim >> 4) & 0x0Fu));
 481              		.loc 1 306 0
 482 01a0 03F00701 		and	r1, r3, #7
 307:Generated_Source\PSoC5/cyfitter_cfg.c **** 	/* Disable PRES while setting up SAR voltage reference */
 483              		.loc 1 307 0
 484 01a4 1B09     		lsrs	r3, r3, #4
 485              	.LVL32:
 306:Generated_Source\PSoC5/cyfitter_cfg.c **** 	CY_SET_XTND_REG8((void CYFAR *)(CYREG_BG_DFT1), ((bg_xover_inl_trim >> 4) & 0x0Fu));
 486              		.loc 1 306 0
 487 01a6 1170     		strb	r1, [r2]
 305:Generated_Source\PSoC5/cyfitter_cfg.c **** 	CY_SET_XTND_REG8((void CYFAR *)(CYREG_BG_DFT0), (bg_xover_inl_trim & 0x07u));
 488              		.loc 1 305 0
 489 01a8 F6B2     		uxtb	r6, r6
 490              	.LVL33:
ARM GAS  C:\Users\esancho\AppData\Local\Temp\ccLRDo4j.s 			page 19


 307:Generated_Source\PSoC5/cyfitter_cfg.c **** 	/* Disable PRES while setting up SAR voltage reference */
 491              		.loc 1 307 0
 492 01aa 5370     		strb	r3, [r2, #1]
 309:Generated_Source\PSoC5/cyfitter_cfg.c **** 	CY_SET_XTND_REG8((void CYFAR *)(CYREG_RESET_CR5), (cr5 | 0x03u));
 493              		.loc 1 309 0
 494 01ac 44F00303 		orr	r3, r4, #3
 495 01b0 3B70     		strb	r3, [r7]
 310:Generated_Source\PSoC5/cyfitter_cfg.c **** 	CY_SET_XTND_REG8((void CYFAR *)CYREG_PRT4_AG, 0x0Cu);
 496              		.loc 1 310 0
 497 01b2 46F00303 		orr	r3, r6, #3
 498 01b6 88F80030 		strb	r3, [r8]
 311:Generated_Source\PSoC5/cyfitter_cfg.c **** 	CY_SET_XTND_REG8((void CYFAR *)CYREG_SAR0_CSR1, 0x40u);
 499              		.loc 1 311 0
 500 01ba 2C4B     		ldr	r3, .L22+104
 501 01bc 0C22     		movs	r2, #12
 502 01be 1A70     		strb	r2, [r3]
 312:Generated_Source\PSoC5/cyfitter_cfg.c **** 	CY_SET_XTND_REG8((void CYFAR *)CYREG_SAR0_CSR3, 0x40u);
 503              		.loc 1 312 0
 504 01c0 2B4A     		ldr	r2, .L22+108
 505 01c2 4023     		movs	r3, #64
 506 01c4 1370     		strb	r3, [r2]
 313:Generated_Source\PSoC5/cyfitter_cfg.c **** 	CY_SET_XTND_REG8((void CYFAR *)CYREG_SAR1_CSR1, 0x40u);
 507              		.loc 1 313 0
 508 01c6 9370     		strb	r3, [r2, #2]
 314:Generated_Source\PSoC5/cyfitter_cfg.c **** 	CY_SET_XTND_REG8((void CYFAR *)CYREG_SAR1_CSR3, 0x40u);
 509              		.loc 1 314 0
 510 01c8 1372     		strb	r3, [r2, #8]
 315:Generated_Source\PSoC5/cyfitter_cfg.c **** 	CY_SET_XTND_REG8((void CYFAR *)CYREG_SAR0_SW0, 0x40u);
 511              		.loc 1 315 0
 512 01ca 9372     		strb	r3, [r2, #10]
 316:Generated_Source\PSoC5/cyfitter_cfg.c **** 	CY_SET_XTND_REG8((void CYFAR *)CYREG_SAR0_SW3, 0x20u);
 513              		.loc 1 316 0
 514 01cc 82F81F32 		strb	r3, [r2, #543]
 317:Generated_Source\PSoC5/cyfitter_cfg.c **** 	CY_SET_XTND_REG8((void CYFAR *)CYREG_SAR1_SW0, 0x80u);
 515              		.loc 1 317 0
 516 01d0 284B     		ldr	r3, .L22+112
 318:Generated_Source\PSoC5/cyfitter_cfg.c **** 	CY_SET_XTND_REG8((void CYFAR *)CYREG_SAR1_SW3, 0x20u);
 517              		.loc 1 318 0
 518 01d2 2949     		ldr	r1, .L22+116
 317:Generated_Source\PSoC5/cyfitter_cfg.c **** 	CY_SET_XTND_REG8((void CYFAR *)CYREG_SAR1_SW0, 0x80u);
 519              		.loc 1 317 0
 520 01d4 2022     		movs	r2, #32
 521 01d6 1A70     		strb	r2, [r3]
 318:Generated_Source\PSoC5/cyfitter_cfg.c **** 	CY_SET_XTND_REG8((void CYFAR *)CYREG_SAR1_SW3, 0x20u);
 522              		.loc 1 318 0
 523 01d8 8023     		movs	r3, #128
 524 01da 0B70     		strb	r3, [r1]
 319:Generated_Source\PSoC5/cyfitter_cfg.c **** 	CY_SET_XTND_REG8((void CYFAR *)CYREG_BUS_SW0, 0x80u);
 525              		.loc 1 319 0
 526 01dc CA70     		strb	r2, [r1, #3]
 320:Generated_Source\PSoC5/cyfitter_cfg.c **** 	CyDelayUs(10u); /* Allow vref to settle before re-enabling PRES */
 527              		.loc 1 320 0
 528 01de 274A     		ldr	r2, .L22+120
 529 01e0 1370     		strb	r3, [r2]
 321:Generated_Source\PSoC5/cyfitter_cfg.c **** 	CY_SET_XTND_REG8((void CYFAR *)(CYREG_RESET_CR5), (cr5));
 530              		.loc 1 321 0
 531 01e2 FFF7FEFF 		bl	CyDelayUs
ARM GAS  C:\Users\esancho\AppData\Local\Temp\ccLRDo4j.s 			page 20


 532              	.LVL34:
 324:Generated_Source\PSoC5/cyfitter_cfg.c **** }
 533              		.loc 1 324 0
 534 01e6 264B     		ldr	r3, .L22+124
 322:Generated_Source\PSoC5/cyfitter_cfg.c **** 	CY_SET_XTND_REG8((void CYFAR *)(CYREG_RESET_CR4), (cr4));
 535              		.loc 1 322 0
 536 01e8 88F80060 		strb	r6, [r8]
 324:Generated_Source\PSoC5/cyfitter_cfg.c **** }
 537              		.loc 1 324 0
 538 01ec 4422     		movs	r2, #68
 323:Generated_Source\PSoC5/cyfitter_cfg.c **** 	CY_SET_XTND_REG8((void CYFAR *)CYREG_PUMP_CR0, 0x44u);
 539              		.loc 1 323 0
 540 01ee 3C70     		strb	r4, [r7]
 541              	.LBE98:
 542              	.LBE106:
 543              	.LBB107:
 544              	.LBB108:
  86:Generated_Source\PSoC5/cyfitter_cfg.c **** }
 545              		.loc 1 86 0
 546 01f0 244C     		ldr	r4, .L22+128
 547              	.LVL35:
 548              	.LBE108:
 549              	.LBE107:
 550              	.LBB110:
 551              	.LBB99:
 324:Generated_Source\PSoC5/cyfitter_cfg.c **** }
 552              		.loc 1 324 0
 553 01f2 1A70     		strb	r2, [r3]
 554              	.LVL36:
 555              	.LBE99:
 556              	.LBE110:
 557              	.LBB111:
 558              	.LBB109:
  86:Generated_Source\PSoC5/cyfitter_cfg.c **** }
 559              		.loc 1 86 0
 560 01f4 95E80F00 		ldmia	r5, {r0, r1, r2, r3}
 561 01f8 07C4     		stmia	r4!, {r0, r1, r2}
 562 01fa 2380     		strh	r3, [r4]	@ movhi
 563              	.LVL37:
 564 01fc BDE8F081 		pop	{r4, r5, r6, r7, r8, pc}
 565              	.LVL38:
 566              	.L12:
 567 0200 FEE7     		b	.L12
 568              	.L23:
 569 0202 00BF     		.align	2
 570              	.L22:
 571 0204 E8460040 		.word	1073759976
 572 0208 00000000 		.word	.LANCHOR0
 573 020c 20520040 		.word	1073762848
 574 0210 5C020048 		.word	1207960156
 575 0214 5C000048 		.word	1207959644
 576 0218 FCFFFF47 		.word	1207959548
 577 021c 03500140 		.word	1073827843
 578 0220 A0430040 		.word	1073759136
 579 0224 25420040 		.word	1073758757
 580 0228 64020048 		.word	1207960164
 581 022c C0510040 		.word	1073762752
ARM GAS  C:\Users\esancho\AppData\Local\Temp\ccLRDo4j.s 			page 21


 582 0230 70020048 		.word	1207960176
 583 0234 12510040 		.word	1073762578
 584 0238 78020048 		.word	1207960184
 585 023c 22430040 		.word	1073759010
 586 0240 00480040 		.word	1073760256
 587 0244 00430040 		.word	1073758976
 588 0248 08010049 		.word	1224737032
 589 024c A1460040 		.word	1073759905
 590 0250 22420040 		.word	1073758754
 591 0254 04400040 		.word	1073758212
 592 0258 06400040 		.word	1073758214
 593 025c A2430040 		.word	1073759138
 594 0260 F8460040 		.word	1073759992
 595 0264 CF010049 		.word	1224737231
 596 0268 6E580040 		.word	1073764462
 597 026c 4D510040 		.word	1073762637
 598 0270 01590040 		.word	1073764609
 599 0274 235B0040 		.word	1073765155
 600 0278 285B0040 		.word	1073765160
 601 027c 585B0040 		.word	1073765208
 602 0280 76580040 		.word	1073764470
 603 0284 B0430040 		.word	1073759152
 604 0288 F9460040 		.word	1073759993
 605              	.LBE109:
 606              	.LBE111:
 607              		.cfi_endproc
 608              	.LFE8:
 609              		.size	cyfitter_cfg, .-cyfitter_cfg
 610              		.section	.rodata
 611              		.set	.LANCHOR0,. + 0
 612              		.type	cfg_memset_list.5020, %object
 613              		.size	cfg_memset_list.5020, 54
 614              	cfg_memset_list.5020:
 615 0000 00510040 		.4byte	1073762560
 616 0004 1000     		.2byte	16
 617 0006 20510040 		.4byte	1073762592
 618 000a 2000     		.2byte	32
 619 000c 50510040 		.4byte	1073762640
 620 0010 2000     		.2byte	32
 621 0012 F0510040 		.4byte	1073762800
 622 0016 1000     		.2byte	16
 623 0018 00000140 		.4byte	1073807360
 624 001c 0010     		.2byte	4096
 625 001e 00140140 		.4byte	1073812480
 626 0022 0008     		.2byte	2048
 627 0024 00400140 		.4byte	1073823744
 628 0028 000A     		.2byte	2560
 629 002a 004C0140 		.4byte	1073826816
 630 002e 0002     		.2byte	512
 631 0030 00500140 		.4byte	1073827840
 632 0034 2000     		.2byte	32
 633              		.text
 634              	.Letext0:
 635              		.file 2 "c:\\program files (x86)\\cypress\\psoc creator\\4.2\\psoc creator\\import\\gnu\\arm\\5.4.
 636              		.file 3 "Generated_Source\\PSoC5\\cytypes.h"
 637              		.file 4 "Generated_Source\\PSoC5\\CyLib.h"