ARM GAS  C:\Users\emman\AppData\Local\Temp\cc6b9iKy.s 			page 1


   1              		.syntax unified
   2              		.cpu cortex-m3
   3              		.fpu softvfp
   4              		.eabi_attribute 20, 1
   5              		.eabi_attribute 21, 1
   6              		.eabi_attribute 23, 3
   7              		.eabi_attribute 24, 1
   8              		.eabi_attribute 25, 1
   9              		.eabi_attribute 26, 1
  10              		.eabi_attribute 30, 4
  11              		.eabi_attribute 34, 1
  12              		.eabi_attribute 18, 4
  13              		.thumb
  14              		.syntax unified
  15              		.file	"LCD.c"
  16              		.text
  17              	.Ltext0:
  18              		.cfi_sections	.debug_frame
  19              		.section	.text.LCD_WrCntrlNib,"ax",%progbits
  20              		.align	1
  21              		.thumb
  22              		.thumb_func
  23              		.type	LCD_WrCntrlNib, %function
  24              	LCD_WrCntrlNib:
  25              	.LFB11:
  26              		.file 1 "Generated_Source\\PSoC5\\LCD.c"
   1:Generated_Source\PSoC5/LCD.c **** /*******************************************************************************
   2:Generated_Source\PSoC5/LCD.c **** * File Name: LCD.c
   3:Generated_Source\PSoC5/LCD.c **** * Version 2.20
   4:Generated_Source\PSoC5/LCD.c **** *
   5:Generated_Source\PSoC5/LCD.c **** * Description:
   6:Generated_Source\PSoC5/LCD.c **** *  This file provides source code for the Character LCD component's API.
   7:Generated_Source\PSoC5/LCD.c **** *
   8:Generated_Source\PSoC5/LCD.c **** * Note:
   9:Generated_Source\PSoC5/LCD.c **** *
  10:Generated_Source\PSoC5/LCD.c **** ********************************************************************************
  11:Generated_Source\PSoC5/LCD.c **** * Copyright 2008-2014, Cypress Semiconductor Corporation.  All rights reserved.
  12:Generated_Source\PSoC5/LCD.c **** * You may use this file only in accordance with the license, terms, conditions,
  13:Generated_Source\PSoC5/LCD.c **** * disclaimers, and limitations in the end user license agreement accompanying
  14:Generated_Source\PSoC5/LCD.c **** * the software package with which this file was provided.
  15:Generated_Source\PSoC5/LCD.c **** *******************************************************************************/
  16:Generated_Source\PSoC5/LCD.c **** 
  17:Generated_Source\PSoC5/LCD.c **** #include "CyLib.h"
  18:Generated_Source\PSoC5/LCD.c **** #include "LCD.h"
  19:Generated_Source\PSoC5/LCD.c **** 
  20:Generated_Source\PSoC5/LCD.c **** 
  21:Generated_Source\PSoC5/LCD.c **** static void LCD_WrDatNib(uint8 nibble) ;
  22:Generated_Source\PSoC5/LCD.c **** static void LCD_WrCntrlNib(uint8 nibble) ;
  23:Generated_Source\PSoC5/LCD.c **** 
  24:Generated_Source\PSoC5/LCD.c **** /* Stores state of component. Indicates whether component is or not
  25:Generated_Source\PSoC5/LCD.c **** * in enable state.
  26:Generated_Source\PSoC5/LCD.c **** */
  27:Generated_Source\PSoC5/LCD.c **** uint8 LCD_enableState = 0u;
  28:Generated_Source\PSoC5/LCD.c **** 
  29:Generated_Source\PSoC5/LCD.c **** uint8 LCD_initVar = 0u;
  30:Generated_Source\PSoC5/LCD.c **** 
  31:Generated_Source\PSoC5/LCD.c **** 
ARM GAS  C:\Users\emman\AppData\Local\Temp\cc6b9iKy.s 			page 2


  32:Generated_Source\PSoC5/LCD.c **** /*******************************************************************************
  33:Generated_Source\PSoC5/LCD.c **** * Function Name: LCD_Init
  34:Generated_Source\PSoC5/LCD.c **** ********************************************************************************
  35:Generated_Source\PSoC5/LCD.c **** *
  36:Generated_Source\PSoC5/LCD.c **** * Summary:
  37:Generated_Source\PSoC5/LCD.c **** *  Performs initialization required for the components normal work.
  38:Generated_Source\PSoC5/LCD.c **** *  This function initializes the LCD hardware module as follows:
  39:Generated_Source\PSoC5/LCD.c **** *        Enables a 4-bit interface
  40:Generated_Source\PSoC5/LCD.c **** *        Clears the display
  41:Generated_Source\PSoC5/LCD.c **** *        Enables the auto cursor increment
  42:Generated_Source\PSoC5/LCD.c **** *        Resets the cursor to start position
  43:Generated_Source\PSoC5/LCD.c **** *  Also, it loads a custom character set to the LCD if it was defined in the customizer.
  44:Generated_Source\PSoC5/LCD.c **** *
  45:Generated_Source\PSoC5/LCD.c **** * Parameters:
  46:Generated_Source\PSoC5/LCD.c **** *  None.
  47:Generated_Source\PSoC5/LCD.c **** *
  48:Generated_Source\PSoC5/LCD.c **** * Return:
  49:Generated_Source\PSoC5/LCD.c **** *  None.
  50:Generated_Source\PSoC5/LCD.c **** *
  51:Generated_Source\PSoC5/LCD.c **** * Reentrant:
  52:Generated_Source\PSoC5/LCD.c **** *  No.
  53:Generated_Source\PSoC5/LCD.c **** *
  54:Generated_Source\PSoC5/LCD.c **** *******************************************************************************/
  55:Generated_Source\PSoC5/LCD.c **** void LCD_Init(void) 
  56:Generated_Source\PSoC5/LCD.c **** {
  57:Generated_Source\PSoC5/LCD.c ****     /* INIT CODE */
  58:Generated_Source\PSoC5/LCD.c ****     CyDelay(40u);                                                        /* Delay 40 ms */
  59:Generated_Source\PSoC5/LCD.c ****     LCD_WrCntrlNib(LCD_DISPLAY_8_BIT_INIT);    /* Selects 8-bit mode */
  60:Generated_Source\PSoC5/LCD.c ****     CyDelay(5u);                                                         /* Delay 5 ms */
  61:Generated_Source\PSoC5/LCD.c ****     LCD_WrCntrlNib(LCD_DISPLAY_8_BIT_INIT);    /* Selects 8-bit mode */
  62:Generated_Source\PSoC5/LCD.c ****     CyDelay(15u);                                                        /* Delay 15 ms */
  63:Generated_Source\PSoC5/LCD.c ****     LCD_WrCntrlNib(LCD_DISPLAY_8_BIT_INIT);    /* Selects 8-bit mode */
  64:Generated_Source\PSoC5/LCD.c ****     CyDelay(1u);                                                         /* Delay 1 ms */
  65:Generated_Source\PSoC5/LCD.c ****     LCD_WrCntrlNib(LCD_DISPLAY_4_BIT_INIT);    /* Selects 4-bit mode */
  66:Generated_Source\PSoC5/LCD.c ****     CyDelay(5u);                                                         /* Delay 5 ms */
  67:Generated_Source\PSoC5/LCD.c **** 
  68:Generated_Source\PSoC5/LCD.c ****     LCD_WriteControl(LCD_CURSOR_AUTO_INCR_ON);    /* Incr Cursor After Writes */
  69:Generated_Source\PSoC5/LCD.c ****     LCD_WriteControl(LCD_DISPLAY_CURSOR_ON);      /* Turn Display, Cursor ON */
  70:Generated_Source\PSoC5/LCD.c ****     LCD_WriteControl(LCD_DISPLAY_2_LINES_5x10);   /* 2 Lines by 5x10 Characters */
  71:Generated_Source\PSoC5/LCD.c ****     LCD_WriteControl(LCD_DISPLAY_CURSOR_OFF);     /* Turn Display, Cursor OFF */
  72:Generated_Source\PSoC5/LCD.c ****     LCD_WriteControl(LCD_CLEAR_DISPLAY);          /* Clear LCD Screen */
  73:Generated_Source\PSoC5/LCD.c ****     LCD_WriteControl(LCD_DISPLAY_ON_CURSOR_OFF);  /* Turn Display ON, Cursor OFF */
  74:Generated_Source\PSoC5/LCD.c ****     LCD_WriteControl(LCD_RESET_CURSOR_POSITION);  /* Set Cursor to 0,0 */
  75:Generated_Source\PSoC5/LCD.c ****     CyDelay(5u);
  76:Generated_Source\PSoC5/LCD.c **** 
  77:Generated_Source\PSoC5/LCD.c ****     #if(LCD_CUSTOM_CHAR_SET != LCD_NONE)
  78:Generated_Source\PSoC5/LCD.c ****         LCD_LoadCustomFonts(LCD_customFonts);
  79:Generated_Source\PSoC5/LCD.c ****     #endif /* LCD_CUSTOM_CHAR_SET != LCD_NONE */
  80:Generated_Source\PSoC5/LCD.c **** }
  81:Generated_Source\PSoC5/LCD.c **** 
  82:Generated_Source\PSoC5/LCD.c **** 
  83:Generated_Source\PSoC5/LCD.c **** /*******************************************************************************
  84:Generated_Source\PSoC5/LCD.c **** * Function Name: LCD_Enable
  85:Generated_Source\PSoC5/LCD.c **** ********************************************************************************
  86:Generated_Source\PSoC5/LCD.c **** *
  87:Generated_Source\PSoC5/LCD.c **** * Summary:
  88:Generated_Source\PSoC5/LCD.c **** *  Turns on the display.
ARM GAS  C:\Users\emman\AppData\Local\Temp\cc6b9iKy.s 			page 3


  89:Generated_Source\PSoC5/LCD.c **** *
  90:Generated_Source\PSoC5/LCD.c **** * Parameters:
  91:Generated_Source\PSoC5/LCD.c **** *  None.
  92:Generated_Source\PSoC5/LCD.c **** *
  93:Generated_Source\PSoC5/LCD.c **** * Return:
  94:Generated_Source\PSoC5/LCD.c **** *  None.
  95:Generated_Source\PSoC5/LCD.c **** *
  96:Generated_Source\PSoC5/LCD.c **** * Reentrant:
  97:Generated_Source\PSoC5/LCD.c **** *  No.
  98:Generated_Source\PSoC5/LCD.c **** *
  99:Generated_Source\PSoC5/LCD.c **** * Theory:
 100:Generated_Source\PSoC5/LCD.c **** *  This function has no effect when it is called the first time as
 101:Generated_Source\PSoC5/LCD.c **** *  LCD_Init() turns on the LCD.
 102:Generated_Source\PSoC5/LCD.c **** *
 103:Generated_Source\PSoC5/LCD.c **** *******************************************************************************/
 104:Generated_Source\PSoC5/LCD.c **** void LCD_Enable(void) 
 105:Generated_Source\PSoC5/LCD.c **** {
 106:Generated_Source\PSoC5/LCD.c ****     LCD_DisplayOn();
 107:Generated_Source\PSoC5/LCD.c ****     LCD_enableState = 1u;
 108:Generated_Source\PSoC5/LCD.c **** }
 109:Generated_Source\PSoC5/LCD.c **** 
 110:Generated_Source\PSoC5/LCD.c **** 
 111:Generated_Source\PSoC5/LCD.c **** /*******************************************************************************
 112:Generated_Source\PSoC5/LCD.c **** * Function Name: LCD_Start
 113:Generated_Source\PSoC5/LCD.c **** ********************************************************************************
 114:Generated_Source\PSoC5/LCD.c **** *
 115:Generated_Source\PSoC5/LCD.c **** * Summary:
 116:Generated_Source\PSoC5/LCD.c **** *  Performs initialization required for the components normal work.
 117:Generated_Source\PSoC5/LCD.c **** *  This function initializes the LCD hardware module as follows:
 118:Generated_Source\PSoC5/LCD.c **** *        Enables 4-bit interface
 119:Generated_Source\PSoC5/LCD.c **** *        Clears the display
 120:Generated_Source\PSoC5/LCD.c **** *        Enables auto cursor increment
 121:Generated_Source\PSoC5/LCD.c **** *        Resets the cursor to start position
 122:Generated_Source\PSoC5/LCD.c **** *  Also, it loads a custom character set to the LCD if it was defined in the customizer.
 123:Generated_Source\PSoC5/LCD.c **** *  If it was not the first call in this project, then it just turns on the
 124:Generated_Source\PSoC5/LCD.c **** *  display
 125:Generated_Source\PSoC5/LCD.c **** *
 126:Generated_Source\PSoC5/LCD.c **** *
 127:Generated_Source\PSoC5/LCD.c **** * Parameters:
 128:Generated_Source\PSoC5/LCD.c **** *  LCD_initVar - global variable.
 129:Generated_Source\PSoC5/LCD.c **** *
 130:Generated_Source\PSoC5/LCD.c **** * Return:
 131:Generated_Source\PSoC5/LCD.c **** *  LCD_initVar - global variable.
 132:Generated_Source\PSoC5/LCD.c **** *
 133:Generated_Source\PSoC5/LCD.c **** * Reentrant:
 134:Generated_Source\PSoC5/LCD.c **** *  No.
 135:Generated_Source\PSoC5/LCD.c **** *
 136:Generated_Source\PSoC5/LCD.c **** *******************************************************************************/
 137:Generated_Source\PSoC5/LCD.c **** void LCD_Start(void) 
 138:Generated_Source\PSoC5/LCD.c **** {
 139:Generated_Source\PSoC5/LCD.c ****     /* If not initialized, perform initialization */
 140:Generated_Source\PSoC5/LCD.c ****     if(LCD_initVar == 0u)
 141:Generated_Source\PSoC5/LCD.c ****     {
 142:Generated_Source\PSoC5/LCD.c ****         LCD_Init();
 143:Generated_Source\PSoC5/LCD.c ****         LCD_initVar = 1u;
 144:Generated_Source\PSoC5/LCD.c ****     }
 145:Generated_Source\PSoC5/LCD.c **** 
ARM GAS  C:\Users\emman\AppData\Local\Temp\cc6b9iKy.s 			page 4


 146:Generated_Source\PSoC5/LCD.c ****     /* Turn on the LCD */
 147:Generated_Source\PSoC5/LCD.c ****     LCD_Enable();
 148:Generated_Source\PSoC5/LCD.c **** }
 149:Generated_Source\PSoC5/LCD.c **** 
 150:Generated_Source\PSoC5/LCD.c **** 
 151:Generated_Source\PSoC5/LCD.c **** /*******************************************************************************
 152:Generated_Source\PSoC5/LCD.c **** * Function Name: LCD_Stop
 153:Generated_Source\PSoC5/LCD.c **** ********************************************************************************
 154:Generated_Source\PSoC5/LCD.c **** *
 155:Generated_Source\PSoC5/LCD.c **** * Summary:
 156:Generated_Source\PSoC5/LCD.c **** *  Turns off the display of the LCD screen.
 157:Generated_Source\PSoC5/LCD.c **** *
 158:Generated_Source\PSoC5/LCD.c **** * Parameters:
 159:Generated_Source\PSoC5/LCD.c **** *  None.
 160:Generated_Source\PSoC5/LCD.c **** *
 161:Generated_Source\PSoC5/LCD.c **** * Return:
 162:Generated_Source\PSoC5/LCD.c **** *  None.
 163:Generated_Source\PSoC5/LCD.c **** *
 164:Generated_Source\PSoC5/LCD.c **** * Reentrant:
 165:Generated_Source\PSoC5/LCD.c **** *  No.
 166:Generated_Source\PSoC5/LCD.c **** *
 167:Generated_Source\PSoC5/LCD.c **** *******************************************************************************/
 168:Generated_Source\PSoC5/LCD.c **** void LCD_Stop(void) 
 169:Generated_Source\PSoC5/LCD.c **** {
 170:Generated_Source\PSoC5/LCD.c ****     /* Calls LCD Off Macro */
 171:Generated_Source\PSoC5/LCD.c ****     LCD_DisplayOff();
 172:Generated_Source\PSoC5/LCD.c ****     LCD_enableState = 0u;
 173:Generated_Source\PSoC5/LCD.c **** }
 174:Generated_Source\PSoC5/LCD.c **** 
 175:Generated_Source\PSoC5/LCD.c **** 
 176:Generated_Source\PSoC5/LCD.c **** /*******************************************************************************
 177:Generated_Source\PSoC5/LCD.c **** *  Function Name: LCD_Position
 178:Generated_Source\PSoC5/LCD.c **** ********************************************************************************
 179:Generated_Source\PSoC5/LCD.c **** *
 180:Generated_Source\PSoC5/LCD.c **** * Summary:
 181:Generated_Source\PSoC5/LCD.c **** *  Moves the active cursor location to a point specified by the input arguments
 182:Generated_Source\PSoC5/LCD.c **** *
 183:Generated_Source\PSoC5/LCD.c **** * Parameters:
 184:Generated_Source\PSoC5/LCD.c **** *  row:    Specific row of LCD module to be written
 185:Generated_Source\PSoC5/LCD.c **** *  column: Column of LCD module to be written
 186:Generated_Source\PSoC5/LCD.c **** *
 187:Generated_Source\PSoC5/LCD.c **** * Return:
 188:Generated_Source\PSoC5/LCD.c **** *  None.
 189:Generated_Source\PSoC5/LCD.c **** *
 190:Generated_Source\PSoC5/LCD.c **** * Note:
 191:Generated_Source\PSoC5/LCD.c **** *  This only applies for LCD displays that use the 2X40 address mode.
 192:Generated_Source\PSoC5/LCD.c **** *  In this case Row 2 starts with a 0x28 offset from Row 1.
 193:Generated_Source\PSoC5/LCD.c **** *  When there are more than 2 rows, each row must be fewer than 20 characters.
 194:Generated_Source\PSoC5/LCD.c **** *
 195:Generated_Source\PSoC5/LCD.c **** *******************************************************************************/
 196:Generated_Source\PSoC5/LCD.c **** void LCD_Position(uint8 row, uint8 column) 
 197:Generated_Source\PSoC5/LCD.c **** {
 198:Generated_Source\PSoC5/LCD.c ****     switch (row)
 199:Generated_Source\PSoC5/LCD.c ****     {
 200:Generated_Source\PSoC5/LCD.c ****         case (uint8)0:
 201:Generated_Source\PSoC5/LCD.c ****             LCD_WriteControl(LCD_ROW_0_START + column);
 202:Generated_Source\PSoC5/LCD.c ****             break;
ARM GAS  C:\Users\emman\AppData\Local\Temp\cc6b9iKy.s 			page 5


 203:Generated_Source\PSoC5/LCD.c ****         case (uint8) 1:
 204:Generated_Source\PSoC5/LCD.c ****             LCD_WriteControl(LCD_ROW_1_START + column);
 205:Generated_Source\PSoC5/LCD.c ****             break;
 206:Generated_Source\PSoC5/LCD.c ****         case (uint8) 2:
 207:Generated_Source\PSoC5/LCD.c ****             LCD_WriteControl(LCD_ROW_2_START + column);
 208:Generated_Source\PSoC5/LCD.c ****             break;
 209:Generated_Source\PSoC5/LCD.c ****         case (uint8) 3:
 210:Generated_Source\PSoC5/LCD.c ****             LCD_WriteControl(LCD_ROW_3_START + column);
 211:Generated_Source\PSoC5/LCD.c ****             break;
 212:Generated_Source\PSoC5/LCD.c ****         default:
 213:Generated_Source\PSoC5/LCD.c ****             /* if default case is hit, invalid row argument was passed.*/
 214:Generated_Source\PSoC5/LCD.c ****             break;
 215:Generated_Source\PSoC5/LCD.c ****     }
 216:Generated_Source\PSoC5/LCD.c **** }
 217:Generated_Source\PSoC5/LCD.c **** 
 218:Generated_Source\PSoC5/LCD.c **** 
 219:Generated_Source\PSoC5/LCD.c **** /*******************************************************************************
 220:Generated_Source\PSoC5/LCD.c **** * Function Name: LCD_PrintString
 221:Generated_Source\PSoC5/LCD.c **** ********************************************************************************
 222:Generated_Source\PSoC5/LCD.c **** *
 223:Generated_Source\PSoC5/LCD.c **** * Summary:
 224:Generated_Source\PSoC5/LCD.c **** *  Writes a zero terminated string to the LCD.
 225:Generated_Source\PSoC5/LCD.c **** *
 226:Generated_Source\PSoC5/LCD.c **** * Parameters:
 227:Generated_Source\PSoC5/LCD.c **** *  string: Pointer to head of char8 array to be written to the LCD module
 228:Generated_Source\PSoC5/LCD.c **** *
 229:Generated_Source\PSoC5/LCD.c **** * Return:
 230:Generated_Source\PSoC5/LCD.c **** *  None.
 231:Generated_Source\PSoC5/LCD.c **** *
 232:Generated_Source\PSoC5/LCD.c **** *******************************************************************************/
 233:Generated_Source\PSoC5/LCD.c **** void LCD_PrintString(char8 const string[]) 
 234:Generated_Source\PSoC5/LCD.c **** {
 235:Generated_Source\PSoC5/LCD.c ****     uint8 indexU8 = 1u;
 236:Generated_Source\PSoC5/LCD.c ****     char8 current = *string;
 237:Generated_Source\PSoC5/LCD.c **** 
 238:Generated_Source\PSoC5/LCD.c ****     /* Until null is reached, print next character */
 239:Generated_Source\PSoC5/LCD.c ****     while((char8) '\0' != current)
 240:Generated_Source\PSoC5/LCD.c ****     {
 241:Generated_Source\PSoC5/LCD.c ****         LCD_WriteData((uint8)current);
 242:Generated_Source\PSoC5/LCD.c ****         current = string[indexU8];
 243:Generated_Source\PSoC5/LCD.c ****         indexU8++;
 244:Generated_Source\PSoC5/LCD.c ****     }
 245:Generated_Source\PSoC5/LCD.c **** }
 246:Generated_Source\PSoC5/LCD.c **** 
 247:Generated_Source\PSoC5/LCD.c **** 
 248:Generated_Source\PSoC5/LCD.c **** /*******************************************************************************
 249:Generated_Source\PSoC5/LCD.c **** *  Function Name: LCD_PutChar
 250:Generated_Source\PSoC5/LCD.c **** ********************************************************************************
 251:Generated_Source\PSoC5/LCD.c **** *
 252:Generated_Source\PSoC5/LCD.c **** * Summary:
 253:Generated_Source\PSoC5/LCD.c **** *  Writes a single character to the current cursor position of the LCD module.
 254:Generated_Source\PSoC5/LCD.c **** *  Custom character names (_CUSTOM_0 through
 255:Generated_Source\PSoC5/LCD.c **** *  _CUSTOM_7) are acceptable as inputs.
 256:Generated_Source\PSoC5/LCD.c **** *
 257:Generated_Source\PSoC5/LCD.c **** * Parameters:
 258:Generated_Source\PSoC5/LCD.c **** *  character: Character to be written to LCD
 259:Generated_Source\PSoC5/LCD.c **** *
ARM GAS  C:\Users\emman\AppData\Local\Temp\cc6b9iKy.s 			page 6


 260:Generated_Source\PSoC5/LCD.c **** * Return:
 261:Generated_Source\PSoC5/LCD.c **** *  None.
 262:Generated_Source\PSoC5/LCD.c **** *
 263:Generated_Source\PSoC5/LCD.c **** *******************************************************************************/
 264:Generated_Source\PSoC5/LCD.c **** void LCD_PutChar(char8 character) 
 265:Generated_Source\PSoC5/LCD.c **** {
 266:Generated_Source\PSoC5/LCD.c ****     LCD_WriteData((uint8)character);
 267:Generated_Source\PSoC5/LCD.c **** }
 268:Generated_Source\PSoC5/LCD.c **** 
 269:Generated_Source\PSoC5/LCD.c **** 
 270:Generated_Source\PSoC5/LCD.c **** /*******************************************************************************
 271:Generated_Source\PSoC5/LCD.c **** *  Function Name: LCD_WriteData
 272:Generated_Source\PSoC5/LCD.c **** ********************************************************************************
 273:Generated_Source\PSoC5/LCD.c **** *
 274:Generated_Source\PSoC5/LCD.c **** * Summary:
 275:Generated_Source\PSoC5/LCD.c **** *  Writes a data byte to the LCD module's Data Display RAM.
 276:Generated_Source\PSoC5/LCD.c **** *
 277:Generated_Source\PSoC5/LCD.c **** * Parameters:
 278:Generated_Source\PSoC5/LCD.c **** *  dByte: Byte to be written to the LCD module
 279:Generated_Source\PSoC5/LCD.c **** *
 280:Generated_Source\PSoC5/LCD.c **** * Return:
 281:Generated_Source\PSoC5/LCD.c **** *  None.
 282:Generated_Source\PSoC5/LCD.c **** *
 283:Generated_Source\PSoC5/LCD.c **** *******************************************************************************/
 284:Generated_Source\PSoC5/LCD.c **** void LCD_WriteData(uint8 dByte) 
 285:Generated_Source\PSoC5/LCD.c **** {
 286:Generated_Source\PSoC5/LCD.c ****     uint8 nibble;
 287:Generated_Source\PSoC5/LCD.c **** 
 288:Generated_Source\PSoC5/LCD.c ****     LCD_IsReady();
 289:Generated_Source\PSoC5/LCD.c ****     nibble = dByte >> LCD_NIBBLE_SHIFT;
 290:Generated_Source\PSoC5/LCD.c **** 
 291:Generated_Source\PSoC5/LCD.c ****     /* Write high nibble */
 292:Generated_Source\PSoC5/LCD.c ****     LCD_WrDatNib(nibble);
 293:Generated_Source\PSoC5/LCD.c **** 
 294:Generated_Source\PSoC5/LCD.c ****     nibble = dByte & LCD_NIBBLE_MASK;
 295:Generated_Source\PSoC5/LCD.c ****     /* Write low nibble */
 296:Generated_Source\PSoC5/LCD.c ****     LCD_WrDatNib(nibble);
 297:Generated_Source\PSoC5/LCD.c **** }
 298:Generated_Source\PSoC5/LCD.c **** 
 299:Generated_Source\PSoC5/LCD.c **** 
 300:Generated_Source\PSoC5/LCD.c **** /*******************************************************************************
 301:Generated_Source\PSoC5/LCD.c **** *  Function Name: LCD_WriteControl
 302:Generated_Source\PSoC5/LCD.c **** ********************************************************************************
 303:Generated_Source\PSoC5/LCD.c **** *
 304:Generated_Source\PSoC5/LCD.c **** * Summary:
 305:Generated_Source\PSoC5/LCD.c **** *  Writes a command byte to the LCD module.
 306:Generated_Source\PSoC5/LCD.c **** *
 307:Generated_Source\PSoC5/LCD.c **** * Parameters:
 308:Generated_Source\PSoC5/LCD.c **** *  cByte:  The byte to be written to theLCD module
 309:Generated_Source\PSoC5/LCD.c **** * 
 310:Generated_Source\PSoC5/LCD.c **** * Return:
 311:Generated_Source\PSoC5/LCD.c **** *  None.
 312:Generated_Source\PSoC5/LCD.c **** *
 313:Generated_Source\PSoC5/LCD.c **** *******************************************************************************/
 314:Generated_Source\PSoC5/LCD.c **** void LCD_WriteControl(uint8 cByte) 
 315:Generated_Source\PSoC5/LCD.c **** {
 316:Generated_Source\PSoC5/LCD.c ****     uint8 nibble;
ARM GAS  C:\Users\emman\AppData\Local\Temp\cc6b9iKy.s 			page 7


 317:Generated_Source\PSoC5/LCD.c **** 
 318:Generated_Source\PSoC5/LCD.c ****     LCD_IsReady();
 319:Generated_Source\PSoC5/LCD.c **** 
 320:Generated_Source\PSoC5/LCD.c ****     nibble = cByte >> LCD_NIBBLE_SHIFT;
 321:Generated_Source\PSoC5/LCD.c ****     
 322:Generated_Source\PSoC5/LCD.c ****     /* WrCntrlNib(High Nibble) */
 323:Generated_Source\PSoC5/LCD.c ****     LCD_WrCntrlNib(nibble);
 324:Generated_Source\PSoC5/LCD.c ****     nibble = cByte & LCD_NIBBLE_MASK;
 325:Generated_Source\PSoC5/LCD.c **** 
 326:Generated_Source\PSoC5/LCD.c ****     /* WrCntrlNib(Low Nibble) */
 327:Generated_Source\PSoC5/LCD.c ****     LCD_WrCntrlNib(nibble);
 328:Generated_Source\PSoC5/LCD.c **** }
 329:Generated_Source\PSoC5/LCD.c **** 
 330:Generated_Source\PSoC5/LCD.c **** 
 331:Generated_Source\PSoC5/LCD.c **** /*******************************************************************************
 332:Generated_Source\PSoC5/LCD.c **** * Function Name: LCD_IsReady
 333:Generated_Source\PSoC5/LCD.c **** ********************************************************************************
 334:Generated_Source\PSoC5/LCD.c **** *
 335:Generated_Source\PSoC5/LCD.c **** * Summary:
 336:Generated_Source\PSoC5/LCD.c **** *  Polls the LCD until the ready bit is set or a timeout occurs.
 337:Generated_Source\PSoC5/LCD.c **** *
 338:Generated_Source\PSoC5/LCD.c **** * Parameters:
 339:Generated_Source\PSoC5/LCD.c **** *  None.
 340:Generated_Source\PSoC5/LCD.c **** *
 341:Generated_Source\PSoC5/LCD.c **** * Return:
 342:Generated_Source\PSoC5/LCD.c **** *  None.
 343:Generated_Source\PSoC5/LCD.c **** *
 344:Generated_Source\PSoC5/LCD.c **** * Note:
 345:Generated_Source\PSoC5/LCD.c **** *  Changes the pins to High-Z.
 346:Generated_Source\PSoC5/LCD.c **** *
 347:Generated_Source\PSoC5/LCD.c **** *******************************************************************************/
 348:Generated_Source\PSoC5/LCD.c **** void LCD_IsReady(void) 
 349:Generated_Source\PSoC5/LCD.c **** {
 350:Generated_Source\PSoC5/LCD.c ****     uint8 value;
 351:Generated_Source\PSoC5/LCD.c ****     uint32 timeout;
 352:Generated_Source\PSoC5/LCD.c ****     timeout = LCD_READY_DELAY;
 353:Generated_Source\PSoC5/LCD.c **** 
 354:Generated_Source\PSoC5/LCD.c ****     /* Clear LCD port*/
 355:Generated_Source\PSoC5/LCD.c ****     LCD_PORT_DR_REG &= ((uint8)(~LCD_PORT_MASK));
 356:Generated_Source\PSoC5/LCD.c **** 
 357:Generated_Source\PSoC5/LCD.c ****     /* PSoC4 has a little different from PSoC3/5 port/pin organization for setting Drive Modes.
 358:Generated_Source\PSoC5/LCD.c ****   
 359:Generated_Source\PSoC5/LCD.c ****     */
 360:Generated_Source\PSoC5/LCD.c ****     #if (CY_PSOC4)
 361:Generated_Source\PSoC5/LCD.c ****         
 362:Generated_Source\PSoC5/LCD.c ****         /* Mask off data pins to clear old values out */
 363:Generated_Source\PSoC5/LCD.c ****         value = LCD_PORT_PC_REG & ((uint32) (~ LCD_DM_DATA_MASK));
 364:Generated_Source\PSoC5/LCD.c ****         /* Load in high Z values for data pins, others unchanged */
 365:Generated_Source\PSoC5/LCD.c ****         LCD_PORT_PC_REG = value | LCD_HIGH_Z_DATA_DM;
 366:Generated_Source\PSoC5/LCD.c **** 
 367:Generated_Source\PSoC5/LCD.c ****     #else
 368:Generated_Source\PSoC5/LCD.c ****     
 369:Generated_Source\PSoC5/LCD.c ****         /* Change Port to High-Z Status on data pins */
 370:Generated_Source\PSoC5/LCD.c **** 
 371:Generated_Source\PSoC5/LCD.c ****         /* Mask off data pins to clear old values out */
 372:Generated_Source\PSoC5/LCD.c ****         value = LCD_PORT_DM0_REG & ((uint8)(~LCD_DATA_MASK));
 373:Generated_Source\PSoC5/LCD.c ****         /* Load in high Z values for data pins, others unchanged */
ARM GAS  C:\Users\emman\AppData\Local\Temp\cc6b9iKy.s 			page 8


 374:Generated_Source\PSoC5/LCD.c ****         LCD_PORT_DM0_REG = value | (LCD_HIGH_Z_DM0 & LCD_DATA_MASK);
 375:Generated_Source\PSoC5/LCD.c **** 
 376:Generated_Source\PSoC5/LCD.c ****         /* Mask off data pins to clear old values out */
 377:Generated_Source\PSoC5/LCD.c ****         value = LCD_PORT_DM1_REG & ((uint8)(~LCD_DATA_MASK));
 378:Generated_Source\PSoC5/LCD.c ****         /* Load in high Z values for data pins, others unchanged */
 379:Generated_Source\PSoC5/LCD.c ****         LCD_PORT_DM1_REG = value;
 380:Generated_Source\PSoC5/LCD.c **** 
 381:Generated_Source\PSoC5/LCD.c ****         /* Mask off data pins to clear old values out */
 382:Generated_Source\PSoC5/LCD.c ****         value = LCD_PORT_DM2_REG & ((uint8)(~LCD_DATA_MASK));
 383:Generated_Source\PSoC5/LCD.c ****         /* Load in high Z values for data pins, others unchanged */
 384:Generated_Source\PSoC5/LCD.c ****         LCD_PORT_DM2_REG = value;
 385:Generated_Source\PSoC5/LCD.c ****     
 386:Generated_Source\PSoC5/LCD.c ****     #endif /* CY_PSOC4 */
 387:Generated_Source\PSoC5/LCD.c ****     
 388:Generated_Source\PSoC5/LCD.c ****     /* Make sure RS is low */
 389:Generated_Source\PSoC5/LCD.c ****     LCD_PORT_DR_REG &= ((uint8)(~LCD_RS));
 390:Generated_Source\PSoC5/LCD.c **** 
 391:Generated_Source\PSoC5/LCD.c ****     /* Set R/W high to read */
 392:Generated_Source\PSoC5/LCD.c ****     LCD_PORT_DR_REG |= LCD_RW;
 393:Generated_Source\PSoC5/LCD.c **** 
 394:Generated_Source\PSoC5/LCD.c ****     do
 395:Generated_Source\PSoC5/LCD.c ****     {
 396:Generated_Source\PSoC5/LCD.c ****         /* 40 ns delay required before rising Enable and 500ns between neighbour Enables */
 397:Generated_Source\PSoC5/LCD.c ****         CyDelayUs(0u);
 398:Generated_Source\PSoC5/LCD.c **** 
 399:Generated_Source\PSoC5/LCD.c ****         /* Set E high */
 400:Generated_Source\PSoC5/LCD.c ****         LCD_PORT_DR_REG |= LCD_E;
 401:Generated_Source\PSoC5/LCD.c **** 
 402:Generated_Source\PSoC5/LCD.c ****         /* 360 ns delay setup time for data pins */
 403:Generated_Source\PSoC5/LCD.c ****         CyDelayUs(1u);
 404:Generated_Source\PSoC5/LCD.c **** 
 405:Generated_Source\PSoC5/LCD.c ****         /* Get port state */
 406:Generated_Source\PSoC5/LCD.c ****         value = LCD_PORT_PS_REG;
 407:Generated_Source\PSoC5/LCD.c **** 
 408:Generated_Source\PSoC5/LCD.c ****         /* Set enable low */
 409:Generated_Source\PSoC5/LCD.c ****         LCD_PORT_DR_REG &= ((uint8)(~LCD_E));
 410:Generated_Source\PSoC5/LCD.c **** 
 411:Generated_Source\PSoC5/LCD.c ****         /* This gives true delay between disabling Enable bit and polling Ready bit */
 412:Generated_Source\PSoC5/LCD.c ****         CyDelayUs(0u);
 413:Generated_Source\PSoC5/LCD.c **** 
 414:Generated_Source\PSoC5/LCD.c ****         /* Extract ready bit */
 415:Generated_Source\PSoC5/LCD.c ****         value &= LCD_READY_BIT;
 416:Generated_Source\PSoC5/LCD.c **** 
 417:Generated_Source\PSoC5/LCD.c ****         /* Set E high as we in 4-bit interface we need extra operation */
 418:Generated_Source\PSoC5/LCD.c ****         LCD_PORT_DR_REG |= LCD_E;
 419:Generated_Source\PSoC5/LCD.c **** 
 420:Generated_Source\PSoC5/LCD.c ****         /* 360 ns delay setup time for data pins */
 421:Generated_Source\PSoC5/LCD.c ****         CyDelayUs(1u);
 422:Generated_Source\PSoC5/LCD.c **** 
 423:Generated_Source\PSoC5/LCD.c ****         /* Set enable low */
 424:Generated_Source\PSoC5/LCD.c ****         LCD_PORT_DR_REG &= ((uint8)(~LCD_E));
 425:Generated_Source\PSoC5/LCD.c **** 
 426:Generated_Source\PSoC5/LCD.c ****         /* If LCD is not ready make a delay */
 427:Generated_Source\PSoC5/LCD.c ****         if (value == 0u)
 428:Generated_Source\PSoC5/LCD.c ****         {
 429:Generated_Source\PSoC5/LCD.c ****             CyDelayUs(10u);
 430:Generated_Source\PSoC5/LCD.c ****         }
ARM GAS  C:\Users\emman\AppData\Local\Temp\cc6b9iKy.s 			page 9


 431:Generated_Source\PSoC5/LCD.c **** 
 432:Generated_Source\PSoC5/LCD.c ****         /* Repeat until bit 4 is not zero or until timeout. */
 433:Generated_Source\PSoC5/LCD.c ****         timeout--;
 434:Generated_Source\PSoC5/LCD.c **** 
 435:Generated_Source\PSoC5/LCD.c ****     } while ((value != 0u) && (timeout > 0u));
 436:Generated_Source\PSoC5/LCD.c **** 
 437:Generated_Source\PSoC5/LCD.c ****     /* Set R/W low to write */
 438:Generated_Source\PSoC5/LCD.c ****     LCD_PORT_DR_REG &= ((uint8)(~LCD_RW));
 439:Generated_Source\PSoC5/LCD.c **** 
 440:Generated_Source\PSoC5/LCD.c ****     /* Clear LCD port*/
 441:Generated_Source\PSoC5/LCD.c ****     LCD_PORT_DR_REG &= ((uint8)(~LCD_PORT_MASK));
 442:Generated_Source\PSoC5/LCD.c **** 
 443:Generated_Source\PSoC5/LCD.c ****     #if (CY_PSOC4)
 444:Generated_Source\PSoC5/LCD.c ****         
 445:Generated_Source\PSoC5/LCD.c ****         /* Mask off data pins to clear old values out */
 446:Generated_Source\PSoC5/LCD.c ****         value = LCD_PORT_PC_REG & ((uint32)(~ LCD_DM_DATA_MASK));
 447:Generated_Source\PSoC5/LCD.c ****         /* Load in high Z values for data pins, others unchanged */
 448:Generated_Source\PSoC5/LCD.c ****         LCD_PORT_PC_REG = value | LCD_STRONG_DATA_DM;
 449:Generated_Source\PSoC5/LCD.c **** 
 450:Generated_Source\PSoC5/LCD.c ****     #else
 451:Generated_Source\PSoC5/LCD.c **** 
 452:Generated_Source\PSoC5/LCD.c ****         /* Change Port to Output (Strong) on data pins */
 453:Generated_Source\PSoC5/LCD.c ****         /* Mask off data pins to clear high z values out. Configure data pins 
 454:Generated_Source\PSoC5/LCD.c ****         * to Strong Drive, others unchanged.
 455:Generated_Source\PSoC5/LCD.c ****         */
 456:Generated_Source\PSoC5/LCD.c ****         LCD_PORT_DM0_REG &= ((uint8)(~LCD_DATA_MASK));
 457:Generated_Source\PSoC5/LCD.c ****         /* Mask off data pins to clear high z values out */
 458:Generated_Source\PSoC5/LCD.c ****         value = LCD_PORT_DM1_REG & ((uint8)(~LCD_DATA_MASK));
 459:Generated_Source\PSoC5/LCD.c ****         /* Configure data pins to Strong Drive, others unchanged */
 460:Generated_Source\PSoC5/LCD.c ****         LCD_PORT_DM1_REG = value | (LCD_STRONG_DM1 & LCD_DATA_MASK);
 461:Generated_Source\PSoC5/LCD.c **** 
 462:Generated_Source\PSoC5/LCD.c ****         /* Mask off data pins to clear high z values out */
 463:Generated_Source\PSoC5/LCD.c ****         value = LCD_PORT_DM2_REG & ((uint8)(~LCD_DATA_MASK));
 464:Generated_Source\PSoC5/LCD.c ****         /* Configure data pins to Strong Drive, others unchanged */
 465:Generated_Source\PSoC5/LCD.c ****         LCD_PORT_DM2_REG = value | (LCD_STRONG_DM2 & LCD_DATA_MASK);
 466:Generated_Source\PSoC5/LCD.c ****     
 467:Generated_Source\PSoC5/LCD.c ****     #endif /* CY_PSOC4 */
 468:Generated_Source\PSoC5/LCD.c **** }
 469:Generated_Source\PSoC5/LCD.c **** 
 470:Generated_Source\PSoC5/LCD.c **** 
 471:Generated_Source\PSoC5/LCD.c **** /*******************************************************************************
 472:Generated_Source\PSoC5/LCD.c **** *  Function Name: LCD_WrDatNib
 473:Generated_Source\PSoC5/LCD.c **** ********************************************************************************
 474:Generated_Source\PSoC5/LCD.c **** *
 475:Generated_Source\PSoC5/LCD.c **** * Summary:
 476:Generated_Source\PSoC5/LCD.c **** *  Writes a data nibble to the LCD module.
 477:Generated_Source\PSoC5/LCD.c **** *
 478:Generated_Source\PSoC5/LCD.c **** * Parameters:
 479:Generated_Source\PSoC5/LCD.c **** *  nibble:  Byte containing nibble in the least significant nibble to be
 480:Generated_Source\PSoC5/LCD.c **** *           written to the LCD module.
 481:Generated_Source\PSoC5/LCD.c **** *
 482:Generated_Source\PSoC5/LCD.c **** * Return:
 483:Generated_Source\PSoC5/LCD.c **** *  None.
 484:Generated_Source\PSoC5/LCD.c **** *
 485:Generated_Source\PSoC5/LCD.c **** *******************************************************************************/
 486:Generated_Source\PSoC5/LCD.c **** static void LCD_WrDatNib(uint8 nibble) 
 487:Generated_Source\PSoC5/LCD.c **** {
ARM GAS  C:\Users\emman\AppData\Local\Temp\cc6b9iKy.s 			page 10


 488:Generated_Source\PSoC5/LCD.c ****     /* RS should be low to select data register */
 489:Generated_Source\PSoC5/LCD.c ****     LCD_PORT_DR_REG |= LCD_RS;
 490:Generated_Source\PSoC5/LCD.c ****     /* Reset RW for write operation */
 491:Generated_Source\PSoC5/LCD.c ****     LCD_PORT_DR_REG &= ((uint8)(~LCD_RW));
 492:Generated_Source\PSoC5/LCD.c **** 
 493:Generated_Source\PSoC5/LCD.c ****     /* Guaranteed delay between Setting RS and RW and setting E bits */
 494:Generated_Source\PSoC5/LCD.c ****     CyDelayUs(0u);
 495:Generated_Source\PSoC5/LCD.c ****     
 496:Generated_Source\PSoC5/LCD.c ****     /* Clear data pins */
 497:Generated_Source\PSoC5/LCD.c ****     LCD_PORT_DR_REG &= ((uint8)(~LCD_DATA_MASK));
 498:Generated_Source\PSoC5/LCD.c **** 
 499:Generated_Source\PSoC5/LCD.c ****     /* Write data, bring E high */
 500:Generated_Source\PSoC5/LCD.c ****     #if(0u != LCD_PORT_SHIFT) /* MISRA forbids shift by 0 so need to handle that */
 501:Generated_Source\PSoC5/LCD.c ****         LCD_PORT_DR_REG |= 
 502:Generated_Source\PSoC5/LCD.c ****             (LCD_E | ((uint8)(((uint8) nibble) << LCD_PORT_SHIFT)));
 503:Generated_Source\PSoC5/LCD.c ****     #else
 504:Generated_Source\PSoC5/LCD.c ****         LCD_PORT_DR_REG |= (LCD_E | nibble);
 505:Generated_Source\PSoC5/LCD.c ****     #endif /* (0u != LCD_PORT_SHIFT) */
 506:Generated_Source\PSoC5/LCD.c **** 
 507:Generated_Source\PSoC5/LCD.c ****     /* Minimum of 230 ns delay */
 508:Generated_Source\PSoC5/LCD.c ****     CyDelayUs(1u);
 509:Generated_Source\PSoC5/LCD.c **** 
 510:Generated_Source\PSoC5/LCD.c ****     LCD_PORT_DR_REG &= ((uint8)(~LCD_E));
 511:Generated_Source\PSoC5/LCD.c **** }
 512:Generated_Source\PSoC5/LCD.c **** 
 513:Generated_Source\PSoC5/LCD.c **** 
 514:Generated_Source\PSoC5/LCD.c **** /*******************************************************************************
 515:Generated_Source\PSoC5/LCD.c **** *  Function Name: LCD_WrCntrlNib
 516:Generated_Source\PSoC5/LCD.c **** ********************************************************************************
 517:Generated_Source\PSoC5/LCD.c **** *
 518:Generated_Source\PSoC5/LCD.c **** * Summary:
 519:Generated_Source\PSoC5/LCD.c **** *  Writes a control nibble to the LCD module.
 520:Generated_Source\PSoC5/LCD.c **** *
 521:Generated_Source\PSoC5/LCD.c **** * Parameters:
 522:Generated_Source\PSoC5/LCD.c **** *  nibble: The byte containing a nibble in the four least significant bits.????
 523:Generated_Source\PSoC5/LCD.c **** *
 524:Generated_Source\PSoC5/LCD.c **** * Return:
 525:Generated_Source\PSoC5/LCD.c **** *  None.
 526:Generated_Source\PSoC5/LCD.c **** *
 527:Generated_Source\PSoC5/LCD.c **** *******************************************************************************/
 528:Generated_Source\PSoC5/LCD.c **** static void LCD_WrCntrlNib(uint8 nibble) 
 529:Generated_Source\PSoC5/LCD.c **** {
  27              		.loc 1 529 0
  28              		.cfi_startproc
  29              		@ args = 0, pretend = 0, frame = 0
  30              		@ frame_needed = 0, uses_anonymous_args = 0
  31              	.LVL0:
  32 0000 10B5     		push	{r4, lr}
  33              		.cfi_def_cfa_offset 8
  34              		.cfi_offset 4, -8
  35              		.cfi_offset 14, -4
 530:Generated_Source\PSoC5/LCD.c ****     /* RS and RW should be low to select instruction register and  write operation respectively */
 531:Generated_Source\PSoC5/LCD.c ****     LCD_PORT_DR_REG &= ((uint8)(~(LCD_RS | LCD_RW)));
  36              		.loc 1 531 0
  37 0002 0B4C     		ldr	r4, .L2
  38 0004 2378     		ldrb	r3, [r4]	@ zero_extendqisi2
  39 0006 03F09F03 		and	r3, r3, #159
ARM GAS  C:\Users\emman\AppData\Local\Temp\cc6b9iKy.s 			page 11


  40 000a 2370     		strb	r3, [r4]
 532:Generated_Source\PSoC5/LCD.c **** 
 533:Generated_Source\PSoC5/LCD.c ****     /* Two following lines of code will give 40ns delay */
 534:Generated_Source\PSoC5/LCD.c ****     /* Clear data pins */
 535:Generated_Source\PSoC5/LCD.c ****     LCD_PORT_DR_REG &= ((uint8)(~LCD_DATA_MASK));
  41              		.loc 1 535 0
  42 000c 2378     		ldrb	r3, [r4]	@ zero_extendqisi2
  43 000e 03F0F003 		and	r3, r3, #240
  44 0012 2370     		strb	r3, [r4]
 536:Generated_Source\PSoC5/LCD.c **** 
 537:Generated_Source\PSoC5/LCD.c ****     /* Write control data and set enable signal */
 538:Generated_Source\PSoC5/LCD.c ****     #if(0u != LCD_PORT_SHIFT) /* MISRA forbids shift by 0 so need to handle that */
 539:Generated_Source\PSoC5/LCD.c ****         LCD_PORT_DR_REG |= 
 540:Generated_Source\PSoC5/LCD.c ****             (LCD_E | ((uint8)(((uint8) nibble) << LCD_PORT_SHIFT)));
 541:Generated_Source\PSoC5/LCD.c ****     #else
 542:Generated_Source\PSoC5/LCD.c ****         LCD_PORT_DR_REG |= (LCD_E | nibble);
  45              		.loc 1 542 0
  46 0014 2378     		ldrb	r3, [r4]	@ zero_extendqisi2
  47 0016 43F01003 		orr	r3, r3, #16
  48 001a 1843     		orrs	r0, r0, r3
  49              	.LVL1:
  50 001c 2070     		strb	r0, [r4]
 543:Generated_Source\PSoC5/LCD.c ****     #endif /* (0u != LCD_PORT_SHIFT) */
 544:Generated_Source\PSoC5/LCD.c **** 
 545:Generated_Source\PSoC5/LCD.c ****     /* Minimum of 230 ns delay */
 546:Generated_Source\PSoC5/LCD.c ****     CyDelayUs(1u);
  51              		.loc 1 546 0
  52 001e 0120     		movs	r0, #1
  53 0020 FFF7FEFF 		bl	CyDelayUs
  54              	.LVL2:
 547:Generated_Source\PSoC5/LCD.c **** 
 548:Generated_Source\PSoC5/LCD.c ****     LCD_PORT_DR_REG &= ((uint8)(~LCD_E));
  55              		.loc 1 548 0
  56 0024 2378     		ldrb	r3, [r4]	@ zero_extendqisi2
  57 0026 03F0EF03 		and	r3, r3, #239
  58 002a 2370     		strb	r3, [r4]
  59 002c 10BD     		pop	{r4, pc}
  60              	.L3:
  61 002e 00BF     		.align	2
  62              	.L2:
  63 0030 20510040 		.word	1073762592
  64              		.cfi_endproc
  65              	.LFE11:
  66              		.size	LCD_WrCntrlNib, .-LCD_WrCntrlNib
  67              		.section	.text.LCD_WrDatNib,"ax",%progbits
  68              		.align	1
  69              		.thumb
  70              		.thumb_func
  71              		.type	LCD_WrDatNib, %function
  72              	LCD_WrDatNib:
  73              	.LFB10:
 487:Generated_Source\PSoC5/LCD.c ****     /* RS should be low to select data register */
  74              		.loc 1 487 0
  75              		.cfi_startproc
  76              		@ args = 0, pretend = 0, frame = 0
  77              		@ frame_needed = 0, uses_anonymous_args = 0
  78              	.LVL3:
ARM GAS  C:\Users\emman\AppData\Local\Temp\cc6b9iKy.s 			page 12


  79 0000 38B5     		push	{r3, r4, r5, lr}
  80              		.cfi_def_cfa_offset 16
  81              		.cfi_offset 3, -16
  82              		.cfi_offset 4, -12
  83              		.cfi_offset 5, -8
  84              		.cfi_offset 14, -4
 487:Generated_Source\PSoC5/LCD.c ****     /* RS should be low to select data register */
  85              		.loc 1 487 0
  86 0002 0546     		mov	r5, r0
 489:Generated_Source\PSoC5/LCD.c ****     /* Reset RW for write operation */
  87              		.loc 1 489 0
  88 0004 0E4C     		ldr	r4, .L5
 494:Generated_Source\PSoC5/LCD.c ****     
  89              		.loc 1 494 0
  90 0006 0020     		movs	r0, #0
  91              	.LVL4:
 489:Generated_Source\PSoC5/LCD.c ****     /* Reset RW for write operation */
  92              		.loc 1 489 0
  93 0008 2378     		ldrb	r3, [r4]	@ zero_extendqisi2
  94 000a 43F02003 		orr	r3, r3, #32
  95 000e 2370     		strb	r3, [r4]
 491:Generated_Source\PSoC5/LCD.c **** 
  96              		.loc 1 491 0
  97 0010 2378     		ldrb	r3, [r4]	@ zero_extendqisi2
  98 0012 03F0BF03 		and	r3, r3, #191
  99 0016 2370     		strb	r3, [r4]
 494:Generated_Source\PSoC5/LCD.c ****     
 100              		.loc 1 494 0
 101 0018 FFF7FEFF 		bl	CyDelayUs
 102              	.LVL5:
 497:Generated_Source\PSoC5/LCD.c **** 
 103              		.loc 1 497 0
 104 001c 2378     		ldrb	r3, [r4]	@ zero_extendqisi2
 105 001e 03F0F003 		and	r3, r3, #240
 106 0022 2370     		strb	r3, [r4]
 504:Generated_Source\PSoC5/LCD.c ****     #endif /* (0u != LCD_PORT_SHIFT) */
 107              		.loc 1 504 0
 108 0024 2078     		ldrb	r0, [r4]	@ zero_extendqisi2
 109 0026 40F01000 		orr	r0, r0, #16
 110 002a 2843     		orrs	r0, r0, r5
 111 002c 2070     		strb	r0, [r4]
 508:Generated_Source\PSoC5/LCD.c **** 
 112              		.loc 1 508 0
 113 002e 0120     		movs	r0, #1
 114 0030 FFF7FEFF 		bl	CyDelayUs
 115              	.LVL6:
 510:Generated_Source\PSoC5/LCD.c **** }
 116              		.loc 1 510 0
 117 0034 2378     		ldrb	r3, [r4]	@ zero_extendqisi2
 118 0036 03F0EF03 		and	r3, r3, #239
 119 003a 2370     		strb	r3, [r4]
 120 003c 38BD     		pop	{r3, r4, r5, pc}
 121              	.L6:
 122 003e 00BF     		.align	2
 123              	.L5:
 124 0040 20510040 		.word	1073762592
 125              		.cfi_endproc
ARM GAS  C:\Users\emman\AppData\Local\Temp\cc6b9iKy.s 			page 13


 126              	.LFE10:
 127              		.size	LCD_WrDatNib, .-LCD_WrDatNib
 128              		.section	.text.LCD_IsReady,"ax",%progbits
 129              		.align	1
 130              		.global	LCD_IsReady
 131              		.thumb
 132              		.thumb_func
 133              		.type	LCD_IsReady, %function
 134              	LCD_IsReady:
 135              	.LFB9:
 349:Generated_Source\PSoC5/LCD.c ****     uint8 value;
 136              		.loc 1 349 0
 137              		.cfi_startproc
 138              		@ args = 0, pretend = 0, frame = 0
 139              		@ frame_needed = 0, uses_anonymous_args = 0
 140              	.LVL7:
 141 0000 2DE9F047 		push	{r4, r5, r6, r7, r8, r9, r10, lr}
 142              		.cfi_def_cfa_offset 32
 143              		.cfi_offset 4, -32
 144              		.cfi_offset 5, -28
 145              		.cfi_offset 6, -24
 146              		.cfi_offset 7, -20
 147              		.cfi_offset 8, -16
 148              		.cfi_offset 9, -12
 149              		.cfi_offset 10, -8
 150              		.cfi_offset 14, -4
 355:Generated_Source\PSoC5/LCD.c **** 
 151              		.loc 1 355 0
 152 0004 334C     		ldr	r4, .L14
 372:Generated_Source\PSoC5/LCD.c ****         /* Load in high Z values for data pins, others unchanged */
 153              		.loc 1 372 0
 154 0006 344D     		ldr	r5, .L14+4
 355:Generated_Source\PSoC5/LCD.c **** 
 155              		.loc 1 355 0
 156 0008 2378     		ldrb	r3, [r4]	@ zero_extendqisi2
 377:Generated_Source\PSoC5/LCD.c ****         /* Load in high Z values for data pins, others unchanged */
 157              		.loc 1 377 0
 158 000a 344E     		ldr	r6, .L14+8
 355:Generated_Source\PSoC5/LCD.c **** 
 159              		.loc 1 355 0
 160 000c 03F08003 		and	r3, r3, #128
 161 0010 DBB2     		uxtb	r3, r3
 162 0012 2370     		strb	r3, [r4]
 372:Generated_Source\PSoC5/LCD.c ****         /* Load in high Z values for data pins, others unchanged */
 163              		.loc 1 372 0
 164 0014 2B78     		ldrb	r3, [r5]	@ zero_extendqisi2
 165              	.LVL8:
 382:Generated_Source\PSoC5/LCD.c ****         /* Load in high Z values for data pins, others unchanged */
 166              		.loc 1 382 0
 167 0016 324F     		ldr	r7, .L14+12
 374:Generated_Source\PSoC5/LCD.c **** 
 168              		.loc 1 374 0
 169 0018 03F0F003 		and	r3, r3, #240
 170              	.LVL9:
 171 001c 43F00F03 		orr	r3, r3, #15
 172 0020 2B70     		strb	r3, [r5]
 377:Generated_Source\PSoC5/LCD.c ****         /* Load in high Z values for data pins, others unchanged */
ARM GAS  C:\Users\emman\AppData\Local\Temp\cc6b9iKy.s 			page 14


 173              		.loc 1 377 0
 174 0022 3378     		ldrb	r3, [r6]	@ zero_extendqisi2
 406:Generated_Source\PSoC5/LCD.c **** 
 175              		.loc 1 406 0
 176 0024 DFF8BCA0 		ldr	r10, .L14+16
 377:Generated_Source\PSoC5/LCD.c ****         /* Load in high Z values for data pins, others unchanged */
 177              		.loc 1 377 0
 178 0028 03F0F003 		and	r3, r3, #240
 179              	.LVL10:
 379:Generated_Source\PSoC5/LCD.c **** 
 180              		.loc 1 379 0
 181 002c 3370     		strb	r3, [r6]
 382:Generated_Source\PSoC5/LCD.c ****         /* Load in high Z values for data pins, others unchanged */
 182              		.loc 1 382 0
 183 002e 3B78     		ldrb	r3, [r7]	@ zero_extendqisi2
 184              	.LVL11:
 392:Generated_Source\PSoC5/LCD.c **** 
 185              		.loc 1 392 0
 186 0030 4FF4CA78 		mov	r8, #404
 382:Generated_Source\PSoC5/LCD.c ****         /* Load in high Z values for data pins, others unchanged */
 187              		.loc 1 382 0
 188 0034 03F0F003 		and	r3, r3, #240
 189              	.LVL12:
 384:Generated_Source\PSoC5/LCD.c ****     
 190              		.loc 1 384 0
 191 0038 3B70     		strb	r3, [r7]
 389:Generated_Source\PSoC5/LCD.c **** 
 192              		.loc 1 389 0
 193 003a 2378     		ldrb	r3, [r4]	@ zero_extendqisi2
 194              	.LVL13:
 195 003c 03F0DF03 		and	r3, r3, #223
 196 0040 2370     		strb	r3, [r4]
 197              	.LVL14:
 392:Generated_Source\PSoC5/LCD.c **** 
 198              		.loc 1 392 0
 199 0042 2378     		ldrb	r3, [r4]	@ zero_extendqisi2
 200 0044 43F04003 		orr	r3, r3, #64
 201 0048 2370     		strb	r3, [r4]
 202              	.LVL15:
 203              	.L9:
 397:Generated_Source\PSoC5/LCD.c **** 
 204              		.loc 1 397 0
 205 004a 0020     		movs	r0, #0
 206 004c FFF7FEFF 		bl	CyDelayUs
 207              	.LVL16:
 400:Generated_Source\PSoC5/LCD.c **** 
 208              		.loc 1 400 0
 209 0050 2378     		ldrb	r3, [r4]	@ zero_extendqisi2
 403:Generated_Source\PSoC5/LCD.c **** 
 210              		.loc 1 403 0
 211 0052 0120     		movs	r0, #1
 400:Generated_Source\PSoC5/LCD.c **** 
 212              		.loc 1 400 0
 213 0054 43F01003 		orr	r3, r3, #16
 214 0058 2370     		strb	r3, [r4]
 403:Generated_Source\PSoC5/LCD.c **** 
 215              		.loc 1 403 0
ARM GAS  C:\Users\emman\AppData\Local\Temp\cc6b9iKy.s 			page 15


 216 005a FFF7FEFF 		bl	CyDelayUs
 217              	.LVL17:
 406:Generated_Source\PSoC5/LCD.c **** 
 218              		.loc 1 406 0
 219 005e 9AF80090 		ldrb	r9, [r10]	@ zero_extendqisi2
 409:Generated_Source\PSoC5/LCD.c **** 
 220              		.loc 1 409 0
 221 0062 2378     		ldrb	r3, [r4]	@ zero_extendqisi2
 412:Generated_Source\PSoC5/LCD.c **** 
 222              		.loc 1 412 0
 223 0064 0020     		movs	r0, #0
 409:Generated_Source\PSoC5/LCD.c **** 
 224              		.loc 1 409 0
 225 0066 03F0EF03 		and	r3, r3, #239
 226 006a 2370     		strb	r3, [r4]
 412:Generated_Source\PSoC5/LCD.c **** 
 227              		.loc 1 412 0
 228 006c FFF7FEFF 		bl	CyDelayUs
 229              	.LVL18:
 418:Generated_Source\PSoC5/LCD.c **** 
 230              		.loc 1 418 0
 231 0070 2378     		ldrb	r3, [r4]	@ zero_extendqisi2
 421:Generated_Source\PSoC5/LCD.c **** 
 232              		.loc 1 421 0
 233 0072 0120     		movs	r0, #1
 418:Generated_Source\PSoC5/LCD.c **** 
 234              		.loc 1 418 0
 235 0074 43F01003 		orr	r3, r3, #16
 236 0078 2370     		strb	r3, [r4]
 421:Generated_Source\PSoC5/LCD.c **** 
 237              		.loc 1 421 0
 238 007a FFF7FEFF 		bl	CyDelayUs
 239              	.LVL19:
 424:Generated_Source\PSoC5/LCD.c **** 
 240              		.loc 1 424 0
 241 007e 2378     		ldrb	r3, [r4]	@ zero_extendqisi2
 406:Generated_Source\PSoC5/LCD.c **** 
 242              		.loc 1 406 0
 243 0080 5FFA89F9 		uxtb	r9, r9
 244              	.LVL20:
 424:Generated_Source\PSoC5/LCD.c **** 
 245              		.loc 1 424 0
 246 0084 03F0EF03 		and	r3, r3, #239
 427:Generated_Source\PSoC5/LCD.c ****         {
 247              		.loc 1 427 0
 248 0088 19F0080F 		tst	r9, #8
 424:Generated_Source\PSoC5/LCD.c **** 
 249              		.loc 1 424 0
 250 008c 2370     		strb	r3, [r4]
 427:Generated_Source\PSoC5/LCD.c ****         {
 251              		.loc 1 427 0
 252 008e 1DD1     		bne	.L8
 429:Generated_Source\PSoC5/LCD.c ****         }
 253              		.loc 1 429 0
 254 0090 0A20     		movs	r0, #10
 255 0092 FFF7FEFF 		bl	CyDelayUs
 256              	.LVL21:
ARM GAS  C:\Users\emman\AppData\Local\Temp\cc6b9iKy.s 			page 16


 257              	.L10:
 438:Generated_Source\PSoC5/LCD.c **** 
 258              		.loc 1 438 0
 259 0096 2378     		ldrb	r3, [r4]	@ zero_extendqisi2
 260 0098 03F0BF03 		and	r3, r3, #191
 261 009c 2370     		strb	r3, [r4]
 441:Generated_Source\PSoC5/LCD.c **** 
 262              		.loc 1 441 0
 263 009e 2378     		ldrb	r3, [r4]	@ zero_extendqisi2
 264 00a0 03F08003 		and	r3, r3, #128
 265 00a4 DBB2     		uxtb	r3, r3
 266 00a6 2370     		strb	r3, [r4]
 456:Generated_Source\PSoC5/LCD.c ****         /* Mask off data pins to clear high z values out */
 267              		.loc 1 456 0
 268 00a8 2B78     		ldrb	r3, [r5]	@ zero_extendqisi2
 269 00aa 03F0F003 		and	r3, r3, #240
 270 00ae 2B70     		strb	r3, [r5]
 458:Generated_Source\PSoC5/LCD.c ****         /* Configure data pins to Strong Drive, others unchanged */
 271              		.loc 1 458 0
 272 00b0 3378     		ldrb	r3, [r6]	@ zero_extendqisi2
 273              	.LVL22:
 460:Generated_Source\PSoC5/LCD.c **** 
 274              		.loc 1 460 0
 275 00b2 03F0F003 		and	r3, r3, #240
 276              	.LVL23:
 277 00b6 43F00F03 		orr	r3, r3, #15
 278 00ba 3370     		strb	r3, [r6]
 463:Generated_Source\PSoC5/LCD.c ****         /* Configure data pins to Strong Drive, others unchanged */
 279              		.loc 1 463 0
 280 00bc 3B78     		ldrb	r3, [r7]	@ zero_extendqisi2
 281              	.LVL24:
 465:Generated_Source\PSoC5/LCD.c ****     
 282              		.loc 1 465 0
 283 00be 03F0F003 		and	r3, r3, #240
 284              	.LVL25:
 285 00c2 43F00F03 		orr	r3, r3, #15
 286 00c6 3B70     		strb	r3, [r7]
 468:Generated_Source\PSoC5/LCD.c **** 
 287              		.loc 1 468 0
 288 00c8 BDE8F087 		pop	{r4, r5, r6, r7, r8, r9, r10, pc}
 289              	.LVL26:
 290              	.L8:
 435:Generated_Source\PSoC5/LCD.c **** 
 291              		.loc 1 435 0
 292 00cc B8F10108 		subs	r8, r8, #1
 293              	.LVL27:
 294 00d0 BBD1     		bne	.L9
 295 00d2 E0E7     		b	.L10
 296              	.L15:
 297              		.align	2
 298              	.L14:
 299 00d4 20510040 		.word	1073762592
 300 00d8 22510040 		.word	1073762594
 301 00dc 23510040 		.word	1073762595
 302 00e0 24510040 		.word	1073762596
 303 00e4 21510040 		.word	1073762593
 304              		.cfi_endproc
ARM GAS  C:\Users\emman\AppData\Local\Temp\cc6b9iKy.s 			page 17


 305              	.LFE9:
 306              		.size	LCD_IsReady, .-LCD_IsReady
 307              		.section	.text.LCD_WriteData,"ax",%progbits
 308              		.align	1
 309              		.global	LCD_WriteData
 310              		.thumb
 311              		.thumb_func
 312              		.type	LCD_WriteData, %function
 313              	LCD_WriteData:
 314              	.LFB7:
 285:Generated_Source\PSoC5/LCD.c ****     uint8 nibble;
 315              		.loc 1 285 0
 316              		.cfi_startproc
 317              		@ args = 0, pretend = 0, frame = 0
 318              		@ frame_needed = 0, uses_anonymous_args = 0
 319              	.LVL28:
 320 0000 10B5     		push	{r4, lr}
 321              		.cfi_def_cfa_offset 8
 322              		.cfi_offset 4, -8
 323              		.cfi_offset 14, -4
 285:Generated_Source\PSoC5/LCD.c ****     uint8 nibble;
 324              		.loc 1 285 0
 325 0002 0446     		mov	r4, r0
 288:Generated_Source\PSoC5/LCD.c ****     nibble = dByte >> LCD_NIBBLE_SHIFT;
 326              		.loc 1 288 0
 327 0004 FFF7FEFF 		bl	LCD_IsReady
 328              	.LVL29:
 292:Generated_Source\PSoC5/LCD.c **** 
 329              		.loc 1 292 0
 330 0008 2009     		lsrs	r0, r4, #4
 331 000a FFF7FEFF 		bl	LCD_WrDatNib
 332              	.LVL30:
 296:Generated_Source\PSoC5/LCD.c **** }
 333              		.loc 1 296 0
 334 000e 04F00F00 		and	r0, r4, #15
 297:Generated_Source\PSoC5/LCD.c **** 
 335              		.loc 1 297 0
 336 0012 BDE81040 		pop	{r4, lr}
 337              		.cfi_restore 14
 338              		.cfi_restore 4
 339              		.cfi_def_cfa_offset 0
 340              	.LVL31:
 296:Generated_Source\PSoC5/LCD.c **** }
 341              		.loc 1 296 0
 342 0016 FFF7FEBF 		b	LCD_WrDatNib
 343              	.LVL32:
 344              		.cfi_endproc
 345              	.LFE7:
 346              		.size	LCD_WriteData, .-LCD_WriteData
 347              		.section	.text.LCD_PrintString,"ax",%progbits
 348              		.align	1
 349              		.global	LCD_PrintString
 350              		.thumb
 351              		.thumb_func
 352              		.type	LCD_PrintString, %function
 353              	LCD_PrintString:
 354              	.LFB5:
ARM GAS  C:\Users\emman\AppData\Local\Temp\cc6b9iKy.s 			page 18


 234:Generated_Source\PSoC5/LCD.c ****     uint8 indexU8 = 1u;
 355              		.loc 1 234 0
 356              		.cfi_startproc
 357              		@ args = 0, pretend = 0, frame = 0
 358              		@ frame_needed = 0, uses_anonymous_args = 0
 359              	.LVL33:
 360 0000 38B5     		push	{r3, r4, r5, lr}
 361              		.cfi_def_cfa_offset 16
 362              		.cfi_offset 3, -16
 363              		.cfi_offset 4, -12
 364              		.cfi_offset 5, -8
 365              		.cfi_offset 14, -4
 234:Generated_Source\PSoC5/LCD.c ****     uint8 indexU8 = 1u;
 366              		.loc 1 234 0
 367 0002 0546     		mov	r5, r0
 236:Generated_Source\PSoC5/LCD.c **** 
 368              		.loc 1 236 0
 369 0004 0078     		ldrb	r0, [r0]	@ zero_extendqisi2
 370              	.LVL34:
 235:Generated_Source\PSoC5/LCD.c ****     char8 current = *string;
 371              		.loc 1 235 0
 372 0006 0124     		movs	r4, #1
 373              	.LVL35:
 374              	.L18:
 239:Generated_Source\PSoC5/LCD.c ****     {
 375              		.loc 1 239 0
 376 0008 28B1     		cbz	r0, .L20
 241:Generated_Source\PSoC5/LCD.c ****         current = string[indexU8];
 377              		.loc 1 241 0
 378 000a FFF7FEFF 		bl	LCD_WriteData
 379              	.LVL36:
 242:Generated_Source\PSoC5/LCD.c ****         indexU8++;
 380              		.loc 1 242 0
 381 000e 285D     		ldrb	r0, [r5, r4]	@ zero_extendqisi2
 382              	.LVL37:
 243:Generated_Source\PSoC5/LCD.c ****     }
 383              		.loc 1 243 0
 384 0010 0134     		adds	r4, r4, #1
 385              	.LVL38:
 386 0012 E4B2     		uxtb	r4, r4
 387              	.LVL39:
 388 0014 F8E7     		b	.L18
 389              	.L20:
 245:Generated_Source\PSoC5/LCD.c **** 
 390              		.loc 1 245 0
 391 0016 38BD     		pop	{r3, r4, r5, pc}
 392              		.cfi_endproc
 393              	.LFE5:
 394              		.size	LCD_PrintString, .-LCD_PrintString
 395              		.section	.text.LCD_PutChar,"ax",%progbits
 396              		.align	1
 397              		.global	LCD_PutChar
 398              		.thumb
 399              		.thumb_func
 400              		.type	LCD_PutChar, %function
 401              	LCD_PutChar:
 402              	.LFB6:
ARM GAS  C:\Users\emman\AppData\Local\Temp\cc6b9iKy.s 			page 19


 265:Generated_Source\PSoC5/LCD.c ****     LCD_WriteData((uint8)character);
 403              		.loc 1 265 0
 404              		.cfi_startproc
 405              		@ args = 0, pretend = 0, frame = 0
 406              		@ frame_needed = 0, uses_anonymous_args = 0
 407              		@ link register save eliminated.
 408              	.LVL40:
 266:Generated_Source\PSoC5/LCD.c **** }
 409              		.loc 1 266 0
 410 0000 FFF7FEBF 		b	LCD_WriteData
 411              	.LVL41:
 412              		.cfi_endproc
 413              	.LFE6:
 414              		.size	LCD_PutChar, .-LCD_PutChar
 415              		.section	.text.LCD_WriteControl,"ax",%progbits
 416              		.align	1
 417              		.global	LCD_WriteControl
 418              		.thumb
 419              		.thumb_func
 420              		.type	LCD_WriteControl, %function
 421              	LCD_WriteControl:
 422              	.LFB8:
 315:Generated_Source\PSoC5/LCD.c ****     uint8 nibble;
 423              		.loc 1 315 0
 424              		.cfi_startproc
 425              		@ args = 0, pretend = 0, frame = 0
 426              		@ frame_needed = 0, uses_anonymous_args = 0
 427              	.LVL42:
 428 0000 10B5     		push	{r4, lr}
 429              		.cfi_def_cfa_offset 8
 430              		.cfi_offset 4, -8
 431              		.cfi_offset 14, -4
 315:Generated_Source\PSoC5/LCD.c ****     uint8 nibble;
 432              		.loc 1 315 0
 433 0002 0446     		mov	r4, r0
 318:Generated_Source\PSoC5/LCD.c **** 
 434              		.loc 1 318 0
 435 0004 FFF7FEFF 		bl	LCD_IsReady
 436              	.LVL43:
 323:Generated_Source\PSoC5/LCD.c ****     nibble = cByte & LCD_NIBBLE_MASK;
 437              		.loc 1 323 0
 438 0008 2009     		lsrs	r0, r4, #4
 439 000a FFF7FEFF 		bl	LCD_WrCntrlNib
 440              	.LVL44:
 327:Generated_Source\PSoC5/LCD.c **** }
 441              		.loc 1 327 0
 442 000e 04F00F00 		and	r0, r4, #15
 328:Generated_Source\PSoC5/LCD.c **** 
 443              		.loc 1 328 0
 444 0012 BDE81040 		pop	{r4, lr}
 445              		.cfi_restore 14
 446              		.cfi_restore 4
 447              		.cfi_def_cfa_offset 0
 448              	.LVL45:
 327:Generated_Source\PSoC5/LCD.c **** }
 449              		.loc 1 327 0
 450 0016 FFF7FEBF 		b	LCD_WrCntrlNib
ARM GAS  C:\Users\emman\AppData\Local\Temp\cc6b9iKy.s 			page 20


 451              	.LVL46:
 452              		.cfi_endproc
 453              	.LFE8:
 454              		.size	LCD_WriteControl, .-LCD_WriteControl
 455              		.section	.text.LCD_Init,"ax",%progbits
 456              		.align	1
 457              		.global	LCD_Init
 458              		.thumb
 459              		.thumb_func
 460              		.type	LCD_Init, %function
 461              	LCD_Init:
 462              	.LFB0:
  56:Generated_Source\PSoC5/LCD.c ****     /* INIT CODE */
 463              		.loc 1 56 0
 464              		.cfi_startproc
 465              		@ args = 0, pretend = 0, frame = 0
 466              		@ frame_needed = 0, uses_anonymous_args = 0
 467 0000 08B5     		push	{r3, lr}
 468              		.cfi_def_cfa_offset 8
 469              		.cfi_offset 3, -8
 470              		.cfi_offset 14, -4
  58:Generated_Source\PSoC5/LCD.c ****     LCD_WrCntrlNib(LCD_DISPLAY_8_BIT_INIT);    /* Selects 8-bit mode */
 471              		.loc 1 58 0
 472 0002 2820     		movs	r0, #40
 473 0004 FFF7FEFF 		bl	CyDelay
 474              	.LVL47:
  59:Generated_Source\PSoC5/LCD.c ****     CyDelay(5u);                                                         /* Delay 5 ms */
 475              		.loc 1 59 0
 476 0008 0320     		movs	r0, #3
 477 000a FFF7FEFF 		bl	LCD_WrCntrlNib
 478              	.LVL48:
  60:Generated_Source\PSoC5/LCD.c ****     LCD_WrCntrlNib(LCD_DISPLAY_8_BIT_INIT);    /* Selects 8-bit mode */
 479              		.loc 1 60 0
 480 000e 0520     		movs	r0, #5
 481 0010 FFF7FEFF 		bl	CyDelay
 482              	.LVL49:
  61:Generated_Source\PSoC5/LCD.c ****     CyDelay(15u);                                                        /* Delay 15 ms */
 483              		.loc 1 61 0
 484 0014 0320     		movs	r0, #3
 485 0016 FFF7FEFF 		bl	LCD_WrCntrlNib
 486              	.LVL50:
  62:Generated_Source\PSoC5/LCD.c ****     LCD_WrCntrlNib(LCD_DISPLAY_8_BIT_INIT);    /* Selects 8-bit mode */
 487              		.loc 1 62 0
 488 001a 0F20     		movs	r0, #15
 489 001c FFF7FEFF 		bl	CyDelay
 490              	.LVL51:
  63:Generated_Source\PSoC5/LCD.c ****     CyDelay(1u);                                                         /* Delay 1 ms */
 491              		.loc 1 63 0
 492 0020 0320     		movs	r0, #3
 493 0022 FFF7FEFF 		bl	LCD_WrCntrlNib
 494              	.LVL52:
  64:Generated_Source\PSoC5/LCD.c ****     LCD_WrCntrlNib(LCD_DISPLAY_4_BIT_INIT);    /* Selects 4-bit mode */
 495              		.loc 1 64 0
 496 0026 0120     		movs	r0, #1
 497 0028 FFF7FEFF 		bl	CyDelay
 498              	.LVL53:
  65:Generated_Source\PSoC5/LCD.c ****     CyDelay(5u);                                                         /* Delay 5 ms */
ARM GAS  C:\Users\emman\AppData\Local\Temp\cc6b9iKy.s 			page 21


 499              		.loc 1 65 0
 500 002c 0220     		movs	r0, #2
 501 002e FFF7FEFF 		bl	LCD_WrCntrlNib
 502              	.LVL54:
  66:Generated_Source\PSoC5/LCD.c **** 
 503              		.loc 1 66 0
 504 0032 0520     		movs	r0, #5
 505 0034 FFF7FEFF 		bl	CyDelay
 506              	.LVL55:
  68:Generated_Source\PSoC5/LCD.c ****     LCD_WriteControl(LCD_DISPLAY_CURSOR_ON);      /* Turn Display, Cursor ON */
 507              		.loc 1 68 0
 508 0038 0620     		movs	r0, #6
 509 003a FFF7FEFF 		bl	LCD_WriteControl
 510              	.LVL56:
  69:Generated_Source\PSoC5/LCD.c ****     LCD_WriteControl(LCD_DISPLAY_2_LINES_5x10);   /* 2 Lines by 5x10 Characters */
 511              		.loc 1 69 0
 512 003e 0E20     		movs	r0, #14
 513 0040 FFF7FEFF 		bl	LCD_WriteControl
 514              	.LVL57:
  70:Generated_Source\PSoC5/LCD.c ****     LCD_WriteControl(LCD_DISPLAY_CURSOR_OFF);     /* Turn Display, Cursor OFF */
 515              		.loc 1 70 0
 516 0044 2C20     		movs	r0, #44
 517 0046 FFF7FEFF 		bl	LCD_WriteControl
 518              	.LVL58:
  71:Generated_Source\PSoC5/LCD.c ****     LCD_WriteControl(LCD_CLEAR_DISPLAY);          /* Clear LCD Screen */
 519              		.loc 1 71 0
 520 004a 0820     		movs	r0, #8
 521 004c FFF7FEFF 		bl	LCD_WriteControl
 522              	.LVL59:
  72:Generated_Source\PSoC5/LCD.c ****     LCD_WriteControl(LCD_DISPLAY_ON_CURSOR_OFF);  /* Turn Display ON, Cursor OFF */
 523              		.loc 1 72 0
 524 0050 0120     		movs	r0, #1
 525 0052 FFF7FEFF 		bl	LCD_WriteControl
 526              	.LVL60:
  73:Generated_Source\PSoC5/LCD.c ****     LCD_WriteControl(LCD_RESET_CURSOR_POSITION);  /* Set Cursor to 0,0 */
 527              		.loc 1 73 0
 528 0056 0C20     		movs	r0, #12
 529 0058 FFF7FEFF 		bl	LCD_WriteControl
 530              	.LVL61:
  74:Generated_Source\PSoC5/LCD.c ****     CyDelay(5u);
 531              		.loc 1 74 0
 532 005c 0320     		movs	r0, #3
 533 005e FFF7FEFF 		bl	LCD_WriteControl
 534              	.LVL62:
  80:Generated_Source\PSoC5/LCD.c **** 
 535              		.loc 1 80 0
 536 0062 BDE80840 		pop	{r3, lr}
 537              		.cfi_restore 14
 538              		.cfi_restore 3
 539              		.cfi_def_cfa_offset 0
  75:Generated_Source\PSoC5/LCD.c **** 
 540              		.loc 1 75 0
 541 0066 0520     		movs	r0, #5
 542 0068 FFF7FEBF 		b	CyDelay
 543              	.LVL63:
 544              		.cfi_endproc
 545              	.LFE0:
ARM GAS  C:\Users\emman\AppData\Local\Temp\cc6b9iKy.s 			page 22


 546              		.size	LCD_Init, .-LCD_Init
 547              		.section	.text.LCD_Enable,"ax",%progbits
 548              		.align	1
 549              		.global	LCD_Enable
 550              		.thumb
 551              		.thumb_func
 552              		.type	LCD_Enable, %function
 553              	LCD_Enable:
 554              	.LFB1:
 105:Generated_Source\PSoC5/LCD.c ****     LCD_DisplayOn();
 555              		.loc 1 105 0
 556              		.cfi_startproc
 557              		@ args = 0, pretend = 0, frame = 0
 558              		@ frame_needed = 0, uses_anonymous_args = 0
 559 0000 08B5     		push	{r3, lr}
 560              		.cfi_def_cfa_offset 8
 561              		.cfi_offset 3, -8
 562              		.cfi_offset 14, -4
 106:Generated_Source\PSoC5/LCD.c ****     LCD_enableState = 1u;
 563              		.loc 1 106 0
 564 0002 0C20     		movs	r0, #12
 565 0004 FFF7FEFF 		bl	LCD_WriteControl
 566              	.LVL64:
 107:Generated_Source\PSoC5/LCD.c **** }
 567              		.loc 1 107 0
 568 0008 014B     		ldr	r3, .L25
 569 000a 0122     		movs	r2, #1
 570 000c 1A70     		strb	r2, [r3]
 571 000e 08BD     		pop	{r3, pc}
 572              	.L26:
 573              		.align	2
 574              	.L25:
 575 0010 00000000 		.word	.LANCHOR0
 576              		.cfi_endproc
 577              	.LFE1:
 578              		.size	LCD_Enable, .-LCD_Enable
 579              		.section	.text.LCD_Start,"ax",%progbits
 580              		.align	1
 581              		.global	LCD_Start
 582              		.thumb
 583              		.thumb_func
 584              		.type	LCD_Start, %function
 585              	LCD_Start:
 586              	.LFB2:
 138:Generated_Source\PSoC5/LCD.c ****     /* If not initialized, perform initialization */
 587              		.loc 1 138 0
 588              		.cfi_startproc
 589              		@ args = 0, pretend = 0, frame = 0
 590              		@ frame_needed = 0, uses_anonymous_args = 0
 591 0000 10B5     		push	{r4, lr}
 592              		.cfi_def_cfa_offset 8
 593              		.cfi_offset 4, -8
 594              		.cfi_offset 14, -4
 140:Generated_Source\PSoC5/LCD.c ****     {
 595              		.loc 1 140 0
 596 0002 054C     		ldr	r4, .L29
 597 0004 6378     		ldrb	r3, [r4, #1]	@ zero_extendqisi2
ARM GAS  C:\Users\emman\AppData\Local\Temp\cc6b9iKy.s 			page 23


 598 0006 1BB9     		cbnz	r3, .L28
 142:Generated_Source\PSoC5/LCD.c ****         LCD_initVar = 1u;
 599              		.loc 1 142 0
 600 0008 FFF7FEFF 		bl	LCD_Init
 601              	.LVL65:
 143:Generated_Source\PSoC5/LCD.c ****     }
 602              		.loc 1 143 0
 603 000c 0123     		movs	r3, #1
 604 000e 6370     		strb	r3, [r4, #1]
 605              	.L28:
 148:Generated_Source\PSoC5/LCD.c **** 
 606              		.loc 1 148 0
 607 0010 BDE81040 		pop	{r4, lr}
 608              		.cfi_restore 14
 609              		.cfi_restore 4
 610              		.cfi_def_cfa_offset 0
 147:Generated_Source\PSoC5/LCD.c **** }
 611              		.loc 1 147 0
 612 0014 FFF7FEBF 		b	LCD_Enable
 613              	.LVL66:
 614              	.L30:
 615              		.align	2
 616              	.L29:
 617 0018 00000000 		.word	.LANCHOR0
 618              		.cfi_endproc
 619              	.LFE2:
 620              		.size	LCD_Start, .-LCD_Start
 621              		.section	.text.LCD_Stop,"ax",%progbits
 622              		.align	1
 623              		.global	LCD_Stop
 624              		.thumb
 625              		.thumb_func
 626              		.type	LCD_Stop, %function
 627              	LCD_Stop:
 628              	.LFB3:
 169:Generated_Source\PSoC5/LCD.c ****     /* Calls LCD Off Macro */
 629              		.loc 1 169 0
 630              		.cfi_startproc
 631              		@ args = 0, pretend = 0, frame = 0
 632              		@ frame_needed = 0, uses_anonymous_args = 0
 633 0000 08B5     		push	{r3, lr}
 634              		.cfi_def_cfa_offset 8
 635              		.cfi_offset 3, -8
 636              		.cfi_offset 14, -4
 171:Generated_Source\PSoC5/LCD.c ****     LCD_enableState = 0u;
 637              		.loc 1 171 0
 638 0002 0820     		movs	r0, #8
 639 0004 FFF7FEFF 		bl	LCD_WriteControl
 640              	.LVL67:
 172:Generated_Source\PSoC5/LCD.c **** }
 641              		.loc 1 172 0
 642 0008 014B     		ldr	r3, .L32
 643 000a 0022     		movs	r2, #0
 644 000c 1A70     		strb	r2, [r3]
 645 000e 08BD     		pop	{r3, pc}
 646              	.L33:
 647              		.align	2
ARM GAS  C:\Users\emman\AppData\Local\Temp\cc6b9iKy.s 			page 24


 648              	.L32:
 649 0010 00000000 		.word	.LANCHOR0
 650              		.cfi_endproc
 651              	.LFE3:
 652              		.size	LCD_Stop, .-LCD_Stop
 653              		.section	.text.LCD_Position,"ax",%progbits
 654              		.align	1
 655              		.global	LCD_Position
 656              		.thumb
 657              		.thumb_func
 658              		.type	LCD_Position, %function
 659              	LCD_Position:
 660              	.LFB4:
 197:Generated_Source\PSoC5/LCD.c ****     switch (row)
 661              		.loc 1 197 0
 662              		.cfi_startproc
 663              		@ args = 0, pretend = 0, frame = 0
 664              		@ frame_needed = 0, uses_anonymous_args = 0
 665              		@ link register save eliminated.
 666              	.LVL68:
 198:Generated_Source\PSoC5/LCD.c ****     {
 667              		.loc 1 198 0
 668 0000 0328     		cmp	r0, #3
 669 0002 11D8     		bhi	.L34
 670 0004 DFE800F0 		tbb	[pc, r0]
 671              	.L37:
 672 0008 02       		.byte	(.L36-.L37)/2
 673 0009 05       		.byte	(.L38-.L37)/2
 674 000a 08       		.byte	(.L39-.L37)/2
 675 000b 0B       		.byte	(.L40-.L37)/2
 676              		.p2align 1
 677              	.L36:
 201:Generated_Source\PSoC5/LCD.c ****             break;
 678              		.loc 1 201 0
 679 000c 81F08000 		eor	r0, r1, #128
 680              	.LVL69:
 681 0010 08E0     		b	.L41
 682              	.LVL70:
 683              	.L38:
 204:Generated_Source\PSoC5/LCD.c ****             break;
 684              		.loc 1 204 0
 685 0012 A1F14000 		sub	r0, r1, #64
 686              	.LVL71:
 687 0016 04E0     		b	.L42
 688              	.LVL72:
 689              	.L39:
 207:Generated_Source\PSoC5/LCD.c ****             break;
 690              		.loc 1 207 0
 691 0018 A1F16C00 		sub	r0, r1, #108
 692              	.LVL73:
 693 001c 01E0     		b	.L42
 694              	.LVL74:
 695              	.L40:
 210:Generated_Source\PSoC5/LCD.c ****             break;
 696              		.loc 1 210 0
 697 001e A1F12C00 		sub	r0, r1, #44
 698              	.LVL75:
ARM GAS  C:\Users\emman\AppData\Local\Temp\cc6b9iKy.s 			page 25


 699              	.L42:
 700 0022 C0B2     		uxtb	r0, r0
 701              	.L41:
 702 0024 FFF7FEBF 		b	LCD_WriteControl
 703              	.LVL76:
 704              	.L34:
 705 0028 7047     		bx	lr
 706              		.cfi_endproc
 707              	.LFE4:
 708              		.size	LCD_Position, .-LCD_Position
 709              		.section	.text.LCD_PrintInt8,"ax",%progbits
 710              		.align	1
 711              		.global	LCD_PrintInt8
 712              		.thumb
 713              		.thumb_func
 714              		.type	LCD_PrintInt8, %function
 715              	LCD_PrintInt8:
 716              	.LFB12:
 549:Generated_Source\PSoC5/LCD.c **** }
 550:Generated_Source\PSoC5/LCD.c **** 
 551:Generated_Source\PSoC5/LCD.c **** 
 552:Generated_Source\PSoC5/LCD.c **** #if(LCD_CONVERSION_ROUTINES == 1u)
 553:Generated_Source\PSoC5/LCD.c **** 
 554:Generated_Source\PSoC5/LCD.c ****     /*******************************************************************************
 555:Generated_Source\PSoC5/LCD.c ****     *  Function Name: LCD_PrintInt8
 556:Generated_Source\PSoC5/LCD.c ****     ********************************************************************************
 557:Generated_Source\PSoC5/LCD.c ****     *
 558:Generated_Source\PSoC5/LCD.c ****     * Summary:
 559:Generated_Source\PSoC5/LCD.c ****     *  Print a byte as two ASCII characters.
 560:Generated_Source\PSoC5/LCD.c ****     *
 561:Generated_Source\PSoC5/LCD.c ****     * Parameters:
 562:Generated_Source\PSoC5/LCD.c ****     *  value: The byte to be printed out as ASCII characters.
 563:Generated_Source\PSoC5/LCD.c ****     *
 564:Generated_Source\PSoC5/LCD.c ****     * Return:
 565:Generated_Source\PSoC5/LCD.c ****     *  None.
 566:Generated_Source\PSoC5/LCD.c ****     *
 567:Generated_Source\PSoC5/LCD.c ****     *******************************************************************************/
 568:Generated_Source\PSoC5/LCD.c ****     void LCD_PrintInt8(uint8 value) 
 569:Generated_Source\PSoC5/LCD.c ****     {
 717              		.loc 1 569 0
 718              		.cfi_startproc
 719              		@ args = 0, pretend = 0, frame = 0
 720              		@ frame_needed = 0, uses_anonymous_args = 0
 721              	.LVL77:
 722 0000 38B5     		push	{r3, r4, r5, lr}
 723              		.cfi_def_cfa_offset 16
 724              		.cfi_offset 3, -16
 725              		.cfi_offset 4, -12
 726              		.cfi_offset 5, -8
 727              		.cfi_offset 14, -4
 728              		.loc 1 569 0
 729 0002 0446     		mov	r4, r0
 570:Generated_Source\PSoC5/LCD.c ****         static char8 const CYCODE LCD_hex[16u] = "0123456789ABCDEF";
 571:Generated_Source\PSoC5/LCD.c ****         
 572:Generated_Source\PSoC5/LCD.c ****         LCD_PutChar((char8) LCD_hex[value >> LCD_BYTE_UPPER_NIBBLE_SHIFT]);
 730              		.loc 1 572 0
 731 0004 054D     		ldr	r5, .L44
ARM GAS  C:\Users\emman\AppData\Local\Temp\cc6b9iKy.s 			page 26


 732 0006 0309     		lsrs	r3, r0, #4
 733              	.LBB6:
 734              	.LBB7:
 266:Generated_Source\PSoC5/LCD.c **** }
 735              		.loc 1 266 0
 736 0008 E85C     		ldrb	r0, [r5, r3]	@ zero_extendqisi2
 737              	.LVL78:
 738              	.LBE7:
 739              	.LBE6:
 573:Generated_Source\PSoC5/LCD.c ****         LCD_PutChar((char8) LCD_hex[value & LCD_BYTE_LOWER_NIBBLE_MASK]);
 740              		.loc 1 573 0
 741 000a 04F00F04 		and	r4, r4, #15
 742              	.LBB9:
 743              	.LBB8:
 266:Generated_Source\PSoC5/LCD.c **** }
 744              		.loc 1 266 0
 745 000e FFF7FEFF 		bl	LCD_WriteData
 746              	.LVL79:
 747              	.LBE8:
 748              	.LBE9:
 749              	.LBB10:
 750              	.LBB11:
 751 0012 285D     		ldrb	r0, [r5, r4]	@ zero_extendqisi2
 752              	.LBE11:
 753              	.LBE10:
 574:Generated_Source\PSoC5/LCD.c ****     }
 754              		.loc 1 574 0
 755 0014 BDE83840 		pop	{r3, r4, r5, lr}
 756              		.cfi_restore 14
 757              		.cfi_restore 5
 758              		.cfi_restore 4
 759              		.cfi_restore 3
 760              		.cfi_def_cfa_offset 0
 761              	.LBB13:
 762              	.LBB12:
 266:Generated_Source\PSoC5/LCD.c **** }
 763              		.loc 1 266 0
 764 0018 FFF7FEBF 		b	LCD_WriteData
 765              	.LVL80:
 766              	.L45:
 767              		.align	2
 768              	.L44:
 769 001c 00000000 		.word	.LANCHOR1
 770              	.LBE12:
 771              	.LBE13:
 772              		.cfi_endproc
 773              	.LFE12:
 774              		.size	LCD_PrintInt8, .-LCD_PrintInt8
 775              		.section	.text.LCD_PrintInt16,"ax",%progbits
 776              		.align	1
 777              		.global	LCD_PrintInt16
 778              		.thumb
 779              		.thumb_func
 780              		.type	LCD_PrintInt16, %function
 781              	LCD_PrintInt16:
 782              	.LFB13:
 575:Generated_Source\PSoC5/LCD.c **** 
ARM GAS  C:\Users\emman\AppData\Local\Temp\cc6b9iKy.s 			page 27


 576:Generated_Source\PSoC5/LCD.c **** 
 577:Generated_Source\PSoC5/LCD.c ****     /*******************************************************************************
 578:Generated_Source\PSoC5/LCD.c ****     *  Function Name: LCD_PrintInt16
 579:Generated_Source\PSoC5/LCD.c ****     ********************************************************************************
 580:Generated_Source\PSoC5/LCD.c ****     *
 581:Generated_Source\PSoC5/LCD.c ****     * Summary:
 582:Generated_Source\PSoC5/LCD.c ****     *  Print a uint16 as four ASCII characters.
 583:Generated_Source\PSoC5/LCD.c ****     *
 584:Generated_Source\PSoC5/LCD.c ****     * Parameters:
 585:Generated_Source\PSoC5/LCD.c ****     *  value: The uint16 to be printed out as ASCII characters.
 586:Generated_Source\PSoC5/LCD.c ****     *
 587:Generated_Source\PSoC5/LCD.c ****     * Return:
 588:Generated_Source\PSoC5/LCD.c ****     *  None.
 589:Generated_Source\PSoC5/LCD.c ****     *
 590:Generated_Source\PSoC5/LCD.c ****     *******************************************************************************/
 591:Generated_Source\PSoC5/LCD.c ****     void LCD_PrintInt16(uint16 value) 
 592:Generated_Source\PSoC5/LCD.c ****     {
 783              		.loc 1 592 0
 784              		.cfi_startproc
 785              		@ args = 0, pretend = 0, frame = 0
 786              		@ frame_needed = 0, uses_anonymous_args = 0
 787              	.LVL81:
 788 0000 10B5     		push	{r4, lr}
 789              		.cfi_def_cfa_offset 8
 790              		.cfi_offset 4, -8
 791              		.cfi_offset 14, -4
 792              		.loc 1 592 0
 793 0002 0446     		mov	r4, r0
 593:Generated_Source\PSoC5/LCD.c ****         LCD_PrintInt8((uint8)(value >> LCD_U16_UPPER_BYTE_SHIFT));
 794              		.loc 1 593 0
 795 0004 000A     		lsrs	r0, r0, #8
 796              	.LVL82:
 797 0006 FFF7FEFF 		bl	LCD_PrintInt8
 798              	.LVL83:
 594:Generated_Source\PSoC5/LCD.c ****         LCD_PrintInt8((uint8)(value & LCD_U16_LOWER_BYTE_MASK));
 799              		.loc 1 594 0
 800 000a E0B2     		uxtb	r0, r4
 595:Generated_Source\PSoC5/LCD.c ****     }
 801              		.loc 1 595 0
 802 000c BDE81040 		pop	{r4, lr}
 803              		.cfi_restore 14
 804              		.cfi_restore 4
 805              		.cfi_def_cfa_offset 0
 594:Generated_Source\PSoC5/LCD.c ****         LCD_PrintInt8((uint8)(value & LCD_U16_LOWER_BYTE_MASK));
 806              		.loc 1 594 0
 807 0010 FFF7FEBF 		b	LCD_PrintInt8
 808              	.LVL84:
 809              		.cfi_endproc
 810              	.LFE13:
 811              		.size	LCD_PrintInt16, .-LCD_PrintInt16
 812              		.section	.text.LCD_PrintInt32,"ax",%progbits
 813              		.align	1
 814              		.global	LCD_PrintInt32
 815              		.thumb
 816              		.thumb_func
 817              		.type	LCD_PrintInt32, %function
 818              	LCD_PrintInt32:
ARM GAS  C:\Users\emman\AppData\Local\Temp\cc6b9iKy.s 			page 28


 819              	.LFB14:
 596:Generated_Source\PSoC5/LCD.c **** 
 597:Generated_Source\PSoC5/LCD.c ****     
 598:Generated_Source\PSoC5/LCD.c ****     /*******************************************************************************
 599:Generated_Source\PSoC5/LCD.c ****     *  Function Name: LCD_PrintInt32
 600:Generated_Source\PSoC5/LCD.c ****     ********************************************************************************
 601:Generated_Source\PSoC5/LCD.c ****     *
 602:Generated_Source\PSoC5/LCD.c ****     * Summary:
 603:Generated_Source\PSoC5/LCD.c ****     *  Print a uint32 hexadecimal number as eight ASCII characters.
 604:Generated_Source\PSoC5/LCD.c ****     *
 605:Generated_Source\PSoC5/LCD.c ****     * Parameters:
 606:Generated_Source\PSoC5/LCD.c ****     *  value: The uint32 to be printed out as ASCII characters.
 607:Generated_Source\PSoC5/LCD.c ****     *
 608:Generated_Source\PSoC5/LCD.c ****     * Return:
 609:Generated_Source\PSoC5/LCD.c ****     *  None.
 610:Generated_Source\PSoC5/LCD.c ****     *
 611:Generated_Source\PSoC5/LCD.c ****     *******************************************************************************/
 612:Generated_Source\PSoC5/LCD.c ****     void LCD_PrintInt32(uint32 value) 
 613:Generated_Source\PSoC5/LCD.c ****     {
 820              		.loc 1 613 0
 821              		.cfi_startproc
 822              		@ args = 0, pretend = 0, frame = 0
 823              		@ frame_needed = 0, uses_anonymous_args = 0
 824              	.LVL85:
 825 0000 38B5     		push	{r3, r4, r5, lr}
 826              		.cfi_def_cfa_offset 16
 827              		.cfi_offset 3, -16
 828              		.cfi_offset 4, -12
 829              		.cfi_offset 5, -8
 830              		.cfi_offset 14, -4
 831              		.loc 1 613 0
 832 0002 0546     		mov	r5, r0
 614:Generated_Source\PSoC5/LCD.c ****         uint8 shift = LCD_32_BIT_SHIFT;
 833              		.loc 1 614 0
 834 0004 2024     		movs	r4, #32
 835              	.LVL86:
 836              	.L48:
 615:Generated_Source\PSoC5/LCD.c ****         
 616:Generated_Source\PSoC5/LCD.c ****         while (shift != 0u)
 617:Generated_Source\PSoC5/LCD.c ****         {
 618:Generated_Source\PSoC5/LCD.c ****             /* "shift" var is to be subtracted by 8 prior shifting. This implements 
 619:Generated_Source\PSoC5/LCD.c ****             * shifting by 24, 16, 8 and 0u. 
 620:Generated_Source\PSoC5/LCD.c ****             */
 621:Generated_Source\PSoC5/LCD.c ****             shift -= LCD_8_BIT_SHIFT;
 837              		.loc 1 621 0
 838 0006 083C     		subs	r4, r4, #8
 839              	.LVL87:
 840 0008 E4B2     		uxtb	r4, r4
 841              	.LVL88:
 622:Generated_Source\PSoC5/LCD.c ****             
 623:Generated_Source\PSoC5/LCD.c ****             /* Print 8 bits of uint32 hex number */
 624:Generated_Source\PSoC5/LCD.c ****             LCD_PrintInt8((uint8) ((uint32) (value >> shift)));
 842              		.loc 1 624 0
 843 000a 25FA04F0 		lsr	r0, r5, r4
 844 000e C0B2     		uxtb	r0, r0
 845 0010 FFF7FEFF 		bl	LCD_PrintInt8
 846              	.LVL89:
ARM GAS  C:\Users\emman\AppData\Local\Temp\cc6b9iKy.s 			page 29


 616:Generated_Source\PSoC5/LCD.c ****         {
 847              		.loc 1 616 0
 848 0014 002C     		cmp	r4, #0
 849 0016 F6D1     		bne	.L48
 625:Generated_Source\PSoC5/LCD.c ****         }
 626:Generated_Source\PSoC5/LCD.c ****     }
 850              		.loc 1 626 0
 851 0018 38BD     		pop	{r3, r4, r5, pc}
 852              		.cfi_endproc
 853              	.LFE14:
 854              		.size	LCD_PrintInt32, .-LCD_PrintInt32
 855              		.section	.text.LCD_PrintU32Number,"ax",%progbits
 856              		.align	1
 857              		.global	LCD_PrintU32Number
 858              		.thumb
 859              		.thumb_func
 860              		.type	LCD_PrintU32Number, %function
 861              	LCD_PrintU32Number:
 862              	.LFB15:
 627:Generated_Source\PSoC5/LCD.c ****     
 628:Generated_Source\PSoC5/LCD.c ****     
 629:Generated_Source\PSoC5/LCD.c ****     /*******************************************************************************
 630:Generated_Source\PSoC5/LCD.c ****     *  Function Name: LCD_PrintNumber
 631:Generated_Source\PSoC5/LCD.c ****     ********************************************************************************
 632:Generated_Source\PSoC5/LCD.c ****     *
 633:Generated_Source\PSoC5/LCD.c ****     * Summary:
 634:Generated_Source\PSoC5/LCD.c ****     *  Print an uint16 value as a left-justified decimal value.
 635:Generated_Source\PSoC5/LCD.c ****     *
 636:Generated_Source\PSoC5/LCD.c ****     * Parameters:
 637:Generated_Source\PSoC5/LCD.c ****     *  value: A 16-bit value to be printed in ASCII characters as a decimal number
 638:Generated_Source\PSoC5/LCD.c ****     *
 639:Generated_Source\PSoC5/LCD.c ****     * Return:
 640:Generated_Source\PSoC5/LCD.c ****     *  None.
 641:Generated_Source\PSoC5/LCD.c ****     *
 642:Generated_Source\PSoC5/LCD.c ****     * Note:
 643:Generated_Source\PSoC5/LCD.c ****     *  This function is implemented as a macro.
 644:Generated_Source\PSoC5/LCD.c ****     *
 645:Generated_Source\PSoC5/LCD.c ****     *******************************************************************************/
 646:Generated_Source\PSoC5/LCD.c **** 
 647:Generated_Source\PSoC5/LCD.c ****     
 648:Generated_Source\PSoC5/LCD.c ****     /*******************************************************************************
 649:Generated_Source\PSoC5/LCD.c ****     *  Function Name: LCD_PrintU32Number
 650:Generated_Source\PSoC5/LCD.c ****     ********************************************************************************
 651:Generated_Source\PSoC5/LCD.c ****     *
 652:Generated_Source\PSoC5/LCD.c ****     * Summary:
 653:Generated_Source\PSoC5/LCD.c ****     *  Print an uint32 value as a left-justified decimal value.
 654:Generated_Source\PSoC5/LCD.c ****     *
 655:Generated_Source\PSoC5/LCD.c ****     * Parameters:
 656:Generated_Source\PSoC5/LCD.c ****     *  value: A 32-bit value to be printed in ASCII characters as a decimal number
 657:Generated_Source\PSoC5/LCD.c ****     *
 658:Generated_Source\PSoC5/LCD.c ****     * Return:
 659:Generated_Source\PSoC5/LCD.c ****     *  None.
 660:Generated_Source\PSoC5/LCD.c ****     *
 661:Generated_Source\PSoC5/LCD.c ****     *******************************************************************************/
 662:Generated_Source\PSoC5/LCD.c ****     void LCD_PrintU32Number(uint32 value) 
 663:Generated_Source\PSoC5/LCD.c ****     {
 863              		.loc 1 663 0
ARM GAS  C:\Users\emman\AppData\Local\Temp\cc6b9iKy.s 			page 30


 864              		.cfi_startproc
 865              		@ args = 0, pretend = 0, frame = 16
 866              		@ frame_needed = 0, uses_anonymous_args = 0
 867              	.LVL90:
 868 0000 30B5     		push	{r4, r5, lr}
 869              		.cfi_def_cfa_offset 12
 870              		.cfi_offset 4, -12
 871              		.cfi_offset 5, -8
 872              		.cfi_offset 14, -4
 664:Generated_Source\PSoC5/LCD.c ****         uint8 tmpDigit;
 665:Generated_Source\PSoC5/LCD.c ****         char8 number[LCD_NUMBER_OF_REMAINDERS_U32 + 1u];
 666:Generated_Source\PSoC5/LCD.c ****         uint8 digIndex = LCD_NUMBER_OF_REMAINDERS_U32;
 667:Generated_Source\PSoC5/LCD.c ****         
 668:Generated_Source\PSoC5/LCD.c ****         /* This API will output a decimal number as a string and that string will be 
 669:Generated_Source\PSoC5/LCD.c ****         * filled from end to start. Set Null termination character first.
 670:Generated_Source\PSoC5/LCD.c ****         */
 671:Generated_Source\PSoC5/LCD.c ****         number[digIndex] = (char8) '\0';
 873              		.loc 1 671 0
 874 0002 0023     		movs	r3, #0
 663:Generated_Source\PSoC5/LCD.c ****         uint8 tmpDigit;
 875              		.loc 1 663 0
 876 0004 85B0     		sub	sp, sp, #20
 877              		.cfi_def_cfa_offset 32
 878              		.loc 1 671 0
 879 0006 8DF80E30 		strb	r3, [sp, #14]
 880              	.LVL91:
 672:Generated_Source\PSoC5/LCD.c ****         digIndex--;
 881              		.loc 1 672 0
 882 000a 0922     		movs	r2, #9
 673:Generated_Source\PSoC5/LCD.c ****         
 674:Generated_Source\PSoC5/LCD.c ****         /* Load these in reverse order */
 675:Generated_Source\PSoC5/LCD.c ****         while(value >= LCD_TEN)
 676:Generated_Source\PSoC5/LCD.c ****         {
 677:Generated_Source\PSoC5/LCD.c ****             /* Extract decimal digit, indexed by 'digIndex', from 'value' and
 678:Generated_Source\PSoC5/LCD.c ****             * convert it to ASCII character.
 679:Generated_Source\PSoC5/LCD.c ****             */
 680:Generated_Source\PSoC5/LCD.c ****             tmpDigit = (uint8) (((uint8) (value % LCD_TEN)) + (uint8) LCD_ZERO_CHAR_ASCII);
 681:Generated_Source\PSoC5/LCD.c ****             
 682:Generated_Source\PSoC5/LCD.c ****             /* Temporary variable 'tmpDigit' is used to avoid Violation of MISRA rule 
 683:Generated_Source\PSoC5/LCD.c ****             * #10.3.
 684:Generated_Source\PSoC5/LCD.c ****             */
 685:Generated_Source\PSoC5/LCD.c ****             number[digIndex] = (char8) tmpDigit;
 883              		.loc 1 685 0
 884 000c 0A24     		movs	r4, #10
 885              	.LVL92:
 886              	.L51:
 887 000e 04AB     		add	r3, sp, #16
 675:Generated_Source\PSoC5/LCD.c ****         {
 888              		.loc 1 675 0
 889 0010 0928     		cmp	r0, #9
 890 0012 03EB0201 		add	r1, r3, r2
 891 0016 0AD9     		bls	.L53
 892              	.LVL93:
 893              		.loc 1 685 0
 894 0018 B0FBF4F5 		udiv	r5, r0, r4
 895 001c 04FB1503 		mls	r3, r4, r5, r0
 686:Generated_Source\PSoC5/LCD.c ****             value /= LCD_TEN;
ARM GAS  C:\Users\emman\AppData\Local\Temp\cc6b9iKy.s 			page 31


 687:Generated_Source\PSoC5/LCD.c ****             digIndex--;
 896              		.loc 1 687 0
 897 0020 013A     		subs	r2, r2, #1
 898              	.LVL94:
 685:Generated_Source\PSoC5/LCD.c ****             value /= LCD_TEN;
 899              		.loc 1 685 0
 900 0022 3033     		adds	r3, r3, #48
 901 0024 01F80C3C 		strb	r3, [r1, #-12]
 686:Generated_Source\PSoC5/LCD.c ****             value /= LCD_TEN;
 902              		.loc 1 686 0
 903 0028 2846     		mov	r0, r5
 904              	.LVL95:
 905              		.loc 1 687 0
 906 002a D2B2     		uxtb	r2, r2
 907              	.LVL96:
 908 002c EFE7     		b	.L51
 909              	.L53:
 910              	.LVL97:
 688:Generated_Source\PSoC5/LCD.c ****         }
 689:Generated_Source\PSoC5/LCD.c ****         
 690:Generated_Source\PSoC5/LCD.c ****         /* Extract last decimal digit 'digIndex', from the 'value' and convert it
 691:Generated_Source\PSoC5/LCD.c ****         * to ASCII character.
 692:Generated_Source\PSoC5/LCD.c ****         */
 693:Generated_Source\PSoC5/LCD.c ****         tmpDigit = (uint8) (((uint8)(value % LCD_TEN)) + (uint8) LCD_ZERO_CHAR_ASCII);
 694:Generated_Source\PSoC5/LCD.c ****         number[digIndex] = (char8) tmpDigit;
 695:Generated_Source\PSoC5/LCD.c **** 
 696:Generated_Source\PSoC5/LCD.c ****         /* Print out number */
 697:Generated_Source\PSoC5/LCD.c ****         LCD_PrintString(&number[digIndex]);
 911              		.loc 1 697 0
 912 002e 01AB     		add	r3, sp, #4
 694:Generated_Source\PSoC5/LCD.c **** 
 913              		.loc 1 694 0
 914 0030 3030     		adds	r0, r0, #48
 915              	.LVL98:
 916 0032 01F80C0C 		strb	r0, [r1, #-12]
 917              		.loc 1 697 0
 918 0036 9818     		adds	r0, r3, r2
 919              	.LVL99:
 920 0038 FFF7FEFF 		bl	LCD_PrintString
 921              	.LVL100:
 698:Generated_Source\PSoC5/LCD.c ****     }
 922              		.loc 1 698 0
 923 003c 05B0     		add	sp, sp, #20
 924              		.cfi_def_cfa_offset 12
 925              		@ sp needed
 926 003e 30BD     		pop	{r4, r5, pc}
 927              		.cfi_endproc
 928              	.LFE15:
 929              		.size	LCD_PrintU32Number, .-LCD_PrintU32Number
 930              		.global	LCD_initVar
 931              		.global	LCD_enableState
 932              		.section	.rodata
 933              		.set	.LANCHOR1,. + 0
 934              		.type	LCD_hex.5038, %object
 935              		.size	LCD_hex.5038, 16
 936              	LCD_hex.5038:
 937 0000 30313233 		.ascii	"0123456789ABCDEF"
ARM GAS  C:\Users\emman\AppData\Local\Temp\cc6b9iKy.s 			page 32


 937      34353637 
 937      38394142 
 937      43444546 
 938              		.bss
 939              		.set	.LANCHOR0,. + 0
 940              		.type	LCD_enableState, %object
 941              		.size	LCD_enableState, 1
 942              	LCD_enableState:
 943 0000 00       		.space	1
 944              		.type	LCD_initVar, %object
 945              		.size	LCD_initVar, 1
 946              	LCD_initVar:
 947 0001 00       		.space	1
 948              		.text
 949              	.Letext0:
 950              		.file 2 "Generated_Source\\PSoC5\\cytypes.h"
 951              		.file 3 "Generated_Source\\PSoC5\\CyLib.h"