ARM GAS  C:\Users\esancho\AppData\Local\Temp\cc702nrO.s 			page 1


   1              		.syntax unified
   2              		.cpu cortex-m3
   3              		.fpu softvfp
   4              		.eabi_attribute 20, 1
   5              		.eabi_attribute 21, 1
   6              		.eabi_attribute 23, 3
   7              		.eabi_attribute 24, 1
   8              		.eabi_attribute 25, 1
   9              		.eabi_attribute 26, 1
  10              		.eabi_attribute 30, 4
  11              		.eabi_attribute 34, 1
  12              		.eabi_attribute 18, 4
  13              		.thumb
  14              		.syntax unified
  15              		.file	"main.c"
  16              		.text
  17              	.Ltext0:
  18              		.cfi_sections	.debug_frame
  19              		.global	__aeabi_fcmpgt
  20              		.global	__aeabi_fcmplt
  21              		.global	__aeabi_fdiv
  22              		.global	__aeabi_fmul
  23              		.global	__aeabi_fadd
  24              		.global	__aeabi_fsub
  25              		.global	__aeabi_f2iz
  26              		.section	.text.mapANGtoTIME,"ax",%progbits
  27              		.align	1
  28              		.global	mapANGtoTIME
  29              		.thumb
  30              		.thumb_func
  31              		.type	mapANGtoTIME, %function
  32              	mapANGtoTIME:
  33              	.LFB64:
  34              		.file 1 "main.c"
   1:main.c        **** /* ========================================
   2:main.c        ****  *
   3:main.c        ****  * Copyright YOUR COMPANY, THE YEAR
   4:main.c        ****  * All Rights Reserved
   5:main.c        ****  * UNPUBLISHED, LICENSED SOFTWARE.
   6:main.c        ****  *
   7:main.c        ****  * CONFIDENTIAL AND PROPRIETARY INFORMATION
   8:main.c        ****  * WHICH IS THE PROPERTY OF your company.
   9:main.c        ****  *
  10:main.c        ****  * ========================================
  11:main.c        **** */
  12:main.c        **** #include "project.h"
  13:main.c        **** #include <stdio.h>
  14:main.c        **** 
  15:main.c        **** const int PWMSERVO_MIN = 544;
  16:main.c        **** const int PWMSERVO_MAX = 2400;
  17:main.c        **** const int PWMSERVO_X_CORRECTION = 90-9;
  18:main.c        **** const int PWMSERVO_Y_CORRECTION = 90+3;
  19:main.c        **** const float X_Volt_EMPMAX = 4.5;
  20:main.c        **** const float Y_Volt_EMPMAX = 4.3;
  21:main.c        **** const float X_Loss = 0.5;
  22:main.c        **** const float Y_Loss = 0.7;
  23:main.c        **** float Vddval = 5;
ARM GAS  C:\Users\esancho\AppData\Local\Temp\cc702nrO.s 			page 2


  24:main.c        **** float Vssval = 0;
  25:main.c        **** 
  26:main.c        **** 
  27:main.c        **** //Definiendo funciones que utilizaremos en nuestro sistema de control
  28:main.c        **** int mapANGtoTIME(float Angulo){ //Esta función mapea apartir de un rango dado a otro rango dado.
  35              		.loc 1 28 0
  36              		.cfi_startproc
  37              		@ args = 0, pretend = 0, frame = 0
  38              		@ frame_needed = 0, uses_anonymous_args = 0
  39              	.LVL0:
  40 0000 10B5     		push	{r4, lr}
  41              		.cfi_def_cfa_offset 8
  42              		.cfi_offset 4, -8
  43              		.cfi_offset 14, -4
  29:main.c        ****     if (0<Angulo && Angulo<180){
  44              		.loc 1 29 0
  45 0002 0021     		movs	r1, #0
  28:main.c        ****     if (0<Angulo && Angulo<180){
  46              		.loc 1 28 0
  47 0004 0446     		mov	r4, r0
  48              		.loc 1 29 0
  49 0006 FFF7FEFF 		bl	__aeabi_fcmpgt
  50              	.LVL1:
  51 000a A8B1     		cbz	r0, .L10
  52              		.loc 1 29 0 is_stmt 0 discriminator 1
  53 000c 0C49     		ldr	r1, .L12
  54 000e 2046     		mov	r0, r4
  55 0010 FFF7FEFF 		bl	__aeabi_fcmplt
  56              	.LVL2:
  57 0014 80B1     		cbz	r0, .L10
  58              	.LVL3:
  59              	.LBB6:
  60              	.LBB7:
  30:main.c        ****         float angrelativo = (Angulo)/180;
  31:main.c        ****         float timerelative= angrelativo*(PWMSERVO_MAX-PWMSERVO_MIN);
  32:main.c        ****         return timerelative+PWMSERVO_MIN-1;
  61              		.loc 1 32 0 is_stmt 1
  62 0016 0A49     		ldr	r1, .L12
  63 0018 2046     		mov	r0, r4
  64 001a FFF7FEFF 		bl	__aeabi_fdiv
  65              	.LVL4:
  66 001e 0949     		ldr	r1, .L12+4
  67 0020 FFF7FEFF 		bl	__aeabi_fmul
  68              	.LVL5:
  69 0024 0849     		ldr	r1, .L12+8
  70 0026 FFF7FEFF 		bl	__aeabi_fadd
  71              	.LVL6:
  72 002a 4FF07E51 		mov	r1, #1065353216
  73 002e FFF7FEFF 		bl	__aeabi_fsub
  74              	.LVL7:
  75 0032 FFF7FEFF 		bl	__aeabi_f2iz
  76              	.LVL8:
  77 0036 10BD     		pop	{r4, pc}
  78              	.LVL9:
  79              	.L10:
  80              	.LBE7:
  81              	.LBE6:
ARM GAS  C:\Users\esancho\AppData\Local\Temp\cc702nrO.s 			page 3


  33:main.c        ****     }
  34:main.c        ****     else{
  35:main.c        ****         return 1472;
  82              		.loc 1 35 0
  83 0038 4FF4B860 		mov	r0, #1472
  36:main.c        ****     }
  37:main.c        **** }
  84              		.loc 1 37 0
  85 003c 10BD     		pop	{r4, pc}
  86              	.LVL10:
  87              	.L13:
  88 003e 00BF     		.align	2
  89              	.L12:
  90 0040 00003443 		.word	1127481344
  91 0044 0000E844 		.word	1156055040
  92 0048 00000844 		.word	1141374976
  93              		.cfi_endproc
  94              	.LFE64:
  95              		.size	mapANGtoTIME, .-mapANGtoTIME
  96              		.section	.text.SetServoX,"ax",%progbits
  97              		.align	1
  98              		.global	SetServoX
  99              		.thumb
 100              		.thumb_func
 101              		.type	SetServoX, %function
 102              	SetServoX:
 103              	.LFB65:
  38:main.c        **** void SetServoX(float Angulo){
 104              		.loc 1 38 0
 105              		.cfi_startproc
 106              		@ args = 0, pretend = 0, frame = 0
 107              		@ frame_needed = 0, uses_anonymous_args = 0
 108              	.LVL11:
 109 0000 08B5     		push	{r3, lr}
 110              		.cfi_def_cfa_offset 8
 111              		.cfi_offset 3, -8
 112              		.cfi_offset 14, -4
  39:main.c        ****     Angulo=(Angulo*-1)+PWMSERVO_X_CORRECTION;
  40:main.c        ****     PWM_X_WriteCompare(mapANGtoTIME(Angulo)); 
 113              		.loc 1 40 0
 114 0002 0146     		mov	r1, r0
 115 0004 0448     		ldr	r0, .L15
 116              	.LVL12:
 117 0006 FFF7FEFF 		bl	__aeabi_fsub
 118              	.LVL13:
 119 000a FFF7FEFF 		bl	mapANGtoTIME
 120              	.LVL14:
  41:main.c        ****     return;
  42:main.c        **** }
 121              		.loc 1 42 0
 122 000e BDE80840 		pop	{r3, lr}
 123              		.cfi_restore 14
 124              		.cfi_restore 3
 125              		.cfi_def_cfa_offset 0
  40:main.c        ****     return;
 126              		.loc 1 40 0
 127 0012 80B2     		uxth	r0, r0
ARM GAS  C:\Users\esancho\AppData\Local\Temp\cc702nrO.s 			page 4


 128 0014 FFF7FEBF 		b	PWM_X_WriteCompare
 129              	.LVL15:
 130              	.L16:
 131              		.align	2
 132              	.L15:
 133 0018 0000A242 		.word	1117913088
 134              		.cfi_endproc
 135              	.LFE65:
 136              		.size	SetServoX, .-SetServoX
 137              		.section	.text.SetServoY,"ax",%progbits
 138              		.align	1
 139              		.global	SetServoY
 140              		.thumb
 141              		.thumb_func
 142              		.type	SetServoY, %function
 143              	SetServoY:
 144              	.LFB66:
  43:main.c        **** void SetServoY(float Angulo){
 145              		.loc 1 43 0
 146              		.cfi_startproc
 147              		@ args = 0, pretend = 0, frame = 0
 148              		@ frame_needed = 0, uses_anonymous_args = 0
 149              	.LVL16:
 150 0000 08B5     		push	{r3, lr}
 151              		.cfi_def_cfa_offset 8
 152              		.cfi_offset 3, -8
 153              		.cfi_offset 14, -4
  44:main.c        ****     Angulo=(Angulo*-1)+PWMSERVO_Y_CORRECTION;
  45:main.c        ****     PWM_Y_WriteCompare(mapANGtoTIME(Angulo));
 154              		.loc 1 45 0
 155 0002 0146     		mov	r1, r0
 156 0004 0448     		ldr	r0, .L18
 157              	.LVL17:
 158 0006 FFF7FEFF 		bl	__aeabi_fsub
 159              	.LVL18:
 160 000a FFF7FEFF 		bl	mapANGtoTIME
 161              	.LVL19:
  46:main.c        ****     return;
  47:main.c        **** }
 162              		.loc 1 47 0
 163 000e BDE80840 		pop	{r3, lr}
 164              		.cfi_restore 14
 165              		.cfi_restore 3
 166              		.cfi_def_cfa_offset 0
  45:main.c        ****     return;
 167              		.loc 1 45 0
 168 0012 80B2     		uxth	r0, r0
 169 0014 FFF7FEBF 		b	PWM_Y_WriteCompare
 170              	.LVL20:
 171              	.L19:
 172              		.align	2
 173              	.L18:
 174 0018 0000BA42 		.word	1119485952
 175              		.cfi_endproc
 176              	.LFE66:
 177              		.size	SetServoY, .-SetServoY
 178              		.section	.text.Volt_update,"ax",%progbits
ARM GAS  C:\Users\esancho\AppData\Local\Temp\cc702nrO.s 			page 5


 179              		.align	1
 180              		.global	Volt_update
 181              		.thumb
 182              		.thumb_func
 183              		.type	Volt_update, %function
 184              	Volt_update:
 185              	.LFB67:
  48:main.c        **** void Volt_update(void){ //Actualiza el valor del voltaje minimo y maximo que puede leer para ajusta
 186              		.loc 1 48 0
 187              		.cfi_startproc
 188              		@ args = 0, pretend = 0, frame = 0
 189              		@ frame_needed = 0, uses_anonymous_args = 0
 190 0000 08B5     		push	{r3, lr}
 191              		.cfi_def_cfa_offset 8
 192              		.cfi_offset 3, -8
 193              		.cfi_offset 14, -4
  49:main.c        ****     AxisSelector_Write(0xFF);   //Seleccionamos el eje X poniendo unos.
 194              		.loc 1 49 0
 195 0002 FF20     		movs	r0, #255
 196 0004 FFF7FEFF 		bl	AxisSelector_Write
 197              	.LVL21:
  50:main.c        ****     CyDelay(1);
 198              		.loc 1 50 0
 199 0008 0120     		movs	r0, #1
 200 000a FFF7FEFF 		bl	CyDelay
 201              	.LVL22:
  51:main.c        ****     Vddval = ADC_YAxis_CountsTo_Volts(ADC_YAxis_GetResult16());
 202              		.loc 1 51 0
 203 000e FFF7FEFF 		bl	ADC_YAxis_GetResult16
 204              	.LVL23:
 205 0012 FFF7FEFF 		bl	ADC_YAxis_CountsTo_Volts
 206              	.LVL24:
 207 0016 074B     		ldr	r3, .L21
 208 0018 1860     		str	r0, [r3]	@ float
  52:main.c        ****     AxisSelector_Write(0x00);   //Seleccionamos el eje Y poniendo ceros.
 209              		.loc 1 52 0
 210 001a 0020     		movs	r0, #0
 211 001c FFF7FEFF 		bl	AxisSelector_Write
 212              	.LVL25:
  53:main.c        ****     CyDelay(1);
 213              		.loc 1 53 0
 214 0020 0120     		movs	r0, #1
 215 0022 FFF7FEFF 		bl	CyDelay
 216              	.LVL26:
  54:main.c        ****     Vssval = ADC_XAxis_CountsTo_Volts(ADC_XAxis_GetResult16());
 217              		.loc 1 54 0
 218 0026 FFF7FEFF 		bl	ADC_XAxis_GetResult16
 219              	.LVL27:
 220 002a FFF7FEFF 		bl	ADC_XAxis_CountsTo_Volts
 221              	.LVL28:
 222 002e 024B     		ldr	r3, .L21+4
 223 0030 1860     		str	r0, [r3]	@ float
 224 0032 08BD     		pop	{r3, pc}
 225              	.L22:
 226              		.align	2
 227              	.L21:
 228 0034 00000000 		.word	.LANCHOR0
ARM GAS  C:\Users\esancho\AppData\Local\Temp\cc702nrO.s 			page 6


 229 0038 00000000 		.word	.LANCHOR1
 230              		.cfi_endproc
 231              	.LFE67:
 232              		.size	Volt_update, .-Volt_update
 233              		.section	.text.ReadXAxis,"ax",%progbits
 234              		.align	1
 235              		.global	ReadXAxis
 236              		.thumb
 237              		.thumb_func
 238              		.type	ReadXAxis, %function
 239              	ReadXAxis:
 240              	.LFB68:
  55:main.c        ****     return;
  56:main.c        **** }
  57:main.c        **** float ReadXAxis(void){
 241              		.loc 1 57 0
 242              		.cfi_startproc
 243              		@ args = 0, pretend = 0, frame = 0
 244              		@ frame_needed = 0, uses_anonymous_args = 0
 245 0000 70B5     		push	{r4, r5, r6, lr}
 246              		.cfi_def_cfa_offset 16
 247              		.cfi_offset 4, -16
 248              		.cfi_offset 5, -12
 249              		.cfi_offset 6, -8
 250              		.cfi_offset 14, -4
  58:main.c        ****     float Xvolt = ADC_XAxis_CountsTo_Volts(ADC_XAxis_GetResult16());
 251              		.loc 1 58 0
 252 0002 FFF7FEFF 		bl	ADC_XAxis_GetResult16
 253              	.LVL29:
 254 0006 FFF7FEFF 		bl	ADC_XAxis_CountsTo_Volts
 255              	.LVL30:
  59:main.c        ****     float Xpos= (((Xvolt-Vssval)-((Vddval-X_Loss-Vssval)/2))/(Vddval-X_Loss-Vssval))*X_Volt_EMPMAX;
 256              		.loc 1 59 0
 257 000a 114B     		ldr	r3, .L24
  58:main.c        ****     float Xvolt = ADC_XAxis_CountsTo_Volts(ADC_XAxis_GetResult16());
 258              		.loc 1 58 0
 259 000c 0646     		mov	r6, r0
 260              	.LVL31:
 261              		.loc 1 59 0
 262 000e 1D68     		ldr	r5, [r3]	@ float
 263 0010 104B     		ldr	r3, .L24+4
 264 0012 4FF07C51 		mov	r1, #1056964608
 265 0016 1868     		ldr	r0, [r3]	@ float
 266              	.LVL32:
 267 0018 FFF7FEFF 		bl	__aeabi_fsub
 268              	.LVL33:
 269 001c 2946     		mov	r1, r5
 270 001e FFF7FEFF 		bl	__aeabi_fsub
 271              	.LVL34:
  60:main.c        ****     return Xpos;
 272              		.loc 1 60 0
 273 0022 2946     		mov	r1, r5
  59:main.c        ****     float Xpos= (((Xvolt-Vssval)-((Vddval-X_Loss-Vssval)/2))/(Vddval-X_Loss-Vssval))*X_Volt_EMPMAX;
 274              		.loc 1 59 0
 275 0024 0446     		mov	r4, r0
 276              	.LVL35:
 277              		.loc 1 60 0
ARM GAS  C:\Users\esancho\AppData\Local\Temp\cc702nrO.s 			page 7


 278 0026 3046     		mov	r0, r6
 279              	.LVL36:
 280 0028 FFF7FEFF 		bl	__aeabi_fsub
 281              	.LVL37:
 282 002c 4FF07C51 		mov	r1, #1056964608
 283 0030 0546     		mov	r5, r0
 284              	.LVL38:
 285 0032 2046     		mov	r0, r4
 286 0034 FFF7FEFF 		bl	__aeabi_fmul
 287              	.LVL39:
 288 0038 0146     		mov	r1, r0
 289 003a 2846     		mov	r0, r5
 290 003c FFF7FEFF 		bl	__aeabi_fsub
 291              	.LVL40:
 292 0040 2146     		mov	r1, r4
 293 0042 FFF7FEFF 		bl	__aeabi_fdiv
 294              	.LVL41:
 295 0046 0449     		ldr	r1, .L24+8
 296 0048 FFF7FEFF 		bl	__aeabi_fmul
 297              	.LVL42:
  61:main.c        ****     AxisSelector_Write(0x00);   //Seleccionamos el eje X poniendo unos.
  62:main.c        **** }
 298              		.loc 1 62 0
 299 004c 70BD     		pop	{r4, r5, r6, pc}
 300              	.LVL43:
 301              	.L25:
 302 004e 00BF     		.align	2
 303              	.L24:
 304 0050 00000000 		.word	.LANCHOR1
 305 0054 00000000 		.word	.LANCHOR0
 306 0058 00009040 		.word	1083179008
 307              		.cfi_endproc
 308              	.LFE68:
 309              		.size	ReadXAxis, .-ReadXAxis
 310              		.section	.text.ReadYAxis,"ax",%progbits
 311              		.align	1
 312              		.global	ReadYAxis
 313              		.thumb
 314              		.thumb_func
 315              		.type	ReadYAxis, %function
 316              	ReadYAxis:
 317              	.LFB69:
  63:main.c        **** float ReadYAxis(void){
 318              		.loc 1 63 0
 319              		.cfi_startproc
 320              		@ args = 0, pretend = 0, frame = 0
 321              		@ frame_needed = 0, uses_anonymous_args = 0
 322 0000 70B5     		push	{r4, r5, r6, lr}
 323              		.cfi_def_cfa_offset 16
 324              		.cfi_offset 4, -16
 325              		.cfi_offset 5, -12
 326              		.cfi_offset 6, -8
 327              		.cfi_offset 14, -4
  64:main.c        ****     float Yvolt = ADC_YAxis_CountsTo_Volts(ADC_YAxis_GetResult16());
 328              		.loc 1 64 0
 329 0002 FFF7FEFF 		bl	ADC_YAxis_GetResult16
 330              	.LVL44:
ARM GAS  C:\Users\esancho\AppData\Local\Temp\cc702nrO.s 			page 8


 331 0006 FFF7FEFF 		bl	ADC_YAxis_CountsTo_Volts
 332              	.LVL45:
  65:main.c        ****     float Ypos= (((Yvolt-Vssval)-((Vddval-Y_Loss-Vssval)/2))/(Vddval-Y_Loss-Vssval))*Y_Volt_EMPMAX;
 333              		.loc 1 65 0
 334 000a 104B     		ldr	r3, .L27
  64:main.c        ****     float Yvolt = ADC_YAxis_CountsTo_Volts(ADC_YAxis_GetResult16());
 335              		.loc 1 64 0
 336 000c 0646     		mov	r6, r0
 337              	.LVL46:
 338              		.loc 1 65 0
 339 000e 1D68     		ldr	r5, [r3]	@ float
 340 0010 0F4B     		ldr	r3, .L27+4
 341 0012 1049     		ldr	r1, .L27+8
 342 0014 1868     		ldr	r0, [r3]	@ float
 343              	.LVL47:
 344 0016 FFF7FEFF 		bl	__aeabi_fsub
 345              	.LVL48:
 346 001a 2946     		mov	r1, r5
 347 001c FFF7FEFF 		bl	__aeabi_fsub
 348              	.LVL49:
  66:main.c        ****     return Ypos;
 349              		.loc 1 66 0
 350 0020 2946     		mov	r1, r5
  65:main.c        ****     float Ypos= (((Yvolt-Vssval)-((Vddval-Y_Loss-Vssval)/2))/(Vddval-Y_Loss-Vssval))*Y_Volt_EMPMAX;
 351              		.loc 1 65 0
 352 0022 0446     		mov	r4, r0
 353              	.LVL50:
 354              		.loc 1 66 0
 355 0024 3046     		mov	r0, r6
 356              	.LVL51:
 357 0026 FFF7FEFF 		bl	__aeabi_fsub
 358              	.LVL52:
 359 002a 4FF07C51 		mov	r1, #1056964608
 360 002e 0546     		mov	r5, r0
 361              	.LVL53:
 362 0030 2046     		mov	r0, r4
 363 0032 FFF7FEFF 		bl	__aeabi_fmul
 364              	.LVL54:
 365 0036 0146     		mov	r1, r0
 366 0038 2846     		mov	r0, r5
 367 003a FFF7FEFF 		bl	__aeabi_fsub
 368              	.LVL55:
 369 003e 2146     		mov	r1, r4
 370 0040 FFF7FEFF 		bl	__aeabi_fdiv
 371              	.LVL56:
 372 0044 0449     		ldr	r1, .L27+12
 373 0046 FFF7FEFF 		bl	__aeabi_fmul
 374              	.LVL57:
  67:main.c        ****     AxisSelector_Write(0xFF);   //Seleccionamos el eje X poniendo unos.
  68:main.c        **** }
 375              		.loc 1 68 0
 376 004a 70BD     		pop	{r4, r5, r6, pc}
 377              	.LVL58:
 378              	.L28:
 379              		.align	2
 380              	.L27:
 381 004c 00000000 		.word	.LANCHOR1
ARM GAS  C:\Users\esancho\AppData\Local\Temp\cc702nrO.s 			page 9


 382 0050 00000000 		.word	.LANCHOR0
 383 0054 3333333F 		.word	1060320051
 384 0058 9A998940 		.word	1082759578
 385              		.cfi_endproc
 386              	.LFE69:
 387              		.size	ReadYAxis, .-ReadYAxis
 388              		.global	__aeabi_f2d
 389              		.section	.text.startup.main,"ax",%progbits
 390              		.align	1
 391              		.global	main
 392              		.thumb
 393              		.thumb_func
 394              		.type	main, %function
 395              	main:
 396              	.LFB70:
  69:main.c        **** 
  70:main.c        **** 
  71:main.c        **** int main(void)
  72:main.c        **** {   
 397              		.loc 1 72 0
 398              		.cfi_startproc
 399              		@ args = 0, pretend = 0, frame = 0
 400              		@ frame_needed = 0, uses_anonymous_args = 0
 401 0000 38B5     		push	{r3, r4, r5, lr}
 402              		.cfi_def_cfa_offset 16
 403              		.cfi_offset 3, -16
 404              		.cfi_offset 4, -12
 405              		.cfi_offset 5, -8
 406              		.cfi_offset 14, -4
  73:main.c        ****     //Inicializamos los contadores que generaran las señales para los servos
  74:main.c        ****     PWM_X_Start();
 407              		.loc 1 74 0
 408 0002 FFF7FEFF 		bl	PWM_X_Start
 409              	.LVL59:
  75:main.c        ****     PWM_Y_Start();
 410              		.loc 1 75 0
 411 0006 FFF7FEFF 		bl	PWM_Y_Start
 412              	.LVL60:
  76:main.c        ****     ADC_YAxis_Start();
 413              		.loc 1 76 0
 414 000a FFF7FEFF 		bl	ADC_YAxis_Start
 415              	.LVL61:
  77:main.c        ****     ADC_XAxis_Start();
 416              		.loc 1 77 0
 417 000e FFF7FEFF 		bl	ADC_XAxis_Start
 418              	.LVL62:
  78:main.c        ****     CyDelay(100);
 419              		.loc 1 78 0
 420 0012 6420     		movs	r0, #100
 421 0014 FFF7FEFF 		bl	CyDelay
 422              	.LVL63:
  79:main.c        ****     Volt_update();
 423              		.loc 1 79 0
 424 0018 FFF7FEFF 		bl	Volt_update
 425              	.LVL64:
  80:main.c        ****     CyGlobalIntEnable; /* Enable global interrupts. */
 426              		.loc 1 80 0
ARM GAS  C:\Users\esancho\AppData\Local\Temp\cc702nrO.s 			page 10


 427              		.syntax unified
 428              	@ 80 "main.c" 1
 429 001c 62B6     		CPSIE   i
 430              	@ 0 "" 2
 431              	.LVL65:
 432              		.thumb
 433              		.syntax unified
 434              	.L30:
  81:main.c        ****     float y = 0;
  82:main.c        ****     float x = 0;
  83:main.c        ****     /* Place your initialization/startup code here (e.g. MyInst_Start()) */
  84:main.c        ****     
  85:main.c        ****     for(;;)
  86:main.c        ****     {
  87:main.c        ****         /* Place your application code here. */
  88:main.c        ****         SetServoY(0);
 435              		.loc 1 88 0 discriminator 1
 436 001e 0020     		movs	r0, #0
 437 0020 FFF7FEFF 		bl	SetServoY
 438              	.LVL66:
  89:main.c        ****         CyDelay(10000);
 439              		.loc 1 89 0 discriminator 1
 440 0024 42F21070 		movw	r0, #10000
 441 0028 FFF7FEFF 		bl	CyDelay
 442              	.LVL67:
  90:main.c        ****         SetServoY(15);
 443              		.loc 1 90 0 discriminator 1
 444 002c 1048     		ldr	r0, .L31
 445 002e FFF7FEFF 		bl	SetServoY
 446              	.LVL68:
  91:main.c        ****         CyDelay(10000);
 447              		.loc 1 91 0 discriminator 1
 448 0032 42F21070 		movw	r0, #10000
 449 0036 FFF7FEFF 		bl	CyDelay
 450              	.LVL69:
  92:main.c        ****         x = ReadXAxis();
 451              		.loc 1 92 0 discriminator 1
 452 003a FFF7FEFF 		bl	ReadXAxis
 453              	.LVL70:
 454 003e 0546     		mov	r5, r0
 455              	.LVL71:
  93:main.c        ****         CyDelay(10);
 456              		.loc 1 93 0 discriminator 1
 457 0040 0A20     		movs	r0, #10
 458              	.LVL72:
 459 0042 FFF7FEFF 		bl	CyDelay
 460              	.LVL73:
  94:main.c        ****         y = ReadYAxis();
 461              		.loc 1 94 0 discriminator 1
 462 0046 FFF7FEFF 		bl	ReadYAxis
 463              	.LVL74:
 464 004a 0446     		mov	r4, r0
 465              	.LVL75:
  95:main.c        ****         printf("%.2f", x);
 466              		.loc 1 95 0 discriminator 1
 467 004c 2846     		mov	r0, r5
 468              	.LVL76:
ARM GAS  C:\Users\esancho\AppData\Local\Temp\cc702nrO.s 			page 11


 469 004e FFF7FEFF 		bl	__aeabi_f2d
 470              	.LVL77:
 471 0052 0246     		mov	r2, r0
 472 0054 0B46     		mov	r3, r1
 473 0056 0748     		ldr	r0, .L31+4
 474 0058 FFF7FEFF 		bl	printf
 475              	.LVL78:
  96:main.c        ****         printf("%.2f", y);
 476              		.loc 1 96 0 discriminator 1
 477 005c 2046     		mov	r0, r4
 478 005e FFF7FEFF 		bl	__aeabi_f2d
 479              	.LVL79:
 480 0062 0246     		mov	r2, r0
 481 0064 0B46     		mov	r3, r1
 482 0066 0348     		ldr	r0, .L31+4
 483 0068 FFF7FEFF 		bl	printf
 484              	.LVL80:
 485 006c D7E7     		b	.L30
 486              	.L32:
 487 006e 00BF     		.align	2
 488              	.L31:
 489 0070 00007041 		.word	1097859072
 490 0074 00000000 		.word	.LC0
 491              		.cfi_endproc
 492              	.LFE70:
 493              		.size	main, .-main
 494              		.global	Vssval
 495              		.global	Vddval
 496              		.global	Y_Loss
 497              		.global	X_Loss
 498              		.global	Y_Volt_EMPMAX
 499              		.global	X_Volt_EMPMAX
 500              		.global	PWMSERVO_Y_CORRECTION
 501              		.global	PWMSERVO_X_CORRECTION
 502              		.global	PWMSERVO_MAX
 503              		.global	PWMSERVO_MIN
 504              		.section	.rodata
 505              		.align	2
 506              		.type	Y_Loss, %object
 507              		.size	Y_Loss, 4
 508              	Y_Loss:
 509 0000 3333333F 		.word	1060320051
 510              		.type	X_Loss, %object
 511              		.size	X_Loss, 4
 512              	X_Loss:
 513 0004 0000003F 		.word	1056964608
 514              		.type	Y_Volt_EMPMAX, %object
 515              		.size	Y_Volt_EMPMAX, 4
 516              	Y_Volt_EMPMAX:
 517 0008 9A998940 		.word	1082759578
 518              		.type	X_Volt_EMPMAX, %object
 519              		.size	X_Volt_EMPMAX, 4
 520              	X_Volt_EMPMAX:
 521 000c 00009040 		.word	1083179008
 522              		.type	PWMSERVO_Y_CORRECTION, %object
 523              		.size	PWMSERVO_Y_CORRECTION, 4
 524              	PWMSERVO_Y_CORRECTION:
ARM GAS  C:\Users\esancho\AppData\Local\Temp\cc702nrO.s 			page 12


 525 0010 5D000000 		.word	93
 526              		.type	PWMSERVO_X_CORRECTION, %object
 527              		.size	PWMSERVO_X_CORRECTION, 4
 528              	PWMSERVO_X_CORRECTION:
 529 0014 51000000 		.word	81
 530              		.type	PWMSERVO_MAX, %object
 531              		.size	PWMSERVO_MAX, 4
 532              	PWMSERVO_MAX:
 533 0018 60090000 		.word	2400
 534              		.type	PWMSERVO_MIN, %object
 535              		.size	PWMSERVO_MIN, 4
 536              	PWMSERVO_MIN:
 537 001c 20020000 		.word	544
 538              		.section	.rodata.str1.1,"aMS",%progbits,1
 539              	.LC0:
 540 0000 252E3266 		.ascii	"%.2f\000"
 540      00
 541              		.data
 542              		.align	2
 543              		.set	.LANCHOR0,. + 0
 544              		.type	Vddval, %object
 545              		.size	Vddval, 4
 546              	Vddval:
 547 0000 0000A040 		.word	1084227584
 548              		.bss
 549              		.align	2
 550              		.set	.LANCHOR1,. + 0
 551              		.type	Vssval, %object
 552              		.size	Vssval, 4
 553              	Vssval:
 554 0000 00000000 		.space	4
 555              		.text
 556              	.Letext0:
 557              		.file 2 "c:\\program files (x86)\\cypress\\psoc creator\\4.2\\psoc creator\\import\\gnu\\arm\\5.4.
 558              		.file 3 "c:\\program files (x86)\\cypress\\psoc creator\\4.2\\psoc creator\\import\\gnu\\arm\\5.4.
 559              		.file 4 "Generated_Source\\PSoC5/core_cm3.h"
 560              		.file 5 "Generated_Source\\PSoC5/PWM_X.h"
 561              		.file 6 "Generated_Source\\PSoC5/PWM_Y.h"
 562              		.file 7 "Generated_Source\\PSoC5/AxisSelector.h"
 563              		.file 8 "Generated_Source\\PSoC5/CyLib.h"
 564              		.file 9 "Generated_Source\\PSoC5/ADC_YAxis.h"
 565              		.file 10 "Generated_Source\\PSoC5/ADC_XAxis.h"
 566              		.file 11 "c:\\program files (x86)\\cypress\\psoc creator\\4.2\\psoc creator\\import\\gnu\\arm\\5.4