ARM GAS  C:\Users\emman\AppData\Local\Temp\cc1Mv8tY.s 			page 1


   1              		.syntax unified
   2              		.cpu cortex-m3
   3              		.fpu softvfp
   4              		.eabi_attribute 20, 1
   5              		.eabi_attribute 21, 1
   6              		.eabi_attribute 23, 3
   7              		.eabi_attribute 24, 1
   8              		.eabi_attribute 25, 1
   9              		.eabi_attribute 26, 1
  10              		.eabi_attribute 30, 4
  11              		.eabi_attribute 34, 1
  12              		.eabi_attribute 18, 4
  13              		.thumb
  14              		.syntax unified
  15              		.file	"Potenciometro.c"
  16              		.text
  17              	.Ltext0:
  18              		.cfi_sections	.debug_frame
  19              		.section	.text.Potenciometro_Disable,"ax",%progbits
  20              		.align	1
  21              		.global	Potenciometro_Disable
  22              		.thumb
  23              		.thumb_func
  24              		.type	Potenciometro_Disable, %function
  25              	Potenciometro_Disable:
  26              	.LFB0:
  27              		.file 1 "Generated_Source\\PSoC5\\Potenciometro.c"
   1:Generated_Source\PSoC5/Potenciometro.c **** /*******************************************************************************
   2:Generated_Source\PSoC5/Potenciometro.c **** * File Name: Potenciometro.c
   3:Generated_Source\PSoC5/Potenciometro.c **** * Version 2.10
   4:Generated_Source\PSoC5/Potenciometro.c **** *
   5:Generated_Source\PSoC5/Potenciometro.c **** * Description:
   6:Generated_Source\PSoC5/Potenciometro.c **** *  This file provides the API functionality of the ADC SAR Sequencer Component
   7:Generated_Source\PSoC5/Potenciometro.c **** *
   8:Generated_Source\PSoC5/Potenciometro.c **** * Note:
   9:Generated_Source\PSoC5/Potenciometro.c **** *  None
  10:Generated_Source\PSoC5/Potenciometro.c **** *
  11:Generated_Source\PSoC5/Potenciometro.c **** ********************************************************************************
  12:Generated_Source\PSoC5/Potenciometro.c **** * Copyright 2012-2015, Cypress Semiconductor Corporation.  All rights reserved.
  13:Generated_Source\PSoC5/Potenciometro.c **** * You may use this file only in accordance with the license, terms, conditions,
  14:Generated_Source\PSoC5/Potenciometro.c **** * disclaimers, and limitations in the end user license agreement accompanying
  15:Generated_Source\PSoC5/Potenciometro.c **** * the software package with which this file was provided.
  16:Generated_Source\PSoC5/Potenciometro.c **** *******************************************************************************/
  17:Generated_Source\PSoC5/Potenciometro.c **** 
  18:Generated_Source\PSoC5/Potenciometro.c **** #include "Potenciometro.h"
  19:Generated_Source\PSoC5/Potenciometro.c **** #if(Potenciometro_IRQ_REMOVE == 0u)
  20:Generated_Source\PSoC5/Potenciometro.c ****     #include "Potenciometro_IRQ.h"
  21:Generated_Source\PSoC5/Potenciometro.c **** #endif   /* End Potenciometro_IRQ_REMOVE */
  22:Generated_Source\PSoC5/Potenciometro.c **** 
  23:Generated_Source\PSoC5/Potenciometro.c **** int16  Potenciometro_finalArray[Potenciometro_NUMBER_OF_CHANNELS];
  24:Generated_Source\PSoC5/Potenciometro.c **** uint32 Potenciometro_initVar = 0u;
  25:Generated_Source\PSoC5/Potenciometro.c **** static uint8 Potenciometro_tempChan;
  26:Generated_Source\PSoC5/Potenciometro.c **** static uint8 Potenciometro_finalChan;
  27:Generated_Source\PSoC5/Potenciometro.c **** static uint8 Potenciometro_tempTD = CY_DMA_INVALID_TD;
  28:Generated_Source\PSoC5/Potenciometro.c **** static uint8 Potenciometro_finalTD = CY_DMA_INVALID_TD;
  29:Generated_Source\PSoC5/Potenciometro.c **** 
  30:Generated_Source\PSoC5/Potenciometro.c **** 
ARM GAS  C:\Users\emman\AppData\Local\Temp\cc1Mv8tY.s 			page 2


  31:Generated_Source\PSoC5/Potenciometro.c **** /****************************************************************************
  32:Generated_Source\PSoC5/Potenciometro.c **** * Function Name: Potenciometro_Disable()
  33:Generated_Source\PSoC5/Potenciometro.c **** *****************************************************************************
  34:Generated_Source\PSoC5/Potenciometro.c **** *
  35:Generated_Source\PSoC5/Potenciometro.c **** * Summary:
  36:Generated_Source\PSoC5/Potenciometro.c **** *  Disables the component without disabling the ADC SAR.
  37:Generated_Source\PSoC5/Potenciometro.c **** *
  38:Generated_Source\PSoC5/Potenciometro.c **** * Parameters:
  39:Generated_Source\PSoC5/Potenciometro.c **** *  None.
  40:Generated_Source\PSoC5/Potenciometro.c **** *
  41:Generated_Source\PSoC5/Potenciometro.c **** * Return:
  42:Generated_Source\PSoC5/Potenciometro.c **** *  None.
  43:Generated_Source\PSoC5/Potenciometro.c **** *
  44:Generated_Source\PSoC5/Potenciometro.c **** * Side Effects:
  45:Generated_Source\PSoC5/Potenciometro.c **** *  None.
  46:Generated_Source\PSoC5/Potenciometro.c **** *
  47:Generated_Source\PSoC5/Potenciometro.c **** * Reentrant:
  48:Generated_Source\PSoC5/Potenciometro.c **** *  No.
  49:Generated_Source\PSoC5/Potenciometro.c **** *
  50:Generated_Source\PSoC5/Potenciometro.c **** ****************************************************************************/
  51:Generated_Source\PSoC5/Potenciometro.c **** void Potenciometro_Disable(void)
  52:Generated_Source\PSoC5/Potenciometro.c **** {
  28              		.loc 1 52 0
  29              		.cfi_startproc
  30              		@ args = 0, pretend = 0, frame = 0
  31              		@ frame_needed = 0, uses_anonymous_args = 0
  32 0000 70B5     		push	{r4, r5, r6, lr}
  33              		.cfi_def_cfa_offset 16
  34              		.cfi_offset 4, -16
  35              		.cfi_offset 5, -12
  36              		.cfi_offset 6, -8
  37              		.cfi_offset 14, -4
  53:Generated_Source\PSoC5/Potenciometro.c ****     Potenciometro_CONTROL_REG &= ((uint8)(~Potenciometro_BASE_COMPONENT_ENABLE));
  38              		.loc 1 53 0
  39 0002 0B4A     		ldr	r2, .L2
  54:Generated_Source\PSoC5/Potenciometro.c **** 
  55:Generated_Source\PSoC5/Potenciometro.c ****     (void) CyDmaChDisable(Potenciometro_tempChan);
  40              		.loc 1 55 0
  41 0004 0B4E     		ldr	r6, .L2+4
  53:Generated_Source\PSoC5/Potenciometro.c ****     Potenciometro_CONTROL_REG &= ((uint8)(~Potenciometro_BASE_COMPONENT_ENABLE));
  42              		.loc 1 53 0
  43 0006 1378     		ldrb	r3, [r2]	@ zero_extendqisi2
  56:Generated_Source\PSoC5/Potenciometro.c ****     CyDmaTdFree(Potenciometro_tempTD);
  44              		.loc 1 56 0
  45 0008 0B4C     		ldr	r4, .L2+8
  53:Generated_Source\PSoC5/Potenciometro.c ****     Potenciometro_CONTROL_REG &= ((uint8)(~Potenciometro_BASE_COMPONENT_ENABLE));
  46              		.loc 1 53 0
  47 000a 03F0FE03 		and	r3, r3, #254
  48 000e 1370     		strb	r3, [r2]
  55:Generated_Source\PSoC5/Potenciometro.c ****     CyDmaTdFree(Potenciometro_tempTD);
  49              		.loc 1 55 0
  50 0010 3078     		ldrb	r0, [r6]	@ zero_extendqisi2
  51 0012 FFF7FEFF 		bl	CyDmaChDisable
  52              	.LVL0:
  53              		.loc 1 56 0
  54 0016 2078     		ldrb	r0, [r4]	@ zero_extendqisi2
  55 0018 FFF7FEFF 		bl	CyDmaTdFree
ARM GAS  C:\Users\emman\AppData\Local\Temp\cc1Mv8tY.s 			page 3


  56              	.LVL1:
  57:Generated_Source\PSoC5/Potenciometro.c ****     Potenciometro_tempTD = CY_DMA_INVALID_TD;
  57              		.loc 1 57 0
  58 001c FF25     		movs	r5, #255
  58:Generated_Source\PSoC5/Potenciometro.c **** 
  59:Generated_Source\PSoC5/Potenciometro.c ****     (void) CyDmaChDisable(Potenciometro_finalChan);
  59              		.loc 1 59 0
  60 001e 7078     		ldrb	r0, [r6, #1]	@ zero_extendqisi2
  57:Generated_Source\PSoC5/Potenciometro.c ****     Potenciometro_tempTD = CY_DMA_INVALID_TD;
  61              		.loc 1 57 0
  62 0020 2570     		strb	r5, [r4]
  63              		.loc 1 59 0
  64 0022 FFF7FEFF 		bl	CyDmaChDisable
  65              	.LVL2:
  60:Generated_Source\PSoC5/Potenciometro.c ****     CyDmaTdFree(Potenciometro_finalTD);
  66              		.loc 1 60 0
  67 0026 6078     		ldrb	r0, [r4, #1]	@ zero_extendqisi2
  68 0028 FFF7FEFF 		bl	CyDmaTdFree
  69              	.LVL3:
  61:Generated_Source\PSoC5/Potenciometro.c ****     Potenciometro_finalTD = CY_DMA_INVALID_TD;
  70              		.loc 1 61 0
  71 002c 6570     		strb	r5, [r4, #1]
  72 002e 70BD     		pop	{r4, r5, r6, pc}
  73              	.L3:
  74              		.align	2
  75              	.L2:
  76 0030 7E640040 		.word	1073767550
  77 0034 00000000 		.word	.LANCHOR0
  78 0038 00000000 		.word	.LANCHOR1
  79              		.cfi_endproc
  80              	.LFE0:
  81              		.size	Potenciometro_Disable, .-Potenciometro_Disable
  82              		.section	.text.Potenciometro_Init,"ax",%progbits
  83              		.align	1
  84              		.global	Potenciometro_Init
  85              		.thumb
  86              		.thumb_func
  87              		.type	Potenciometro_Init, %function
  88              	Potenciometro_Init:
  89              	.LFB1:
  62:Generated_Source\PSoC5/Potenciometro.c **** }
  63:Generated_Source\PSoC5/Potenciometro.c **** 
  64:Generated_Source\PSoC5/Potenciometro.c **** 
  65:Generated_Source\PSoC5/Potenciometro.c **** /*******************************************************************************
  66:Generated_Source\PSoC5/Potenciometro.c **** * Function Name: Potenciometro_Init
  67:Generated_Source\PSoC5/Potenciometro.c **** ********************************************************************************
  68:Generated_Source\PSoC5/Potenciometro.c **** *
  69:Generated_Source\PSoC5/Potenciometro.c **** * Summary:
  70:Generated_Source\PSoC5/Potenciometro.c **** *  Inits channels for DMA transfer. Provides loading period to the AMUX address
  71:Generated_Source\PSoC5/Potenciometro.c **** *  selection counter
  72:Generated_Source\PSoC5/Potenciometro.c **** *
  73:Generated_Source\PSoC5/Potenciometro.c **** * Parameters:
  74:Generated_Source\PSoC5/Potenciometro.c **** *  None.
  75:Generated_Source\PSoC5/Potenciometro.c **** *
  76:Generated_Source\PSoC5/Potenciometro.c **** * Return:
  77:Generated_Source\PSoC5/Potenciometro.c **** *  None.
  78:Generated_Source\PSoC5/Potenciometro.c **** *
ARM GAS  C:\Users\emman\AppData\Local\Temp\cc1Mv8tY.s 			page 4


  79:Generated_Source\PSoC5/Potenciometro.c **** * Reentrant:
  80:Generated_Source\PSoC5/Potenciometro.c **** *  No.
  81:Generated_Source\PSoC5/Potenciometro.c **** *
  82:Generated_Source\PSoC5/Potenciometro.c **** *******************************************************************************/
  83:Generated_Source\PSoC5/Potenciometro.c **** void Potenciometro_Init(void)
  84:Generated_Source\PSoC5/Potenciometro.c **** {
  90              		.loc 1 84 0
  91              		.cfi_startproc
  92              		@ args = 0, pretend = 0, frame = 0
  93              		@ frame_needed = 0, uses_anonymous_args = 0
  94 0000 10B5     		push	{r4, lr}
  95              		.cfi_def_cfa_offset 8
  96              		.cfi_offset 4, -8
  97              		.cfi_offset 14, -4
  85:Generated_Source\PSoC5/Potenciometro.c ****     /* Init DMA, 2 bytes bursts, each burst requires a request */
  86:Generated_Source\PSoC5/Potenciometro.c ****     Potenciometro_tempChan = Potenciometro_TempBuf_DmaInitialize(Potenciometro_TEMP_BYTES_PER_BURST
  98              		.loc 1 86 0
  99 0002 41F6FF73 		movw	r3, #8191
 100 0006 4FF48042 		mov	r2, #16384
 101 000a 0121     		movs	r1, #1
 102 000c 0220     		movs	r0, #2
 103 000e FFF7FEFF 		bl	Potenciometro_TempBuf_DmaInitialize
 104              	.LVL4:
  87:Generated_Source\PSoC5/Potenciometro.c ****         Potenciometro_REQUEST_PER_BURST, (uint16)(HI16(CYDEV_PERIPH_BASE)), (uint16)(HI16(CYDEV_SRA
  88:Generated_Source\PSoC5/Potenciometro.c **** 
  89:Generated_Source\PSoC5/Potenciometro.c ****     /* Init DMA, (Potenciometro_NUMBER_OF_CHANNELS << 1u) bytes bursts, each burst requires a reque
  90:Generated_Source\PSoC5/Potenciometro.c ****     Potenciometro_finalChan = Potenciometro_FinalBuf_DmaInitialize((uint8)Potenciometro_FINAL_BYTES
 105              		.loc 1 90 0
 106 0012 41F6FF73 		movw	r3, #8191
  86:Generated_Source\PSoC5/Potenciometro.c ****         Potenciometro_REQUEST_PER_BURST, (uint16)(HI16(CYDEV_PERIPH_BASE)), (uint16)(HI16(CYDEV_SRA
 107              		.loc 1 86 0
 108 0016 084C     		ldr	r4, .L5
 109              		.loc 1 90 0
 110 0018 1A46     		mov	r2, r3
  86:Generated_Source\PSoC5/Potenciometro.c ****         Potenciometro_REQUEST_PER_BURST, (uint16)(HI16(CYDEV_PERIPH_BASE)), (uint16)(HI16(CYDEV_SRA
 111              		.loc 1 86 0
 112 001a 2070     		strb	r0, [r4]
 113              		.loc 1 90 0
 114 001c 0121     		movs	r1, #1
 115 001e 0220     		movs	r0, #2
 116 0020 FFF7FEFF 		bl	Potenciometro_FinalBuf_DmaInitialize
 117              	.LVL5:
 118 0024 6070     		strb	r0, [r4, #1]
  91:Generated_Source\PSoC5/Potenciometro.c ****         Potenciometro_REQUEST_PER_BURST, (uint16)(HI16(CYDEV_SRAM_BASE)), (uint16)(HI16(CYDEV_SRAM_
  92:Generated_Source\PSoC5/Potenciometro.c **** 
  93:Generated_Source\PSoC5/Potenciometro.c ****     #if(Potenciometro_IRQ_REMOVE == 0u)
  94:Generated_Source\PSoC5/Potenciometro.c ****         /* Set the ISR to point to the Potenciometro_IRQ Interrupt. */
  95:Generated_Source\PSoC5/Potenciometro.c ****         Potenciometro_IRQ_SetVector(&Potenciometro_ISR);
 119              		.loc 1 95 0
 120 0026 0548     		ldr	r0, .L5+4
 121 0028 FFF7FEFF 		bl	Potenciometro_IRQ_SetVector
 122              	.LVL6:
  96:Generated_Source\PSoC5/Potenciometro.c ****         /* Set the priority. */
  97:Generated_Source\PSoC5/Potenciometro.c ****         Potenciometro_IRQ_SetPriority((uint8)Potenciometro_INTC_NUMBER);
  98:Generated_Source\PSoC5/Potenciometro.c ****     #endif   /* End Potenciometro_IRQ_REMOVE */
  99:Generated_Source\PSoC5/Potenciometro.c **** 
 100:Generated_Source\PSoC5/Potenciometro.c **** }
ARM GAS  C:\Users\emman\AppData\Local\Temp\cc1Mv8tY.s 			page 5


 123              		.loc 1 100 0
 124 002c BDE81040 		pop	{r4, lr}
 125              		.cfi_restore 14
 126              		.cfi_restore 4
 127              		.cfi_def_cfa_offset 0
  97:Generated_Source\PSoC5/Potenciometro.c ****     #endif   /* End Potenciometro_IRQ_REMOVE */
 128              		.loc 1 97 0
 129 0030 0220     		movs	r0, #2
 130 0032 FFF7FEBF 		b	Potenciometro_IRQ_SetPriority
 131              	.LVL7:
 132              	.L6:
 133 0036 00BF     		.align	2
 134              	.L5:
 135 0038 00000000 		.word	.LANCHOR0
 136 003c 00000000 		.word	Potenciometro_ISR
 137              		.cfi_endproc
 138              	.LFE1:
 139              		.size	Potenciometro_Init, .-Potenciometro_Init
 140              		.section	.text.Potenciometro_Enable,"ax",%progbits
 141              		.align	1
 142              		.global	Potenciometro_Enable
 143              		.thumb
 144              		.thumb_func
 145              		.type	Potenciometro_Enable, %function
 146              	Potenciometro_Enable:
 147              	.LFB2:
 101:Generated_Source\PSoC5/Potenciometro.c **** 
 102:Generated_Source\PSoC5/Potenciometro.c **** 
 103:Generated_Source\PSoC5/Potenciometro.c **** /*******************************************************************************
 104:Generated_Source\PSoC5/Potenciometro.c **** * Function Name: Potenciometro_Enable
 105:Generated_Source\PSoC5/Potenciometro.c **** ********************************************************************************
 106:Generated_Source\PSoC5/Potenciometro.c **** *
 107:Generated_Source\PSoC5/Potenciometro.c **** * Summary:
 108:Generated_Source\PSoC5/Potenciometro.c **** *  Enables DMA channels, address selection counter and FSM of Base component
 109:Generated_Source\PSoC5/Potenciometro.c **** *
 110:Generated_Source\PSoC5/Potenciometro.c **** * Parameters:
 111:Generated_Source\PSoC5/Potenciometro.c **** *  None.
 112:Generated_Source\PSoC5/Potenciometro.c **** *
 113:Generated_Source\PSoC5/Potenciometro.c **** * Return:
 114:Generated_Source\PSoC5/Potenciometro.c **** *  None.
 115:Generated_Source\PSoC5/Potenciometro.c **** *
 116:Generated_Source\PSoC5/Potenciometro.c **** * Side Effects:
 117:Generated_Source\PSoC5/Potenciometro.c **** *  None.
 118:Generated_Source\PSoC5/Potenciometro.c **** *
 119:Generated_Source\PSoC5/Potenciometro.c **** * Reentrant:
 120:Generated_Source\PSoC5/Potenciometro.c **** *  No.
 121:Generated_Source\PSoC5/Potenciometro.c **** *
 122:Generated_Source\PSoC5/Potenciometro.c **** *******************************************************************************/
 123:Generated_Source\PSoC5/Potenciometro.c **** void Potenciometro_Enable(void)
 124:Generated_Source\PSoC5/Potenciometro.c **** {
 148              		.loc 1 124 0
 149              		.cfi_startproc
 150              		@ args = 0, pretend = 0, frame = 0
 151              		@ frame_needed = 0, uses_anonymous_args = 0
 152 0000 70B5     		push	{r4, r5, r6, lr}
 153              		.cfi_def_cfa_offset 16
 154              		.cfi_offset 4, -16
ARM GAS  C:\Users\emman\AppData\Local\Temp\cc1Mv8tY.s 			page 6


 155              		.cfi_offset 5, -12
 156              		.cfi_offset 6, -8
 157              		.cfi_offset 14, -4
 125:Generated_Source\PSoC5/Potenciometro.c ****     uint8 enableInterrupts;
 126:Generated_Source\PSoC5/Potenciometro.c **** 
 127:Generated_Source\PSoC5/Potenciometro.c ****     static int16 Potenciometro_tempArray[Potenciometro_NUMBER_OF_CHANNELS];
 128:Generated_Source\PSoC5/Potenciometro.c ****     
 129:Generated_Source\PSoC5/Potenciometro.c ****     (void)CyDmaClearPendingDrq(Potenciometro_tempChan);
 158              		.loc 1 129 0
 159 0002 2B4D     		ldr	r5, .L11
 130:Generated_Source\PSoC5/Potenciometro.c ****     (void)CyDmaClearPendingDrq(Potenciometro_finalChan);
 131:Generated_Source\PSoC5/Potenciometro.c ****     
 132:Generated_Source\PSoC5/Potenciometro.c ****     
 133:Generated_Source\PSoC5/Potenciometro.c ****     /* Provides initialization procedure for the TempBuf DMA
 134:Generated_Source\PSoC5/Potenciometro.c ****     * Configure this Td as follows:
 135:Generated_Source\PSoC5/Potenciometro.c ****     *  - The TD is looping on itself
 136:Generated_Source\PSoC5/Potenciometro.c ****     *  - Increment the destination address, but not the source address
 137:Generated_Source\PSoC5/Potenciometro.c ****     */
 138:Generated_Source\PSoC5/Potenciometro.c **** 
 139:Generated_Source\PSoC5/Potenciometro.c ****     if (Potenciometro_tempTD == DMA_INVALID_TD)
 160              		.loc 1 139 0
 161 0004 2B4C     		ldr	r4, .L11+4
 129:Generated_Source\PSoC5/Potenciometro.c ****     (void)CyDmaClearPendingDrq(Potenciometro_finalChan);
 162              		.loc 1 129 0
 163 0006 2878     		ldrb	r0, [r5]	@ zero_extendqisi2
 164 0008 FFF7FEFF 		bl	CyDmaClearPendingDrq
 165              	.LVL8:
 130:Generated_Source\PSoC5/Potenciometro.c ****     (void)CyDmaClearPendingDrq(Potenciometro_finalChan);
 166              		.loc 1 130 0
 167 000c 6878     		ldrb	r0, [r5, #1]	@ zero_extendqisi2
 168 000e FFF7FEFF 		bl	CyDmaClearPendingDrq
 169              	.LVL9:
 170              		.loc 1 139 0
 171 0012 2378     		ldrb	r3, [r4]	@ zero_extendqisi2
 172 0014 2E46     		mov	r6, r5
 173 0016 FF2B     		cmp	r3, #255
 174 0018 02D1     		bne	.L8
 140:Generated_Source\PSoC5/Potenciometro.c ****     {
 141:Generated_Source\PSoC5/Potenciometro.c ****         Potenciometro_tempTD = CyDmaTdAllocate();
 175              		.loc 1 141 0
 176 001a FFF7FEFF 		bl	CyDmaTdAllocate
 177              	.LVL10:
 178 001e 2070     		strb	r0, [r4]
 179              	.L8:
 142:Generated_Source\PSoC5/Potenciometro.c ****     }
 143:Generated_Source\PSoC5/Potenciometro.c **** 
 144:Generated_Source\PSoC5/Potenciometro.c ****     (void) CyDmaTdSetConfiguration(Potenciometro_tempTD, Potenciometro_TEMP_TRANSFER_COUNT,
 180              		.loc 1 144 0
 181 0020 2278     		ldrb	r2, [r4]	@ zero_extendqisi2
 145:Generated_Source\PSoC5/Potenciometro.c ****         Potenciometro_tempTD, ((uint8)Potenciometro_TempBuf__TD_TERMOUT_EN | (uint8)TD_INC_DST_ADR)
 146:Generated_Source\PSoC5/Potenciometro.c **** 
 147:Generated_Source\PSoC5/Potenciometro.c ****     /* From the SAR to the TempArray */
 148:Generated_Source\PSoC5/Potenciometro.c ****     (void) CyDmaTdSetAddress(Potenciometro_tempTD, (uint16)(LO16((uint32)Potenciometro_SAR_DATA_ADD
 182              		.loc 1 148 0
 183 0022 254D     		ldr	r5, .L11+8
 144:Generated_Source\PSoC5/Potenciometro.c ****         Potenciometro_tempTD, ((uint8)Potenciometro_TempBuf__TD_TERMOUT_EN | (uint8)TD_INC_DST_ADR)
 184              		.loc 1 144 0
ARM GAS  C:\Users\emman\AppData\Local\Temp\cc1Mv8tY.s 			page 7


 185 0024 0623     		movs	r3, #6
 186 0026 0221     		movs	r1, #2
 187 0028 1046     		mov	r0, r2
 188              		.loc 1 148 0
 189 002a ADB2     		uxth	r5, r5
 144:Generated_Source\PSoC5/Potenciometro.c ****         Potenciometro_tempTD, ((uint8)Potenciometro_TempBuf__TD_TERMOUT_EN | (uint8)TD_INC_DST_ADR)
 190              		.loc 1 144 0
 191 002c FFF7FEFF 		bl	CyDmaTdSetConfiguration
 192              	.LVL11:
 193              		.loc 1 148 0
 194 0030 2A46     		mov	r2, r5
 195 0032 45F6A031 		movw	r1, #23456
 196 0036 2078     		ldrb	r0, [r4]	@ zero_extendqisi2
 197 0038 FFF7FEFF 		bl	CyDmaTdSetAddress
 198              	.LVL12:
 149:Generated_Source\PSoC5/Potenciometro.c ****         (uint16)(LO16((uint32)Potenciometro_tempArray)));
 150:Generated_Source\PSoC5/Potenciometro.c **** 
 151:Generated_Source\PSoC5/Potenciometro.c ****     /* Associate the TD with the channel */
 152:Generated_Source\PSoC5/Potenciometro.c ****     (void) CyDmaChSetInitialTd(Potenciometro_tempChan, Potenciometro_tempTD);
 199              		.loc 1 152 0
 200 003c 2178     		ldrb	r1, [r4]	@ zero_extendqisi2
 201 003e 3078     		ldrb	r0, [r6]	@ zero_extendqisi2
 202 0040 FFF7FEFF 		bl	CyDmaChSetInitialTd
 203              	.LVL13:
 153:Generated_Source\PSoC5/Potenciometro.c **** 
 154:Generated_Source\PSoC5/Potenciometro.c **** 
 155:Generated_Source\PSoC5/Potenciometro.c ****     /* Provides initialization procedure for the FinalBuf DMA
 156:Generated_Source\PSoC5/Potenciometro.c ****     * Configure this Td as follows:
 157:Generated_Source\PSoC5/Potenciometro.c ****     *  - The TD is looping on itself
 158:Generated_Source\PSoC5/Potenciometro.c ****     *  - Increment the source and destination address
 159:Generated_Source\PSoC5/Potenciometro.c ****     */
 160:Generated_Source\PSoC5/Potenciometro.c **** 
 161:Generated_Source\PSoC5/Potenciometro.c ****     if (Potenciometro_finalTD == DMA_INVALID_TD)
 204              		.loc 1 161 0
 205 0044 6378     		ldrb	r3, [r4, #1]	@ zero_extendqisi2
 206 0046 FF2B     		cmp	r3, #255
 207 0048 03D1     		bne	.L9
 162:Generated_Source\PSoC5/Potenciometro.c ****     {
 163:Generated_Source\PSoC5/Potenciometro.c ****         Potenciometro_finalTD = CyDmaTdAllocate();
 208              		.loc 1 163 0
 209 004a FFF7FEFF 		bl	CyDmaTdAllocate
 210              	.LVL14:
 211 004e 194B     		ldr	r3, .L11+4
 212 0050 5870     		strb	r0, [r3, #1]
 213              	.L9:
 164:Generated_Source\PSoC5/Potenciometro.c ****     }
 165:Generated_Source\PSoC5/Potenciometro.c ****     
 166:Generated_Source\PSoC5/Potenciometro.c ****     (void) CyDmaTdSetConfiguration(Potenciometro_finalTD, (Potenciometro_FINAL_BYTES_PER_BURST),
 214              		.loc 1 166 0
 215 0052 6278     		ldrb	r2, [r4, #1]	@ zero_extendqisi2
 216 0054 0723     		movs	r3, #7
 217 0056 0221     		movs	r1, #2
 218 0058 1046     		mov	r0, r2
 219 005a FFF7FEFF 		bl	CyDmaTdSetConfiguration
 220              	.LVL15:
 167:Generated_Source\PSoC5/Potenciometro.c ****         Potenciometro_finalTD, ((uint8)(Potenciometro_FinalBuf__TD_TERMOUT_EN) | (uint8)TD_INC_SRC_
 168:Generated_Source\PSoC5/Potenciometro.c ****             (uint8)TD_INC_DST_ADR));
ARM GAS  C:\Users\emman\AppData\Local\Temp\cc1Mv8tY.s 			page 8


 169:Generated_Source\PSoC5/Potenciometro.c **** 
 170:Generated_Source\PSoC5/Potenciometro.c ****     /* From the the TempArray to Final Array */
 171:Generated_Source\PSoC5/Potenciometro.c ****     (void) CyDmaTdSetAddress(Potenciometro_finalTD, (uint16)(LO16((uint32)Potenciometro_tempArray))
 221              		.loc 1 171 0
 222 005e 174A     		ldr	r2, .L11+12
 223 0060 2946     		mov	r1, r5
 224 0062 92B2     		uxth	r2, r2
 225 0064 6078     		ldrb	r0, [r4, #1]	@ zero_extendqisi2
 226 0066 FFF7FEFF 		bl	CyDmaTdSetAddress
 227              	.LVL16:
 172:Generated_Source\PSoC5/Potenciometro.c ****         (uint16)(LO16((uint32)Potenciometro_finalArray)));
 173:Generated_Source\PSoC5/Potenciometro.c **** 
 174:Generated_Source\PSoC5/Potenciometro.c ****     /* Associate the TD with the channel */
 175:Generated_Source\PSoC5/Potenciometro.c ****     (void) CyDmaChSetInitialTd(Potenciometro_finalChan, Potenciometro_finalTD);
 228              		.loc 1 175 0
 229 006a 6178     		ldrb	r1, [r4, #1]	@ zero_extendqisi2
 230 006c 7078     		ldrb	r0, [r6, #1]	@ zero_extendqisi2
 231 006e FFF7FEFF 		bl	CyDmaChSetInitialTd
 232              	.LVL17:
 176:Generated_Source\PSoC5/Potenciometro.c ****     
 177:Generated_Source\PSoC5/Potenciometro.c ****     (void) CyDmaChEnable(Potenciometro_tempChan, 1u);
 233              		.loc 1 177 0
 234 0072 0121     		movs	r1, #1
 235 0074 3078     		ldrb	r0, [r6]	@ zero_extendqisi2
 236 0076 FFF7FEFF 		bl	CyDmaChEnable
 237              	.LVL18:
 178:Generated_Source\PSoC5/Potenciometro.c ****     (void) CyDmaChEnable(Potenciometro_finalChan, 1u);
 238              		.loc 1 178 0
 239 007a 0121     		movs	r1, #1
 240 007c 7078     		ldrb	r0, [r6, #1]	@ zero_extendqisi2
 241 007e FFF7FEFF 		bl	CyDmaChEnable
 242              	.LVL19:
 179:Generated_Source\PSoC5/Potenciometro.c **** 
 180:Generated_Source\PSoC5/Potenciometro.c ****     /* Enable Counter and give Enable pulse to set an address of the last channel */
 181:Generated_Source\PSoC5/Potenciometro.c ****     enableInterrupts = CyEnterCriticalSection();
 243              		.loc 1 181 0
 244 0082 FFF7FEFF 		bl	CyEnterCriticalSection
 245              	.LVL20:
 182:Generated_Source\PSoC5/Potenciometro.c ****     Potenciometro_CYCLE_COUNTER_AUX_CONTROL_REG |= ((uint8)(Potenciometro_CYCLE_COUNTER_ENABLE));
 246              		.loc 1 182 0
 247 0086 0E4A     		ldr	r2, .L11+16
 248 0088 1378     		ldrb	r3, [r2]	@ zero_extendqisi2
 249 008a 43F02003 		orr	r3, r3, #32
 250 008e 1370     		strb	r3, [r2]
 183:Generated_Source\PSoC5/Potenciometro.c ****     CyExitCriticalSection(enableInterrupts);
 251              		.loc 1 183 0
 252 0090 FFF7FEFF 		bl	CyExitCriticalSection
 253              	.LVL21:
 184:Generated_Source\PSoC5/Potenciometro.c **** 
 185:Generated_Source\PSoC5/Potenciometro.c ****     /* Enable FSM of the Base Component */
 186:Generated_Source\PSoC5/Potenciometro.c ****     Potenciometro_CONTROL_REG |= ((uint8)(Potenciometro_BASE_COMPONENT_ENABLE));
 254              		.loc 1 186 0
 255 0094 0B4B     		ldr	r3, .L11+20
 256 0096 1A78     		ldrb	r2, [r3]	@ zero_extendqisi2
 257 0098 42F00102 		orr	r2, r2, #1
 258 009c 1A70     		strb	r2, [r3]
 187:Generated_Source\PSoC5/Potenciometro.c ****     Potenciometro_CONTROL_REG |= ((uint8)(Potenciometro_LOAD_COUNTER_PERIOD));
ARM GAS  C:\Users\emman\AppData\Local\Temp\cc1Mv8tY.s 			page 9


 259              		.loc 1 187 0
 260 009e 1A78     		ldrb	r2, [r3]	@ zero_extendqisi2
 261 00a0 42F00202 		orr	r2, r2, #2
 262 00a4 1A70     		strb	r2, [r3]
 188:Generated_Source\PSoC5/Potenciometro.c **** 
 189:Generated_Source\PSoC5/Potenciometro.c ****     #if(Potenciometro_IRQ_REMOVE == 0u)
 190:Generated_Source\PSoC5/Potenciometro.c ****         /* Clear a pending interrupt */
 191:Generated_Source\PSoC5/Potenciometro.c ****         CyIntClearPending(Potenciometro_INTC_NUMBER);
 263              		.loc 1 191 0
 264 00a6 084B     		ldr	r3, .L11+24
 265 00a8 0422     		movs	r2, #4
 266 00aa 1A60     		str	r2, [r3]
 267 00ac 70BD     		pop	{r4, r5, r6, pc}
 268              	.L12:
 269 00ae 00BF     		.align	2
 270              	.L11:
 271 00b0 00000000 		.word	.LANCHOR0
 272 00b4 00000000 		.word	.LANCHOR1
 273 00b8 02000000 		.word	.LANCHOR0+2
 274 00bc 00000000 		.word	Potenciometro_finalArray
 275 00c0 9D640040 		.word	1073767581
 276 00c4 7E640040 		.word	1073767550
 277 00c8 80E200E0 		.word	-536812928
 278              		.cfi_endproc
 279              	.LFE2:
 280              		.size	Potenciometro_Enable, .-Potenciometro_Enable
 281              		.section	.text.Potenciometro_Start,"ax",%progbits
 282              		.align	1
 283              		.global	Potenciometro_Start
 284              		.thumb
 285              		.thumb_func
 286              		.type	Potenciometro_Start, %function
 287              	Potenciometro_Start:
 288              	.LFB3:
 192:Generated_Source\PSoC5/Potenciometro.c ****     #endif   /* End Potenciometro_IRQ_REMOVE */
 193:Generated_Source\PSoC5/Potenciometro.c **** }
 194:Generated_Source\PSoC5/Potenciometro.c **** 
 195:Generated_Source\PSoC5/Potenciometro.c **** 
 196:Generated_Source\PSoC5/Potenciometro.c **** /*******************************************************************************
 197:Generated_Source\PSoC5/Potenciometro.c **** * Function Name: Potenciometro_Start
 198:Generated_Source\PSoC5/Potenciometro.c **** ********************************************************************************
 199:Generated_Source\PSoC5/Potenciometro.c **** *
 200:Generated_Source\PSoC5/Potenciometro.c **** * Summary:
 201:Generated_Source\PSoC5/Potenciometro.c **** *  Starts component
 202:Generated_Source\PSoC5/Potenciometro.c **** *
 203:Generated_Source\PSoC5/Potenciometro.c **** * Parameters:
 204:Generated_Source\PSoC5/Potenciometro.c **** *  None.
 205:Generated_Source\PSoC5/Potenciometro.c **** *
 206:Generated_Source\PSoC5/Potenciometro.c **** * Return:
 207:Generated_Source\PSoC5/Potenciometro.c **** *  None.
 208:Generated_Source\PSoC5/Potenciometro.c **** *
 209:Generated_Source\PSoC5/Potenciometro.c **** * Side Effects:
 210:Generated_Source\PSoC5/Potenciometro.c **** *  If the initVar variable is already set, this function only calls the 
 211:Generated_Source\PSoC5/Potenciometro.c **** *  Potenciometro_Enable() function
 212:Generated_Source\PSoC5/Potenciometro.c **** *
 213:Generated_Source\PSoC5/Potenciometro.c **** * Reentrant:
 214:Generated_Source\PSoC5/Potenciometro.c **** *  No.
ARM GAS  C:\Users\emman\AppData\Local\Temp\cc1Mv8tY.s 			page 10


 215:Generated_Source\PSoC5/Potenciometro.c **** *
 216:Generated_Source\PSoC5/Potenciometro.c **** *******************************************************************************/
 217:Generated_Source\PSoC5/Potenciometro.c **** void Potenciometro_Start(void)
 218:Generated_Source\PSoC5/Potenciometro.c **** {
 289              		.loc 1 218 0
 290              		.cfi_startproc
 291              		@ args = 0, pretend = 0, frame = 0
 292              		@ frame_needed = 0, uses_anonymous_args = 0
 293 0000 10B5     		push	{r4, lr}
 294              		.cfi_def_cfa_offset 8
 295              		.cfi_offset 4, -8
 296              		.cfi_offset 14, -4
 219:Generated_Source\PSoC5/Potenciometro.c ****     if(Potenciometro_initVar == 0u)
 297              		.loc 1 219 0
 298 0002 074C     		ldr	r4, .L15
 299 0004 6368     		ldr	r3, [r4, #4]
 300 0006 1BB9     		cbnz	r3, .L14
 220:Generated_Source\PSoC5/Potenciometro.c ****     {
 221:Generated_Source\PSoC5/Potenciometro.c ****         Potenciometro_Init();
 301              		.loc 1 221 0
 302 0008 FFF7FEFF 		bl	Potenciometro_Init
 303              	.LVL22:
 222:Generated_Source\PSoC5/Potenciometro.c ****         Potenciometro_initVar = 1u;
 304              		.loc 1 222 0
 305 000c 0123     		movs	r3, #1
 306 000e 6360     		str	r3, [r4, #4]
 307              	.L14:
 223:Generated_Source\PSoC5/Potenciometro.c ****     }
 224:Generated_Source\PSoC5/Potenciometro.c **** 
 225:Generated_Source\PSoC5/Potenciometro.c ****     Potenciometro_SAR_Start();
 308              		.loc 1 225 0
 309 0010 FFF7FEFF 		bl	Potenciometro_SAR_Start
 310              	.LVL23:
 226:Generated_Source\PSoC5/Potenciometro.c ****     Potenciometro_Enable();
 311              		.loc 1 226 0
 312 0014 FFF7FEFF 		bl	Potenciometro_Enable
 313              	.LVL24:
 227:Generated_Source\PSoC5/Potenciometro.c ****     (void) CY_GET_REG8(Potenciometro_STATUS_PTR);
 314              		.loc 1 227 0
 315 0018 024B     		ldr	r3, .L15+4
 316 001a 1B78     		ldrb	r3, [r3]	@ zero_extendqisi2
 317 001c 10BD     		pop	{r4, pc}
 318              	.L16:
 319 001e 00BF     		.align	2
 320              	.L15:
 321 0020 00000000 		.word	.LANCHOR0
 322 0024 63640040 		.word	1073767523
 323              		.cfi_endproc
 324              	.LFE3:
 325              		.size	Potenciometro_Start, .-Potenciometro_Start
 326              		.section	.text.Potenciometro_Stop,"ax",%progbits
 327              		.align	1
 328              		.global	Potenciometro_Stop
 329              		.thumb
 330              		.thumb_func
 331              		.type	Potenciometro_Stop, %function
 332              	Potenciometro_Stop:
ARM GAS  C:\Users\emman\AppData\Local\Temp\cc1Mv8tY.s 			page 11


 333              	.LFB4:
 228:Generated_Source\PSoC5/Potenciometro.c **** }
 229:Generated_Source\PSoC5/Potenciometro.c **** 
 230:Generated_Source\PSoC5/Potenciometro.c **** 
 231:Generated_Source\PSoC5/Potenciometro.c **** /*******************************************************************************
 232:Generated_Source\PSoC5/Potenciometro.c **** * Function Name: Potenciometro_Stop
 233:Generated_Source\PSoC5/Potenciometro.c **** ********************************************************************************
 234:Generated_Source\PSoC5/Potenciometro.c **** *
 235:Generated_Source\PSoC5/Potenciometro.c **** * Summary:
 236:Generated_Source\PSoC5/Potenciometro.c **** *  Stops component.
 237:Generated_Source\PSoC5/Potenciometro.c **** *
 238:Generated_Source\PSoC5/Potenciometro.c **** * Parameters:
 239:Generated_Source\PSoC5/Potenciometro.c **** *  None.
 240:Generated_Source\PSoC5/Potenciometro.c **** *
 241:Generated_Source\PSoC5/Potenciometro.c **** * Return:
 242:Generated_Source\PSoC5/Potenciometro.c **** *  None.
 243:Generated_Source\PSoC5/Potenciometro.c **** *
 244:Generated_Source\PSoC5/Potenciometro.c **** * Side Effects:
 245:Generated_Source\PSoC5/Potenciometro.c **** *  None.
 246:Generated_Source\PSoC5/Potenciometro.c **** *
 247:Generated_Source\PSoC5/Potenciometro.c **** * Reentrant:
 248:Generated_Source\PSoC5/Potenciometro.c **** *  No.
 249:Generated_Source\PSoC5/Potenciometro.c **** *
 250:Generated_Source\PSoC5/Potenciometro.c **** *******************************************************************************/
 251:Generated_Source\PSoC5/Potenciometro.c **** void Potenciometro_Stop(void)
 252:Generated_Source\PSoC5/Potenciometro.c **** {
 334              		.loc 1 252 0
 335              		.cfi_startproc
 336              		@ args = 0, pretend = 0, frame = 0
 337              		@ frame_needed = 0, uses_anonymous_args = 0
 338 0000 08B5     		push	{r3, lr}
 339              		.cfi_def_cfa_offset 8
 340              		.cfi_offset 3, -8
 341              		.cfi_offset 14, -4
 253:Generated_Source\PSoC5/Potenciometro.c ****     Potenciometro_SAR_Stop();
 342              		.loc 1 253 0
 343 0002 FFF7FEFF 		bl	Potenciometro_SAR_Stop
 344              	.LVL25:
 254:Generated_Source\PSoC5/Potenciometro.c ****     Potenciometro_Disable();
 255:Generated_Source\PSoC5/Potenciometro.c **** }
 345              		.loc 1 255 0
 346 0006 BDE80840 		pop	{r3, lr}
 347              		.cfi_restore 14
 348              		.cfi_restore 3
 349              		.cfi_def_cfa_offset 0
 254:Generated_Source\PSoC5/Potenciometro.c ****     Potenciometro_Disable();
 350              		.loc 1 254 0
 351 000a FFF7FEBF 		b	Potenciometro_Disable
 352              	.LVL26:
 353              		.cfi_endproc
 354              	.LFE4:
 355              		.size	Potenciometro_Stop, .-Potenciometro_Stop
 356              		.section	.text.Potenciometro_StartConvert,"ax",%progbits
 357              		.align	1
 358              		.global	Potenciometro_StartConvert
 359              		.thumb
 360              		.thumb_func
ARM GAS  C:\Users\emman\AppData\Local\Temp\cc1Mv8tY.s 			page 12


 361              		.type	Potenciometro_StartConvert, %function
 362              	Potenciometro_StartConvert:
 363              	.LFB5:
 256:Generated_Source\PSoC5/Potenciometro.c **** 
 257:Generated_Source\PSoC5/Potenciometro.c **** #if(Potenciometro_SAMPLE_MODE != Potenciometro_SAMPLE_MODE_HW_TRIGGERED)
 258:Generated_Source\PSoC5/Potenciometro.c **** 
 259:Generated_Source\PSoC5/Potenciometro.c ****     /*******************************************************************************
 260:Generated_Source\PSoC5/Potenciometro.c ****     * Function Name: Potenciometro_StartConvert
 261:Generated_Source\PSoC5/Potenciometro.c ****     ********************************************************************************
 262:Generated_Source\PSoC5/Potenciometro.c ****     *
 263:Generated_Source\PSoC5/Potenciometro.c ****     * Summary:
 264:Generated_Source\PSoC5/Potenciometro.c ****     *  When the Sample Mode parameter is set to 'Free Running', the component will
 265:Generated_Source\PSoC5/Potenciometro.c ****     * operate in a continuous mode. The channels will be scanned continuously until
 266:Generated_Source\PSoC5/Potenciometro.c ****     * _StopConvert()or  _Stop() is called
 267:Generated_Source\PSoC5/Potenciometro.c ****     *
 268:Generated_Source\PSoC5/Potenciometro.c ****     * Parameters:
 269:Generated_Source\PSoC5/Potenciometro.c ****     *  None.
 270:Generated_Source\PSoC5/Potenciometro.c ****     *
 271:Generated_Source\PSoC5/Potenciometro.c ****     * Return:
 272:Generated_Source\PSoC5/Potenciometro.c ****     *  None.
 273:Generated_Source\PSoC5/Potenciometro.c ****     *
 274:Generated_Source\PSoC5/Potenciometro.c ****     * Side Effects:
 275:Generated_Source\PSoC5/Potenciometro.c ****     *  Calling Potenciometro_StartConvert() disables the external SOC pin.
 276:Generated_Source\PSoC5/Potenciometro.c ****     *
 277:Generated_Source\PSoC5/Potenciometro.c ****     * Reentrant:
 278:Generated_Source\PSoC5/Potenciometro.c ****     *  No.
 279:Generated_Source\PSoC5/Potenciometro.c ****     *
 280:Generated_Source\PSoC5/Potenciometro.c ****     *******************************************************************************/
 281:Generated_Source\PSoC5/Potenciometro.c ****     void Potenciometro_StartConvert(void)
 282:Generated_Source\PSoC5/Potenciometro.c ****     {
 364              		.loc 1 282 0
 365              		.cfi_startproc
 366              		@ args = 0, pretend = 0, frame = 0
 367              		@ frame_needed = 0, uses_anonymous_args = 0
 368              		@ link register save eliminated.
 283:Generated_Source\PSoC5/Potenciometro.c ****         #if(Potenciometro_SAMPLE_MODE != Potenciometro_SAMPLE_MODE_FREE_RUNNING)
 284:Generated_Source\PSoC5/Potenciometro.c **** 
 285:Generated_Source\PSoC5/Potenciometro.c ****             Potenciometro_CONTROL_REG |= ((uint8)(Potenciometro_SOFTWARE_SOC_PULSE));
 286:Generated_Source\PSoC5/Potenciometro.c **** 
 287:Generated_Source\PSoC5/Potenciometro.c ****         #else
 288:Generated_Source\PSoC5/Potenciometro.c **** 
 289:Generated_Source\PSoC5/Potenciometro.c ****             Potenciometro_SAR_StartConvert();
 369              		.loc 1 289 0
 370 0000 FFF7FEBF 		b	Potenciometro_SAR_StartConvert
 371              	.LVL27:
 372              		.cfi_endproc
 373              	.LFE5:
 374              		.size	Potenciometro_StartConvert, .-Potenciometro_StartConvert
 375              		.section	.text.Potenciometro_StopConvert,"ax",%progbits
 376              		.align	1
 377              		.global	Potenciometro_StopConvert
 378              		.thumb
 379              		.thumb_func
 380              		.type	Potenciometro_StopConvert, %function
 381              	Potenciometro_StopConvert:
 382              	.LFB6:
 290:Generated_Source\PSoC5/Potenciometro.c **** 
ARM GAS  C:\Users\emman\AppData\Local\Temp\cc1Mv8tY.s 			page 13


 291:Generated_Source\PSoC5/Potenciometro.c ****         #endif /*
 292:Generated_Source\PSoC5/Potenciometro.c ****                  #if(Potenciometro_SAMPLE_MODE !=
 293:Generated_Source\PSoC5/Potenciometro.c ****                  Potenciometro_SAMPLE_MODE_FREE_RUNNING)
 294:Generated_Source\PSoC5/Potenciometro.c ****                */
 295:Generated_Source\PSoC5/Potenciometro.c ****     }
 296:Generated_Source\PSoC5/Potenciometro.c **** 
 297:Generated_Source\PSoC5/Potenciometro.c **** 
 298:Generated_Source\PSoC5/Potenciometro.c ****     /*******************************************************************************
 299:Generated_Source\PSoC5/Potenciometro.c ****     * Function Name: Potenciometro_StopConvert
 300:Generated_Source\PSoC5/Potenciometro.c ****     ********************************************************************************
 301:Generated_Source\PSoC5/Potenciometro.c ****     *
 302:Generated_Source\PSoC5/Potenciometro.c ****     * Summary:
 303:Generated_Source\PSoC5/Potenciometro.c ****     *  Forces the component to stop all conversions
 304:Generated_Source\PSoC5/Potenciometro.c ****     *
 305:Generated_Source\PSoC5/Potenciometro.c ****     * Parameters:
 306:Generated_Source\PSoC5/Potenciometro.c ****     *  None.
 307:Generated_Source\PSoC5/Potenciometro.c ****     *
 308:Generated_Source\PSoC5/Potenciometro.c ****     * Return:
 309:Generated_Source\PSoC5/Potenciometro.c ****     *  None.
 310:Generated_Source\PSoC5/Potenciometro.c ****     *
 311:Generated_Source\PSoC5/Potenciometro.c ****     * Side Effects:
 312:Generated_Source\PSoC5/Potenciometro.c ****     *  In free-running and software trigger mode, this function sets a software 
 313:Generated_Source\PSoC5/Potenciometro.c ****     *  version of the SOC to low level and switches the SOC source to hardware SOC 
 314:Generated_Source\PSoC5/Potenciometro.c ****     *  input (Hardware trigger).
 315:Generated_Source\PSoC5/Potenciometro.c ****     *
 316:Generated_Source\PSoC5/Potenciometro.c ****     * Reentrant:
 317:Generated_Source\PSoC5/Potenciometro.c ****     *  No.
 318:Generated_Source\PSoC5/Potenciometro.c ****     *
 319:Generated_Source\PSoC5/Potenciometro.c ****     *******************************************************************************/
 320:Generated_Source\PSoC5/Potenciometro.c ****     void Potenciometro_StopConvert(void)
 321:Generated_Source\PSoC5/Potenciometro.c ****     {
 383              		.loc 1 321 0
 384              		.cfi_startproc
 385              		@ args = 0, pretend = 0, frame = 0
 386              		@ frame_needed = 0, uses_anonymous_args = 0
 387              		@ link register save eliminated.
 322:Generated_Source\PSoC5/Potenciometro.c ****         Potenciometro_SAR_StopConvert();
 388              		.loc 1 322 0
 389 0000 FFF7FEBF 		b	Potenciometro_SAR_StopConvert
 390              	.LVL28:
 391              		.cfi_endproc
 392              	.LFE6:
 393              		.size	Potenciometro_StopConvert, .-Potenciometro_StopConvert
 394              		.section	.text.Potenciometro_IsEndConversion,"ax",%progbits
 395              		.align	1
 396              		.global	Potenciometro_IsEndConversion
 397              		.thumb
 398              		.thumb_func
 399              		.type	Potenciometro_IsEndConversion, %function
 400              	Potenciometro_IsEndConversion:
 401              	.LFB7:
 323:Generated_Source\PSoC5/Potenciometro.c ****     }
 324:Generated_Source\PSoC5/Potenciometro.c **** 
 325:Generated_Source\PSoC5/Potenciometro.c **** #endif /* Potenciometro_SAMPLE_MODE != Potenciometro_SAMPLE_MODE_HW_TRIGGERED */
 326:Generated_Source\PSoC5/Potenciometro.c **** 
 327:Generated_Source\PSoC5/Potenciometro.c **** 
 328:Generated_Source\PSoC5/Potenciometro.c **** /*******************************************************************************
ARM GAS  C:\Users\emman\AppData\Local\Temp\cc1Mv8tY.s 			page 14


 329:Generated_Source\PSoC5/Potenciometro.c **** * Function Name: Potenciometro_IsEndConversion
 330:Generated_Source\PSoC5/Potenciometro.c **** ********************************************************************************
 331:Generated_Source\PSoC5/Potenciometro.c **** *
 332:Generated_Source\PSoC5/Potenciometro.c **** * Summary:
 333:Generated_Source\PSoC5/Potenciometro.c **** *  Checks for ADC end of conversion for the case one channel and end of scan
 334:Generated_Source\PSoC5/Potenciometro.c **** *  for the case of multiple channels
 335:Generated_Source\PSoC5/Potenciometro.c **** *
 336:Generated_Source\PSoC5/Potenciometro.c **** * Parameters:
 337:Generated_Source\PSoC5/Potenciometro.c **** *  retMode: Check conversion return mode
 338:Generated_Source\PSoC5/Potenciometro.c **** *   Values:
 339:Generated_Source\PSoC5/Potenciometro.c **** *         - Potenciometro_RETURN_STATUS      - Immediately returns the 
 340:Generated_Source\PSoC5/Potenciometro.c **** *                                                 status
 341:Generated_Source\PSoC5/Potenciometro.c **** *         - Potenciometro_WAIT_FOR_RESULT    - Does not return a result 
 342:Generated_Source\PSoC5/Potenciometro.c **** *                                                 until the conversion 
 343:Generated_Source\PSoC5/Potenciometro.c **** *                                                 is complete
 344:Generated_Source\PSoC5/Potenciometro.c **** *
 345:Generated_Source\PSoC5/Potenciometro.c **** * Return:
 346:Generated_Source\PSoC5/Potenciometro.c **** *  If a nonzero value is returned, the last conversion is complete. If the 
 347:Generated_Source\PSoC5/Potenciometro.c **** *  returned value is zero, the ADC_SAR_Seq is still calculating the last result
 348:Generated_Source\PSoC5/Potenciometro.c **** *
 349:Generated_Source\PSoC5/Potenciometro.c **** * Side Effects:
 350:Generated_Source\PSoC5/Potenciometro.c **** *  This function reads the end of conversion status, which is cleared on read
 351:Generated_Source\PSoC5/Potenciometro.c **** *
 352:Generated_Source\PSoC5/Potenciometro.c **** * Reentrant:
 353:Generated_Source\PSoC5/Potenciometro.c **** *  No.
 354:Generated_Source\PSoC5/Potenciometro.c **** *
 355:Generated_Source\PSoC5/Potenciometro.c **** *******************************************************************************/
 356:Generated_Source\PSoC5/Potenciometro.c **** uint32 Potenciometro_IsEndConversion(uint8 retMode)
 357:Generated_Source\PSoC5/Potenciometro.c **** {
 402              		.loc 1 357 0
 403              		.cfi_startproc
 404              		@ args = 0, pretend = 0, frame = 0
 405              		@ frame_needed = 0, uses_anonymous_args = 0
 406              		@ link register save eliminated.
 407              	.LVL29:
 358:Generated_Source\PSoC5/Potenciometro.c ****     uint8 status;
 359:Generated_Source\PSoC5/Potenciometro.c **** 
 360:Generated_Source\PSoC5/Potenciometro.c ****     do
 361:Generated_Source\PSoC5/Potenciometro.c ****     {
 362:Generated_Source\PSoC5/Potenciometro.c ****       status = Potenciometro_STATUS_REG;
 408              		.loc 1 362 0
 409 0000 0449     		ldr	r1, .L25
 410              	.L22:
 411              		.loc 1 362 0 is_stmt 0 discriminator 2
 412 0002 0B78     		ldrb	r3, [r1]	@ zero_extendqisi2
 413              	.LVL30:
 363:Generated_Source\PSoC5/Potenciometro.c ****     } while ((status == 0u) && (retMode == Potenciometro_WAIT_FOR_RESULT));
 414              		.loc 1 363 0 is_stmt 1 discriminator 2
 415 0004 03F0FF02 		and	r2, r3, #255
 416 0008 0BB9     		cbnz	r3, .L21
 417              		.loc 1 363 0 is_stmt 0 discriminator 1
 418 000a 0028     		cmp	r0, #0
 419 000c F9D0     		beq	.L22
 420              	.L21:
 364:Generated_Source\PSoC5/Potenciometro.c **** 
 365:Generated_Source\PSoC5/Potenciometro.c ****     return((uint32)status);
 366:Generated_Source\PSoC5/Potenciometro.c **** }
ARM GAS  C:\Users\emman\AppData\Local\Temp\cc1Mv8tY.s 			page 15


 421              		.loc 1 366 0 is_stmt 1
 422 000e 1046     		mov	r0, r2
 423              	.LVL31:
 424 0010 7047     		bx	lr
 425              	.L26:
 426 0012 00BF     		.align	2
 427              	.L25:
 428 0014 63640040 		.word	1073767523
 429              		.cfi_endproc
 430              	.LFE7:
 431              		.size	Potenciometro_IsEndConversion, .-Potenciometro_IsEndConversion
 432              		.section	.text.Potenciometro_GetResult16,"ax",%progbits
 433              		.align	1
 434              		.global	Potenciometro_GetResult16
 435              		.thumb
 436              		.thumb_func
 437              		.type	Potenciometro_GetResult16, %function
 438              	Potenciometro_GetResult16:
 439              	.LFB8:
 367:Generated_Source\PSoC5/Potenciometro.c **** 
 368:Generated_Source\PSoC5/Potenciometro.c **** 
 369:Generated_Source\PSoC5/Potenciometro.c **** /*******************************************************************************
 370:Generated_Source\PSoC5/Potenciometro.c **** * Function Name: Potenciometro_GetResult16
 371:Generated_Source\PSoC5/Potenciometro.c **** ********************************************************************************
 372:Generated_Source\PSoC5/Potenciometro.c **** *
 373:Generated_Source\PSoC5/Potenciometro.c **** * Summary:
 374:Generated_Source\PSoC5/Potenciometro.c **** *  Returns the ADC result for channel chan
 375:Generated_Source\PSoC5/Potenciometro.c **** *
 376:Generated_Source\PSoC5/Potenciometro.c **** * Parameters:
 377:Generated_Source\PSoC5/Potenciometro.c **** *  chan: The ADC channel in which to return the result. The first channel is 0 
 378:Generated_Source\PSoC5/Potenciometro.c **** *        and the last channel is the total number of channels - 1
 379:Generated_Source\PSoC5/Potenciometro.c **** *
 380:Generated_Source\PSoC5/Potenciometro.c **** * Return:
 381:Generated_Source\PSoC5/Potenciometro.c **** *  Returns converted data as a signed 16-bit integer
 382:Generated_Source\PSoC5/Potenciometro.c **** *
 383:Generated_Source\PSoC5/Potenciometro.c **** * Side Effects:
 384:Generated_Source\PSoC5/Potenciometro.c **** *  Converts the ADC counts to the 2's complement form
 385:Generated_Source\PSoC5/Potenciometro.c **** *
 386:Generated_Source\PSoC5/Potenciometro.c **** * Reentrant:
 387:Generated_Source\PSoC5/Potenciometro.c **** *  No.
 388:Generated_Source\PSoC5/Potenciometro.c **** *
 389:Generated_Source\PSoC5/Potenciometro.c **** *******************************************************************************/
 390:Generated_Source\PSoC5/Potenciometro.c **** int16 Potenciometro_GetResult16(uint16 chan)
 391:Generated_Source\PSoC5/Potenciometro.c **** {
 440              		.loc 1 391 0
 441              		.cfi_startproc
 442              		@ args = 0, pretend = 0, frame = 0
 443              		@ frame_needed = 0, uses_anonymous_args = 0
 444              		@ link register save eliminated.
 445              	.LVL32:
 392:Generated_Source\PSoC5/Potenciometro.c ****     return (Potenciometro_finalArray[Potenciometro_GET_RESULT_INDEX_OFFSET - chan] - Potenciometro_
 446              		.loc 1 392 0
 447 0000 044A     		ldr	r2, .L28
 448 0002 054B     		ldr	r3, .L28+4
 449 0004 4042     		negs	r0, r0
 450              	.LVL33:
 451 0006 1B88     		ldrh	r3, [r3]
ARM GAS  C:\Users\emman\AppData\Local\Temp\cc1Mv8tY.s 			page 16


 452 0008 32F81000 		ldrh	r0, [r2, r0, lsl #1]
 453 000c C01A     		subs	r0, r0, r3
 393:Generated_Source\PSoC5/Potenciometro.c **** }
 454              		.loc 1 393 0
 455 000e 00B2     		sxth	r0, r0
 456 0010 7047     		bx	lr
 457              	.L29:
 458 0012 00BF     		.align	2
 459              	.L28:
 460 0014 00000000 		.word	Potenciometro_finalArray
 461 0018 00000000 		.word	Potenciometro_SAR_shift
 462              		.cfi_endproc
 463              	.LFE8:
 464              		.size	Potenciometro_GetResult16, .-Potenciometro_GetResult16
 465              		.section	.text.Potenciometro_GetAdcResult,"ax",%progbits
 466              		.align	1
 467              		.global	Potenciometro_GetAdcResult
 468              		.thumb
 469              		.thumb_func
 470              		.type	Potenciometro_GetAdcResult, %function
 471              	Potenciometro_GetAdcResult:
 472              	.LFB9:
 394:Generated_Source\PSoC5/Potenciometro.c **** 
 395:Generated_Source\PSoC5/Potenciometro.c **** 
 396:Generated_Source\PSoC5/Potenciometro.c **** /*******************************************************************************
 397:Generated_Source\PSoC5/Potenciometro.c **** * Function Name: Potenciometro_GetAdcResult
 398:Generated_Source\PSoC5/Potenciometro.c **** ********************************************************************************
 399:Generated_Source\PSoC5/Potenciometro.c **** *
 400:Generated_Source\PSoC5/Potenciometro.c **** * Summary:
 401:Generated_Source\PSoC5/Potenciometro.c **** *  Gets the data available in the SAR DATA register, not the results buffer
 402:Generated_Source\PSoC5/Potenciometro.c **** *
 403:Generated_Source\PSoC5/Potenciometro.c **** * Parameters:
 404:Generated_Source\PSoC5/Potenciometro.c **** *  None.
 405:Generated_Source\PSoC5/Potenciometro.c **** *
 406:Generated_Source\PSoC5/Potenciometro.c **** * Return:
 407:Generated_Source\PSoC5/Potenciometro.c **** *  The last ADC conversion result
 408:Generated_Source\PSoC5/Potenciometro.c **** *
 409:Generated_Source\PSoC5/Potenciometro.c **** * Side Effects:
 410:Generated_Source\PSoC5/Potenciometro.c **** *  Converts the ADC counts to the 2's complement form
 411:Generated_Source\PSoC5/Potenciometro.c **** *
 412:Generated_Source\PSoC5/Potenciometro.c **** * Reentrant:
 413:Generated_Source\PSoC5/Potenciometro.c **** *  No.
 414:Generated_Source\PSoC5/Potenciometro.c **** *
 415:Generated_Source\PSoC5/Potenciometro.c **** *******************************************************************************/
 416:Generated_Source\PSoC5/Potenciometro.c **** int16 Potenciometro_GetAdcResult(void)
 417:Generated_Source\PSoC5/Potenciometro.c **** {
 473              		.loc 1 417 0
 474              		.cfi_startproc
 475              		@ args = 0, pretend = 0, frame = 0
 476              		@ frame_needed = 0, uses_anonymous_args = 0
 477              		@ link register save eliminated.
 418:Generated_Source\PSoC5/Potenciometro.c ****     return (Potenciometro_SAR_GetResult16());
 478              		.loc 1 418 0
 479 0000 FFF7FEBF 		b	Potenciometro_SAR_GetResult16
 480              	.LVL34:
 481              		.cfi_endproc
 482              	.LFE9:
ARM GAS  C:\Users\emman\AppData\Local\Temp\cc1Mv8tY.s 			page 17


 483              		.size	Potenciometro_GetAdcResult, .-Potenciometro_GetAdcResult
 484              		.section	.text.Potenciometro_SetOffset,"ax",%progbits
 485              		.align	1
 486              		.global	Potenciometro_SetOffset
 487              		.thumb
 488              		.thumb_func
 489              		.type	Potenciometro_SetOffset, %function
 490              	Potenciometro_SetOffset:
 491              	.LFB10:
 419:Generated_Source\PSoC5/Potenciometro.c **** }
 420:Generated_Source\PSoC5/Potenciometro.c **** 
 421:Generated_Source\PSoC5/Potenciometro.c **** 
 422:Generated_Source\PSoC5/Potenciometro.c **** /*******************************************************************************
 423:Generated_Source\PSoC5/Potenciometro.c **** * Function Name: Potenciometro_SetOffset
 424:Generated_Source\PSoC5/Potenciometro.c **** ********************************************************************************
 425:Generated_Source\PSoC5/Potenciometro.c **** *
 426:Generated_Source\PSoC5/Potenciometro.c **** * Summary:
 427:Generated_Source\PSoC5/Potenciometro.c **** *  Sets the ADC offset which is used by the functions _CountsTo_uVolts(),
 428:Generated_Source\PSoC5/Potenciometro.c **** *  _CountsTo_mVolts() and _CountsTo_Volts() to substract the offset from the
 429:Generated_Source\PSoC5/Potenciometro.c **** *  given reading before calculating the voltage conversion
 430:Generated_Source\PSoC5/Potenciometro.c **** *
 431:Generated_Source\PSoC5/Potenciometro.c **** * Parameters:
 432:Generated_Source\PSoC5/Potenciometro.c **** *  offset: This value is measured when the inputs are shorted or connected to
 433:Generated_Source\PSoC5/Potenciometro.c **** *  the same input voltage
 434:Generated_Source\PSoC5/Potenciometro.c **** *
 435:Generated_Source\PSoC5/Potenciometro.c **** * Return:
 436:Generated_Source\PSoC5/Potenciometro.c **** *  None.
 437:Generated_Source\PSoC5/Potenciometro.c **** *
 438:Generated_Source\PSoC5/Potenciometro.c **** * Side Effects:
 439:Generated_Source\PSoC5/Potenciometro.c **** *  Affects Potenciometro_CountsTo_Volts(), 
 440:Generated_Source\PSoC5/Potenciometro.c **** *  Potenciometro_CountsTo_mVolts(), and Potenciometro_CountsTo_uVolts() 
 441:Generated_Source\PSoC5/Potenciometro.c **** *  by subtracting the given offset.
 442:Generated_Source\PSoC5/Potenciometro.c **** *
 443:Generated_Source\PSoC5/Potenciometro.c **** * Reentrant:
 444:Generated_Source\PSoC5/Potenciometro.c **** *  No.
 445:Generated_Source\PSoC5/Potenciometro.c **** *
 446:Generated_Source\PSoC5/Potenciometro.c **** *******************************************************************************/
 447:Generated_Source\PSoC5/Potenciometro.c **** void Potenciometro_SetOffset(int32 offset)
 448:Generated_Source\PSoC5/Potenciometro.c **** {
 492              		.loc 1 448 0
 493              		.cfi_startproc
 494              		@ args = 0, pretend = 0, frame = 0
 495              		@ frame_needed = 0, uses_anonymous_args = 0
 496              		@ link register save eliminated.
 497              	.LVL35:
 449:Generated_Source\PSoC5/Potenciometro.c ****     Potenciometro_SAR_SetOffset((int16)offset);
 498              		.loc 1 449 0
 499 0000 00B2     		sxth	r0, r0
 500              	.LVL36:
 501 0002 FFF7FEBF 		b	Potenciometro_SAR_SetOffset
 502              	.LVL37:
 503              		.cfi_endproc
 504              	.LFE10:
 505              		.size	Potenciometro_SetOffset, .-Potenciometro_SetOffset
 506              		.section	.text.Potenciometro_SetResolution,"ax",%progbits
 507              		.align	1
 508              		.global	Potenciometro_SetResolution
ARM GAS  C:\Users\emman\AppData\Local\Temp\cc1Mv8tY.s 			page 18


 509              		.thumb
 510              		.thumb_func
 511              		.type	Potenciometro_SetResolution, %function
 512              	Potenciometro_SetResolution:
 513              	.LFB11:
 450:Generated_Source\PSoC5/Potenciometro.c **** }
 451:Generated_Source\PSoC5/Potenciometro.c **** 
 452:Generated_Source\PSoC5/Potenciometro.c **** 
 453:Generated_Source\PSoC5/Potenciometro.c **** /*******************************************************************************
 454:Generated_Source\PSoC5/Potenciometro.c **** * Function Name: Potenciometro_SetResolution
 455:Generated_Source\PSoC5/Potenciometro.c **** ********************************************************************************
 456:Generated_Source\PSoC5/Potenciometro.c **** *
 457:Generated_Source\PSoC5/Potenciometro.c **** * Summary:
 458:Generated_Source\PSoC5/Potenciometro.c **** *  Sets the Relution of the SAR.
 459:Generated_Source\PSoC5/Potenciometro.c **** *  This function does not affect the actual conversion with PSoC5 ES1 silicon.
 460:Generated_Source\PSoC5/Potenciometro.c **** *
 461:Generated_Source\PSoC5/Potenciometro.c **** * Parameters:
 462:Generated_Source\PSoC5/Potenciometro.c **** *  resolution:
 463:Generated_Source\PSoC5/Potenciometro.c **** *  12 ->    RES12
 464:Generated_Source\PSoC5/Potenciometro.c **** *  10 ->    RES10
 465:Generated_Source\PSoC5/Potenciometro.c **** *  8  ->    RES8
 466:Generated_Source\PSoC5/Potenciometro.c **** *
 467:Generated_Source\PSoC5/Potenciometro.c **** * Return:
 468:Generated_Source\PSoC5/Potenciometro.c **** *  None.
 469:Generated_Source\PSoC5/Potenciometro.c **** *
 470:Generated_Source\PSoC5/Potenciometro.c **** * Side Effects:
 471:Generated_Source\PSoC5/Potenciometro.c **** *  The ADC_SAR_Seq resolution cannot be changed during a conversion cycle. The
 472:Generated_Source\PSoC5/Potenciometro.c **** *  recommended best practice is to stop conversions with
 473:Generated_Source\PSoC5/Potenciometro.c **** *  Potenciometro_StopConvert(), change the resolution, then restart the
 474:Generated_Source\PSoC5/Potenciometro.c **** *  conversions with Potenciometro_StartConvert().
 475:Generated_Source\PSoC5/Potenciometro.c **** *  If you decide not to stop conversions before calling this API, you
 476:Generated_Source\PSoC5/Potenciometro.c **** *  should use Potenciometro_IsEndConversion() to wait until conversion is 
 477:Generated_Source\PSoC5/Potenciometro.c **** *  complete  before changing the resolution.
 478:Generated_Source\PSoC5/Potenciometro.c **** *  If you call ADC_SetResolution() during a conversion, the resolution will
 479:Generated_Source\PSoC5/Potenciometro.c **** *  not be changed until the current conversion is complete. Data will not be
 480:Generated_Source\PSoC5/Potenciometro.c **** *  available in the new resolution for another 6 + "New Resolution(in bits)"
 481:Generated_Source\PSoC5/Potenciometro.c **** *  clock cycles.
 482:Generated_Source\PSoC5/Potenciometro.c **** *  You may need add a delay of this number of clock cycles after
 483:Generated_Source\PSoC5/Potenciometro.c **** *  Potenciometro_SetResolution() is called before data is valid again.
 484:Generated_Source\PSoC5/Potenciometro.c **** *  Affects Potenciometro_CountsTo_Volts(), Potenciometro_CountsTo_mVolts(), 
 485:Generated_Source\PSoC5/Potenciometro.c **** *  and Potenciometro_CountsTo_uVolts() by calculating the correct conversion 
 486:Generated_Source\PSoC5/Potenciometro.c **** *  between ADC counts and the applied input voltage. Calculation depends on 
 487:Generated_Source\PSoC5/Potenciometro.c **** *  resolution, input range, and voltage reference.
 488:Generated_Source\PSoC5/Potenciometro.c **** *
 489:Generated_Source\PSoC5/Potenciometro.c **** *******************************************************************************/
 490:Generated_Source\PSoC5/Potenciometro.c **** void Potenciometro_SetResolution(uint8 resolution)
 491:Generated_Source\PSoC5/Potenciometro.c **** {
 514              		.loc 1 491 0
 515              		.cfi_startproc
 516              		@ args = 0, pretend = 0, frame = 0
 517              		@ frame_needed = 0, uses_anonymous_args = 0
 518              		@ link register save eliminated.
 519              	.LVL38:
 492:Generated_Source\PSoC5/Potenciometro.c ****     Potenciometro_SAR_SetResolution(resolution);
 520              		.loc 1 492 0
 521 0000 FFF7FEBF 		b	Potenciometro_SAR_SetResolution
 522              	.LVL39:
ARM GAS  C:\Users\emman\AppData\Local\Temp\cc1Mv8tY.s 			page 19


 523              		.cfi_endproc
 524              	.LFE11:
 525              		.size	Potenciometro_SetResolution, .-Potenciometro_SetResolution
 526              		.section	.text.Potenciometro_SetGain,"ax",%progbits
 527              		.align	1
 528              		.global	Potenciometro_SetGain
 529              		.thumb
 530              		.thumb_func
 531              		.type	Potenciometro_SetGain, %function
 532              	Potenciometro_SetGain:
 533              	.LFB12:
 493:Generated_Source\PSoC5/Potenciometro.c **** }
 494:Generated_Source\PSoC5/Potenciometro.c **** 
 495:Generated_Source\PSoC5/Potenciometro.c **** 
 496:Generated_Source\PSoC5/Potenciometro.c **** /*******************************************************************************
 497:Generated_Source\PSoC5/Potenciometro.c **** * Function Name: Potenciometro_SetGain
 498:Generated_Source\PSoC5/Potenciometro.c **** ********************************************************************************
 499:Generated_Source\PSoC5/Potenciometro.c **** *
 500:Generated_Source\PSoC5/Potenciometro.c **** * Summary:
 501:Generated_Source\PSoC5/Potenciometro.c **** *  Sets the ADC gain in counts per volt for the voltage conversion
 502:Generated_Source\PSoC5/Potenciometro.c **** *
 503:Generated_Source\PSoC5/Potenciometro.c **** * Parameters:
 504:Generated_Source\PSoC5/Potenciometro.c **** *  adcGain: counts per volt
 505:Generated_Source\PSoC5/Potenciometro.c **** *
 506:Generated_Source\PSoC5/Potenciometro.c **** * Return:
 507:Generated_Source\PSoC5/Potenciometro.c **** *  None.
 508:Generated_Source\PSoC5/Potenciometro.c **** *
 509:Generated_Source\PSoC5/Potenciometro.c **** * Side Effects:
 510:Generated_Source\PSoC5/Potenciometro.c **** *  None.
 511:Generated_Source\PSoC5/Potenciometro.c **** *
 512:Generated_Source\PSoC5/Potenciometro.c **** * Reentrant:
 513:Generated_Source\PSoC5/Potenciometro.c **** *  No.
 514:Generated_Source\PSoC5/Potenciometro.c **** *
 515:Generated_Source\PSoC5/Potenciometro.c **** *******************************************************************************/
 516:Generated_Source\PSoC5/Potenciometro.c **** void Potenciometro_SetGain(int32 adcGain)
 517:Generated_Source\PSoC5/Potenciometro.c **** {
 534              		.loc 1 517 0
 535              		.cfi_startproc
 536              		@ args = 0, pretend = 0, frame = 0
 537              		@ frame_needed = 0, uses_anonymous_args = 0
 538              		@ link register save eliminated.
 539              	.LVL40:
 518:Generated_Source\PSoC5/Potenciometro.c ****     Potenciometro_SAR_SetGain((int16)adcGain);
 540              		.loc 1 518 0
 541 0000 00B2     		sxth	r0, r0
 542              	.LVL41:
 543 0002 FFF7FEBF 		b	Potenciometro_SAR_SetGain
 544              	.LVL42:
 545              		.cfi_endproc
 546              	.LFE12:
 547              		.size	Potenciometro_SetGain, .-Potenciometro_SetGain
 548              		.section	.text.Potenciometro_SetScaledGain,"ax",%progbits
 549              		.align	1
 550              		.global	Potenciometro_SetScaledGain
 551              		.thumb
 552              		.thumb_func
 553              		.type	Potenciometro_SetScaledGain, %function
ARM GAS  C:\Users\emman\AppData\Local\Temp\cc1Mv8tY.s 			page 20


 554              	Potenciometro_SetScaledGain:
 555              	.LFB13:
 519:Generated_Source\PSoC5/Potenciometro.c **** }
 520:Generated_Source\PSoC5/Potenciometro.c **** 
 521:Generated_Source\PSoC5/Potenciometro.c **** 
 522:Generated_Source\PSoC5/Potenciometro.c **** /*******************************************************************************
 523:Generated_Source\PSoC5/Potenciometro.c **** * Function Name: Potenciometro_SetScaledGain
 524:Generated_Source\PSoC5/Potenciometro.c **** ********************************************************************************
 525:Generated_Source\PSoC5/Potenciometro.c **** *
 526:Generated_Source\PSoC5/Potenciometro.c **** * Summary:
 527:Generated_Source\PSoC5/Potenciometro.c **** *  Sets the ADC gain in counts per 10 volts for the voltage conversion functions
 528:Generated_Source\PSoC5/Potenciometro.c **** *  that follow. This value is set by default by the reference and input range
 529:Generated_Source\PSoC5/Potenciometro.c **** *  settings. It should only be used to further calibrate the ADC with a known
 530:Generated_Source\PSoC5/Potenciometro.c **** *  input or if the ADC is using an external reference.
 531:Generated_Source\PSoC5/Potenciometro.c **** *
 532:Generated_Source\PSoC5/Potenciometro.c **** * Parameters:
 533:Generated_Source\PSoC5/Potenciometro.c **** *  int32  adcGain  counts per 10 volt
 534:Generated_Source\PSoC5/Potenciometro.c **** *
 535:Generated_Source\PSoC5/Potenciometro.c **** * Return:
 536:Generated_Source\PSoC5/Potenciometro.c **** *  None.
 537:Generated_Source\PSoC5/Potenciometro.c **** *
 538:Generated_Source\PSoC5/Potenciometro.c **** * Side Effects:
 539:Generated_Source\PSoC5/Potenciometro.c **** *  Affects Potenciometro_CountsTo_Volts(), Potenciometro_CountsTo_mVolts(),
 540:Generated_Source\PSoC5/Potenciometro.c **** *  Potenciometro_CountsTo_uVolts() by supplying the correct conversion 
 541:Generated_Source\PSoC5/Potenciometro.c **** *  between ADC counts and the applied input voltage
 542:Generated_Source\PSoC5/Potenciometro.c **** *
 543:Generated_Source\PSoC5/Potenciometro.c **** * Reentrant:
 544:Generated_Source\PSoC5/Potenciometro.c **** *  No.
 545:Generated_Source\PSoC5/Potenciometro.c **** *
 546:Generated_Source\PSoC5/Potenciometro.c **** *******************************************************************************/
 547:Generated_Source\PSoC5/Potenciometro.c **** void Potenciometro_SetScaledGain(int32 adcGain)
 548:Generated_Source\PSoC5/Potenciometro.c **** {
 556              		.loc 1 548 0
 557              		.cfi_startproc
 558              		@ args = 0, pretend = 0, frame = 0
 559              		@ frame_needed = 0, uses_anonymous_args = 0
 560              		@ link register save eliminated.
 561              	.LVL43:
 549:Generated_Source\PSoC5/Potenciometro.c ****     Potenciometro_SAR_SetScaledGain(adcGain);
 562              		.loc 1 549 0
 563 0000 FFF7FEBF 		b	Potenciometro_SAR_SetScaledGain
 564              	.LVL44:
 565              		.cfi_endproc
 566              	.LFE13:
 567              		.size	Potenciometro_SetScaledGain, .-Potenciometro_SetScaledGain
 568              		.section	.text.Potenciometro_CountsTo_mVolts,"ax",%progbits
 569              		.align	1
 570              		.global	Potenciometro_CountsTo_mVolts
 571              		.thumb
 572              		.thumb_func
 573              		.type	Potenciometro_CountsTo_mVolts, %function
 574              	Potenciometro_CountsTo_mVolts:
 575              	.LFB14:
 550:Generated_Source\PSoC5/Potenciometro.c **** }
 551:Generated_Source\PSoC5/Potenciometro.c **** 
 552:Generated_Source\PSoC5/Potenciometro.c **** 
 553:Generated_Source\PSoC5/Potenciometro.c **** /*******************************************************************************
ARM GAS  C:\Users\emman\AppData\Local\Temp\cc1Mv8tY.s 			page 21


 554:Generated_Source\PSoC5/Potenciometro.c **** * Function Name: Potenciometro_CountsTo_mVolts
 555:Generated_Source\PSoC5/Potenciometro.c **** ********************************************************************************
 556:Generated_Source\PSoC5/Potenciometro.c **** *
 557:Generated_Source\PSoC5/Potenciometro.c **** * Summary:
 558:Generated_Source\PSoC5/Potenciometro.c **** *  Converts the ADC output to mVolts as a 32-bit integer
 559:Generated_Source\PSoC5/Potenciometro.c **** *
 560:Generated_Source\PSoC5/Potenciometro.c **** * Parameters:
 561:Generated_Source\PSoC5/Potenciometro.c **** *  adcCounts: Result from the ADC_SAR_Seq conversion
 562:Generated_Source\PSoC5/Potenciometro.c **** *
 563:Generated_Source\PSoC5/Potenciometro.c **** * Return:
 564:Generated_Source\PSoC5/Potenciometro.c **** *  Result in mV
 565:Generated_Source\PSoC5/Potenciometro.c **** *
 566:Generated_Source\PSoC5/Potenciometro.c **** * Side Effects:
 567:Generated_Source\PSoC5/Potenciometro.c **** *  None.
 568:Generated_Source\PSoC5/Potenciometro.c **** *
 569:Generated_Source\PSoC5/Potenciometro.c **** * Reentrant:
 570:Generated_Source\PSoC5/Potenciometro.c **** *  No.
 571:Generated_Source\PSoC5/Potenciometro.c **** *
 572:Generated_Source\PSoC5/Potenciometro.c **** *******************************************************************************/
 573:Generated_Source\PSoC5/Potenciometro.c **** int32 Potenciometro_CountsTo_mVolts(int16 adcCounts)
 574:Generated_Source\PSoC5/Potenciometro.c **** {
 576              		.loc 1 574 0
 577              		.cfi_startproc
 578              		@ args = 0, pretend = 0, frame = 0
 579              		@ frame_needed = 0, uses_anonymous_args = 0
 580              	.LVL45:
 581 0000 08B5     		push	{r3, lr}
 582              		.cfi_def_cfa_offset 8
 583              		.cfi_offset 3, -8
 584              		.cfi_offset 14, -4
 575:Generated_Source\PSoC5/Potenciometro.c ****     return ((int32) Potenciometro_SAR_CountsTo_mVolts(adcCounts));
 585              		.loc 1 575 0
 586 0002 FFF7FEFF 		bl	Potenciometro_SAR_CountsTo_mVolts
 587              	.LVL46:
 576:Generated_Source\PSoC5/Potenciometro.c **** }
 588              		.loc 1 576 0
 589 0006 08BD     		pop	{r3, pc}
 590              		.cfi_endproc
 591              	.LFE14:
 592              		.size	Potenciometro_CountsTo_mVolts, .-Potenciometro_CountsTo_mVolts
 593              		.section	.text.Potenciometro_CountsTo_uVolts,"ax",%progbits
 594              		.align	1
 595              		.global	Potenciometro_CountsTo_uVolts
 596              		.thumb
 597              		.thumb_func
 598              		.type	Potenciometro_CountsTo_uVolts, %function
 599              	Potenciometro_CountsTo_uVolts:
 600              	.LFB15:
 577:Generated_Source\PSoC5/Potenciometro.c **** 
 578:Generated_Source\PSoC5/Potenciometro.c **** 
 579:Generated_Source\PSoC5/Potenciometro.c **** /*******************************************************************************
 580:Generated_Source\PSoC5/Potenciometro.c **** * Function Name: Potenciometro_CountsTo_uVolts
 581:Generated_Source\PSoC5/Potenciometro.c **** ********************************************************************************
 582:Generated_Source\PSoC5/Potenciometro.c **** *
 583:Generated_Source\PSoC5/Potenciometro.c **** * Summary:
 584:Generated_Source\PSoC5/Potenciometro.c **** *  Converts the ADC output to uVolts as a 32-bit integer
 585:Generated_Source\PSoC5/Potenciometro.c **** *
ARM GAS  C:\Users\emman\AppData\Local\Temp\cc1Mv8tY.s 			page 22


 586:Generated_Source\PSoC5/Potenciometro.c **** * Parameters:
 587:Generated_Source\PSoC5/Potenciometro.c **** *  adcCounts: Result from the ADC conversion
 588:Generated_Source\PSoC5/Potenciometro.c **** *
 589:Generated_Source\PSoC5/Potenciometro.c **** * Return:
 590:Generated_Source\PSoC5/Potenciometro.c **** *  Result in uV
 591:Generated_Source\PSoC5/Potenciometro.c **** *
 592:Generated_Source\PSoC5/Potenciometro.c **** * Side Effects:
 593:Generated_Source\PSoC5/Potenciometro.c **** *  None.
 594:Generated_Source\PSoC5/Potenciometro.c **** *
 595:Generated_Source\PSoC5/Potenciometro.c **** * Reentrant:
 596:Generated_Source\PSoC5/Potenciometro.c **** *  No.
 597:Generated_Source\PSoC5/Potenciometro.c **** *
 598:Generated_Source\PSoC5/Potenciometro.c **** *******************************************************************************/
 599:Generated_Source\PSoC5/Potenciometro.c **** int32 Potenciometro_CountsTo_uVolts(int16 adcCounts)
 600:Generated_Source\PSoC5/Potenciometro.c **** {
 601              		.loc 1 600 0
 602              		.cfi_startproc
 603              		@ args = 0, pretend = 0, frame = 0
 604              		@ frame_needed = 0, uses_anonymous_args = 0
 605              		@ link register save eliminated.
 606              	.LVL47:
 601:Generated_Source\PSoC5/Potenciometro.c ****     return (Potenciometro_SAR_CountsTo_uVolts(adcCounts));
 607              		.loc 1 601 0
 608 0000 FFF7FEBF 		b	Potenciometro_SAR_CountsTo_uVolts
 609              	.LVL48:
 610              		.cfi_endproc
 611              	.LFE15:
 612              		.size	Potenciometro_CountsTo_uVolts, .-Potenciometro_CountsTo_uVolts
 613              		.section	.text.Potenciometro_CountsTo_Volts,"ax",%progbits
 614              		.align	1
 615              		.global	Potenciometro_CountsTo_Volts
 616              		.thumb
 617              		.thumb_func
 618              		.type	Potenciometro_CountsTo_Volts, %function
 619              	Potenciometro_CountsTo_Volts:
 620              	.LFB16:
 602:Generated_Source\PSoC5/Potenciometro.c **** }
 603:Generated_Source\PSoC5/Potenciometro.c **** 
 604:Generated_Source\PSoC5/Potenciometro.c **** 
 605:Generated_Source\PSoC5/Potenciometro.c **** /*******************************************************************************
 606:Generated_Source\PSoC5/Potenciometro.c **** * Function Name: Potenciometro_CountsTo_Volts
 607:Generated_Source\PSoC5/Potenciometro.c **** ********************************************************************************
 608:Generated_Source\PSoC5/Potenciometro.c **** *
 609:Generated_Source\PSoC5/Potenciometro.c **** * Summary:
 610:Generated_Source\PSoC5/Potenciometro.c **** *  Converts the ADC output to Volts as a floating point number
 611:Generated_Source\PSoC5/Potenciometro.c **** *
 612:Generated_Source\PSoC5/Potenciometro.c **** * Parameters:
 613:Generated_Source\PSoC5/Potenciometro.c **** *  adcCounts: Result from the ADC_SAR_Seq conversion
 614:Generated_Source\PSoC5/Potenciometro.c **** *
 615:Generated_Source\PSoC5/Potenciometro.c **** * Return:
 616:Generated_Source\PSoC5/Potenciometro.c **** *  Result in volts
 617:Generated_Source\PSoC5/Potenciometro.c **** *
 618:Generated_Source\PSoC5/Potenciometro.c **** * Side Effects:
 619:Generated_Source\PSoC5/Potenciometro.c **** *  None.
 620:Generated_Source\PSoC5/Potenciometro.c **** *
 621:Generated_Source\PSoC5/Potenciometro.c **** * Reentrant:
 622:Generated_Source\PSoC5/Potenciometro.c **** *  No.
ARM GAS  C:\Users\emman\AppData\Local\Temp\cc1Mv8tY.s 			page 23


 623:Generated_Source\PSoC5/Potenciometro.c **** *
 624:Generated_Source\PSoC5/Potenciometro.c **** *******************************************************************************/
 625:Generated_Source\PSoC5/Potenciometro.c **** float32 Potenciometro_CountsTo_Volts(int16 adcCounts)
 626:Generated_Source\PSoC5/Potenciometro.c **** {
 621              		.loc 1 626 0
 622              		.cfi_startproc
 623              		@ args = 0, pretend = 0, frame = 0
 624              		@ frame_needed = 0, uses_anonymous_args = 0
 625              		@ link register save eliminated.
 626              	.LVL49:
 627:Generated_Source\PSoC5/Potenciometro.c ****     return (Potenciometro_SAR_CountsTo_Volts(adcCounts));
 627              		.loc 1 627 0
 628 0000 FFF7FEBF 		b	Potenciometro_SAR_CountsTo_Volts
 629              	.LVL50:
 630              		.cfi_endproc
 631              	.LFE16:
 632              		.size	Potenciometro_CountsTo_Volts, .-Potenciometro_CountsTo_Volts
 633              		.global	Potenciometro_initVar
 634              		.comm	Potenciometro_finalArray,2,2
 635              		.data
 636              		.set	.LANCHOR1,. + 0
 637              		.type	Potenciometro_tempTD, %object
 638              		.size	Potenciometro_tempTD, 1
 639              	Potenciometro_tempTD:
 640 0000 FF       		.byte	-1
 641              		.type	Potenciometro_finalTD, %object
 642              		.size	Potenciometro_finalTD, 1
 643              	Potenciometro_finalTD:
 644 0001 FF       		.byte	-1
 645              		.bss
 646              		.align	2
 647              		.set	.LANCHOR0,. + 0
 648              		.type	Potenciometro_tempChan, %object
 649              		.size	Potenciometro_tempChan, 1
 650              	Potenciometro_tempChan:
 651 0000 00       		.space	1
 652              		.type	Potenciometro_finalChan, %object
 653              		.size	Potenciometro_finalChan, 1
 654              	Potenciometro_finalChan:
 655 0001 00       		.space	1
 656              		.type	Potenciometro_tempArray.5179, %object
 657              		.size	Potenciometro_tempArray.5179, 2
 658              	Potenciometro_tempArray.5179:
 659 0002 0000     		.space	2
 660              		.type	Potenciometro_initVar, %object
 661              		.size	Potenciometro_initVar, 4
 662              	Potenciometro_initVar:
 663 0004 00000000 		.space	4
 664              		.text
 665              	.Letext0:
 666              		.file 2 "Generated_Source\\PSoC5\\cytypes.h"
 667              		.file 3 "Generated_Source\\PSoC5\\Potenciometro_SAR.h"
 668              		.file 4 "Generated_Source\\PSoC5/CYDMAC.H"
 669              		.file 5 "Generated_Source\\PSoC5\\Potenciometro_TempBuf_dma.h"
 670              		.file 6 "Generated_Source\\PSoC5\\Potenciometro_FinalBuf_dma.h"
 671              		.file 7 "Generated_Source\\PSoC5\\Potenciometro_IRQ.h"
 672              		.file 8 "Generated_Source\\PSoC5\\CyLib.h"
ARM GAS  C:\Users\emman\AppData\Local\Temp\cc1Mv8tY.s 			page 24

