ARM GAS  C:\Users\emman\AppData\Local\Temp\ccZF3e39.s 			page 1


   1              		.syntax unified
   2              		.cpu cortex-m3
   3              		.fpu softvfp
   4              		.eabi_attribute 20, 1
   5              		.eabi_attribute 21, 1
   6              		.eabi_attribute 23, 3
   7              		.eabi_attribute 24, 1
   8              		.eabi_attribute 25, 1
   9              		.eabi_attribute 26, 1
  10              		.eabi_attribute 30, 4
  11              		.eabi_attribute 34, 1
  12              		.eabi_attribute 18, 4
  13              		.thumb
  14              		.syntax unified
  15              		.file	"Potenciometro_PM.c"
  16              		.text
  17              	.Ltext0:
  18              		.cfi_sections	.debug_frame
  19              		.section	.text.Potenciometro_Sleep,"ax",%progbits
  20              		.align	1
  21              		.global	Potenciometro_Sleep
  22              		.thumb
  23              		.thumb_func
  24              		.type	Potenciometro_Sleep, %function
  25              	Potenciometro_Sleep:
  26              	.LFB0:
  27              		.file 1 "Generated_Source\\PSoC5\\Potenciometro_PM.c"
   1:Generated_Source\PSoC5/Potenciometro_PM.c **** /*******************************************************************************
   2:Generated_Source\PSoC5/Potenciometro_PM.c **** * File Name: Potenciometro_PM.c
   3:Generated_Source\PSoC5/Potenciometro_PM.c **** * Version 2.10
   4:Generated_Source\PSoC5/Potenciometro_PM.c **** *
   5:Generated_Source\PSoC5/Potenciometro_PM.c **** * Description:
   6:Generated_Source\PSoC5/Potenciometro_PM.c **** *  This file contains the setup, control and status commands to support
   7:Generated_Source\PSoC5/Potenciometro_PM.c **** *  component operations in low power mode.
   8:Generated_Source\PSoC5/Potenciometro_PM.c **** *
   9:Generated_Source\PSoC5/Potenciometro_PM.c **** * Note:
  10:Generated_Source\PSoC5/Potenciometro_PM.c **** *
  11:Generated_Source\PSoC5/Potenciometro_PM.c **** ********************************************************************************
  12:Generated_Source\PSoC5/Potenciometro_PM.c **** * Copyright 2012-2015, Cypress Semiconductor Corporation.  All rights reserved.
  13:Generated_Source\PSoC5/Potenciometro_PM.c **** * You may use this file only in accordance with the license, terms, conditions,
  14:Generated_Source\PSoC5/Potenciometro_PM.c **** * disclaimers, and limitations in the end user license agreement accompanying
  15:Generated_Source\PSoC5/Potenciometro_PM.c **** * the software package with which this file was provided.
  16:Generated_Source\PSoC5/Potenciometro_PM.c **** *******************************************************************************/
  17:Generated_Source\PSoC5/Potenciometro_PM.c **** 
  18:Generated_Source\PSoC5/Potenciometro_PM.c **** #include "Potenciometro.h"
  19:Generated_Source\PSoC5/Potenciometro_PM.c **** #include "Potenciometro_SAR.h"
  20:Generated_Source\PSoC5/Potenciometro_PM.c **** #if(Potenciometro_CLOCK_SOURCE == Potenciometro_CLOCK_INTERNAL)
  21:Generated_Source\PSoC5/Potenciometro_PM.c ****     #include "Potenciometro_IntClock.h"
  22:Generated_Source\PSoC5/Potenciometro_PM.c **** #endif   /* Potenciometro_CLOCK_SOURCE == Potenciometro_CLOCK_INTERNAL */
  23:Generated_Source\PSoC5/Potenciometro_PM.c **** 
  24:Generated_Source\PSoC5/Potenciometro_PM.c **** 
  25:Generated_Source\PSoC5/Potenciometro_PM.c **** /*******************************************************************************
  26:Generated_Source\PSoC5/Potenciometro_PM.c **** * Function Name: Potenciometro_Sleep
  27:Generated_Source\PSoC5/Potenciometro_PM.c **** ********************************************************************************
  28:Generated_Source\PSoC5/Potenciometro_PM.c **** *
  29:Generated_Source\PSoC5/Potenciometro_PM.c **** * Summary:
  30:Generated_Source\PSoC5/Potenciometro_PM.c **** *  Stops the ADC operation and saves the configuration registers and component
ARM GAS  C:\Users\emman\AppData\Local\Temp\ccZF3e39.s 			page 2


  31:Generated_Source\PSoC5/Potenciometro_PM.c **** *  enable state. Should be called just prior to entering sleep
  32:Generated_Source\PSoC5/Potenciometro_PM.c **** *
  33:Generated_Source\PSoC5/Potenciometro_PM.c **** * Parameters:
  34:Generated_Source\PSoC5/Potenciometro_PM.c **** *  None.
  35:Generated_Source\PSoC5/Potenciometro_PM.c **** *
  36:Generated_Source\PSoC5/Potenciometro_PM.c **** * Return:
  37:Generated_Source\PSoC5/Potenciometro_PM.c **** *  None.
  38:Generated_Source\PSoC5/Potenciometro_PM.c **** *
  39:Generated_Source\PSoC5/Potenciometro_PM.c **** * Side Effects:
  40:Generated_Source\PSoC5/Potenciometro_PM.c **** *  None.
  41:Generated_Source\PSoC5/Potenciometro_PM.c **** *
  42:Generated_Source\PSoC5/Potenciometro_PM.c **** * Reentrant:
  43:Generated_Source\PSoC5/Potenciometro_PM.c **** *  No.
  44:Generated_Source\PSoC5/Potenciometro_PM.c **** *
  45:Generated_Source\PSoC5/Potenciometro_PM.c **** *******************************************************************************/
  46:Generated_Source\PSoC5/Potenciometro_PM.c **** void Potenciometro_Sleep(void)
  47:Generated_Source\PSoC5/Potenciometro_PM.c **** {
  28              		.loc 1 47 0
  29              		.cfi_startproc
  30              		@ args = 0, pretend = 0, frame = 0
  31              		@ frame_needed = 0, uses_anonymous_args = 0
  32 0000 08B5     		push	{r3, lr}
  33              		.cfi_def_cfa_offset 8
  34              		.cfi_offset 3, -8
  35              		.cfi_offset 14, -4
  48:Generated_Source\PSoC5/Potenciometro_PM.c ****     Potenciometro_SAR_Stop();
  36              		.loc 1 48 0
  37 0002 FFF7FEFF 		bl	Potenciometro_SAR_Stop
  38              	.LVL0:
  49:Generated_Source\PSoC5/Potenciometro_PM.c ****     Potenciometro_SAR_Sleep();
  39              		.loc 1 49 0
  40 0006 FFF7FEFF 		bl	Potenciometro_SAR_Sleep
  41              	.LVL1:
  50:Generated_Source\PSoC5/Potenciometro_PM.c ****     Potenciometro_Disable();
  42              		.loc 1 50 0
  43 000a FFF7FEFF 		bl	Potenciometro_Disable
  44              	.LVL2:
  51:Generated_Source\PSoC5/Potenciometro_PM.c **** 
  52:Generated_Source\PSoC5/Potenciometro_PM.c ****     #if(Potenciometro_CLOCK_SOURCE == Potenciometro_CLOCK_INTERNAL)
  53:Generated_Source\PSoC5/Potenciometro_PM.c ****         Potenciometro_IntClock_Stop();
  54:Generated_Source\PSoC5/Potenciometro_PM.c ****     #endif   /* Potenciometro_CLOCK_SOURCE == Potenciometro_CLOCK_INTERNAL */
  55:Generated_Source\PSoC5/Potenciometro_PM.c **** }
  45              		.loc 1 55 0
  46 000e BDE80840 		pop	{r3, lr}
  47              		.cfi_restore 14
  48              		.cfi_restore 3
  49              		.cfi_def_cfa_offset 0
  53:Generated_Source\PSoC5/Potenciometro_PM.c ****     #endif   /* Potenciometro_CLOCK_SOURCE == Potenciometro_CLOCK_INTERNAL */
  50              		.loc 1 53 0
  51 0012 FFF7FEBF 		b	Potenciometro_IntClock_Stop
  52              	.LVL3:
  53              		.cfi_endproc
  54              	.LFE0:
  55              		.size	Potenciometro_Sleep, .-Potenciometro_Sleep
  56              		.section	.text.Potenciometro_Wakeup,"ax",%progbits
  57              		.align	1
  58              		.global	Potenciometro_Wakeup
ARM GAS  C:\Users\emman\AppData\Local\Temp\ccZF3e39.s 			page 3


  59              		.thumb
  60              		.thumb_func
  61              		.type	Potenciometro_Wakeup, %function
  62              	Potenciometro_Wakeup:
  63              	.LFB1:
  56:Generated_Source\PSoC5/Potenciometro_PM.c **** 
  57:Generated_Source\PSoC5/Potenciometro_PM.c **** 
  58:Generated_Source\PSoC5/Potenciometro_PM.c **** /*******************************************************************************
  59:Generated_Source\PSoC5/Potenciometro_PM.c **** * Function Name: Potenciometro_Wakeup
  60:Generated_Source\PSoC5/Potenciometro_PM.c **** ********************************************************************************
  61:Generated_Source\PSoC5/Potenciometro_PM.c **** *
  62:Generated_Source\PSoC5/Potenciometro_PM.c **** * Summary:
  63:Generated_Source\PSoC5/Potenciometro_PM.c **** *  Restores the component enable state and configuration registers. This should
  64:Generated_Source\PSoC5/Potenciometro_PM.c **** *  be called just after awaking from sleep mode
  65:Generated_Source\PSoC5/Potenciometro_PM.c **** *
  66:Generated_Source\PSoC5/Potenciometro_PM.c **** * Parameters:
  67:Generated_Source\PSoC5/Potenciometro_PM.c **** *  None.
  68:Generated_Source\PSoC5/Potenciometro_PM.c **** *
  69:Generated_Source\PSoC5/Potenciometro_PM.c **** * Return:
  70:Generated_Source\PSoC5/Potenciometro_PM.c **** *  None.
  71:Generated_Source\PSoC5/Potenciometro_PM.c **** *
  72:Generated_Source\PSoC5/Potenciometro_PM.c **** * Side Effects:
  73:Generated_Source\PSoC5/Potenciometro_PM.c **** *  None.
  74:Generated_Source\PSoC5/Potenciometro_PM.c **** *
  75:Generated_Source\PSoC5/Potenciometro_PM.c **** * Reentrant:
  76:Generated_Source\PSoC5/Potenciometro_PM.c **** *  No.
  77:Generated_Source\PSoC5/Potenciometro_PM.c **** *
  78:Generated_Source\PSoC5/Potenciometro_PM.c **** *******************************************************************************/
  79:Generated_Source\PSoC5/Potenciometro_PM.c **** void Potenciometro_Wakeup(void)
  80:Generated_Source\PSoC5/Potenciometro_PM.c **** {
  64              		.loc 1 80 0
  65              		.cfi_startproc
  66              		@ args = 0, pretend = 0, frame = 0
  67              		@ frame_needed = 0, uses_anonymous_args = 0
  68 0000 08B5     		push	{r3, lr}
  69              		.cfi_def_cfa_offset 8
  70              		.cfi_offset 3, -8
  71              		.cfi_offset 14, -4
  81:Generated_Source\PSoC5/Potenciometro_PM.c ****     Potenciometro_SAR_Wakeup();
  72              		.loc 1 81 0
  73 0002 FFF7FEFF 		bl	Potenciometro_SAR_Wakeup
  74              	.LVL4:
  82:Generated_Source\PSoC5/Potenciometro_PM.c ****     Potenciometro_SAR_Enable();
  75              		.loc 1 82 0
  76 0006 FFF7FEFF 		bl	Potenciometro_SAR_Enable
  77              	.LVL5:
  83:Generated_Source\PSoC5/Potenciometro_PM.c **** 
  84:Generated_Source\PSoC5/Potenciometro_PM.c ****     #if(Potenciometro_CLOCK_SOURCE == Potenciometro_CLOCK_INTERNAL)
  85:Generated_Source\PSoC5/Potenciometro_PM.c ****         Potenciometro_IntClock_Start();
  78              		.loc 1 85 0
  79 000a FFF7FEFF 		bl	Potenciometro_IntClock_Start
  80              	.LVL6:
  86:Generated_Source\PSoC5/Potenciometro_PM.c ****     #endif   /* Potenciometro_CLOCK_SOURCE == Potenciometro_CLOCK_INTERNAL */
  87:Generated_Source\PSoC5/Potenciometro_PM.c **** 
  88:Generated_Source\PSoC5/Potenciometro_PM.c ****     /* The block is ready to use 10 us after the SAR enable signal is set high. */
  89:Generated_Source\PSoC5/Potenciometro_PM.c ****     CyDelayUs(10u);
  81              		.loc 1 89 0
ARM GAS  C:\Users\emman\AppData\Local\Temp\ccZF3e39.s 			page 4


  82 000e 0A20     		movs	r0, #10
  83 0010 FFF7FEFF 		bl	CyDelayUs
  84              	.LVL7:
  90:Generated_Source\PSoC5/Potenciometro_PM.c ****     
  91:Generated_Source\PSoC5/Potenciometro_PM.c ****     Potenciometro_Enable();
  85              		.loc 1 91 0
  86 0014 FFF7FEFF 		bl	Potenciometro_Enable
  87              	.LVL8:
  92:Generated_Source\PSoC5/Potenciometro_PM.c **** 
  93:Generated_Source\PSoC5/Potenciometro_PM.c ****     #if(Potenciometro_SAMPLE_MODE == Potenciometro_SAMPLE_MODE_FREE_RUNNING)
  94:Generated_Source\PSoC5/Potenciometro_PM.c ****         Potenciometro_SAR_StartConvert();
  88              		.loc 1 94 0
  89 0018 FFF7FEFF 		bl	Potenciometro_SAR_StartConvert
  90              	.LVL9:
  95:Generated_Source\PSoC5/Potenciometro_PM.c ****     #endif /* (Potenciometro_SAMPLE_MODE == Potenciometro_SAMPLE_MODE_FREE_RUNNING) */
  96:Generated_Source\PSoC5/Potenciometro_PM.c **** 
  97:Generated_Source\PSoC5/Potenciometro_PM.c ****     (void) CY_GET_REG8(Potenciometro_STATUS_PTR);
  91              		.loc 1 97 0
  92 001c 014B     		ldr	r3, .L3
  93 001e 1B78     		ldrb	r3, [r3]	@ zero_extendqisi2
  94 0020 08BD     		pop	{r3, pc}
  95              	.L4:
  96 0022 00BF     		.align	2
  97              	.L3:
  98 0024 63640040 		.word	1073767523
  99              		.cfi_endproc
 100              	.LFE1:
 101              		.size	Potenciometro_Wakeup, .-Potenciometro_Wakeup
 102              		.section	.text.Potenciometro_SaveConfig,"ax",%progbits
 103              		.align	1
 104              		.global	Potenciometro_SaveConfig
 105              		.thumb
 106              		.thumb_func
 107              		.type	Potenciometro_SaveConfig, %function
 108              	Potenciometro_SaveConfig:
 109              	.LFB5:
 110              		.cfi_startproc
 111              		@ args = 0, pretend = 0, frame = 0
 112              		@ frame_needed = 0, uses_anonymous_args = 0
 113              		@ link register save eliminated.
 114 0000 7047     		bx	lr
 115              		.cfi_endproc
 116              	.LFE5:
 117              		.size	Potenciometro_SaveConfig, .-Potenciometro_SaveConfig
 118              		.section	.text.Potenciometro_RestoreConfig,"ax",%progbits
 119              		.align	1
 120              		.global	Potenciometro_RestoreConfig
 121              		.thumb
 122              		.thumb_func
 123              		.type	Potenciometro_RestoreConfig, %function
 124              	Potenciometro_RestoreConfig:
 125              	.LFB3:
  98:Generated_Source\PSoC5/Potenciometro_PM.c **** }
  99:Generated_Source\PSoC5/Potenciometro_PM.c **** 
 100:Generated_Source\PSoC5/Potenciometro_PM.c **** 
 101:Generated_Source\PSoC5/Potenciometro_PM.c **** /*******************************************************************************
 102:Generated_Source\PSoC5/Potenciometro_PM.c **** * Function Name: Potenciometro_SaveConfig
ARM GAS  C:\Users\emman\AppData\Local\Temp\ccZF3e39.s 			page 5


 103:Generated_Source\PSoC5/Potenciometro_PM.c **** ********************************************************************************
 104:Generated_Source\PSoC5/Potenciometro_PM.c **** *
 105:Generated_Source\PSoC5/Potenciometro_PM.c **** * Summary:
 106:Generated_Source\PSoC5/Potenciometro_PM.c **** *  Save the current configuration of ADC non-retention registers
 107:Generated_Source\PSoC5/Potenciometro_PM.c **** *
 108:Generated_Source\PSoC5/Potenciometro_PM.c **** * Parameters:
 109:Generated_Source\PSoC5/Potenciometro_PM.c **** *  None.
 110:Generated_Source\PSoC5/Potenciometro_PM.c **** *
 111:Generated_Source\PSoC5/Potenciometro_PM.c **** * Return:
 112:Generated_Source\PSoC5/Potenciometro_PM.c **** *  None.
 113:Generated_Source\PSoC5/Potenciometro_PM.c **** *
 114:Generated_Source\PSoC5/Potenciometro_PM.c **** * Side Effects:
 115:Generated_Source\PSoC5/Potenciometro_PM.c **** *  None.
 116:Generated_Source\PSoC5/Potenciometro_PM.c **** *
 117:Generated_Source\PSoC5/Potenciometro_PM.c **** * Reentrant:
 118:Generated_Source\PSoC5/Potenciometro_PM.c **** *  No.
 119:Generated_Source\PSoC5/Potenciometro_PM.c **** *
 120:Generated_Source\PSoC5/Potenciometro_PM.c **** *******************************************************************************/
 121:Generated_Source\PSoC5/Potenciometro_PM.c **** void Potenciometro_SaveConfig(void)
 122:Generated_Source\PSoC5/Potenciometro_PM.c **** {
 123:Generated_Source\PSoC5/Potenciometro_PM.c **** 
 124:Generated_Source\PSoC5/Potenciometro_PM.c **** }
 125:Generated_Source\PSoC5/Potenciometro_PM.c **** 
 126:Generated_Source\PSoC5/Potenciometro_PM.c **** 
 127:Generated_Source\PSoC5/Potenciometro_PM.c **** /*******************************************************************************
 128:Generated_Source\PSoC5/Potenciometro_PM.c **** * Function Name: Potenciometro_RestoreConfig
 129:Generated_Source\PSoC5/Potenciometro_PM.c **** ********************************************************************************
 130:Generated_Source\PSoC5/Potenciometro_PM.c **** *
 131:Generated_Source\PSoC5/Potenciometro_PM.c **** * Summary:
 132:Generated_Source\PSoC5/Potenciometro_PM.c **** *  Restores the configuration of ADC non-retention registers
 133:Generated_Source\PSoC5/Potenciometro_PM.c **** *
 134:Generated_Source\PSoC5/Potenciometro_PM.c **** * Parameters:
 135:Generated_Source\PSoC5/Potenciometro_PM.c **** *  None.
 136:Generated_Source\PSoC5/Potenciometro_PM.c **** *
 137:Generated_Source\PSoC5/Potenciometro_PM.c **** * Return:
 138:Generated_Source\PSoC5/Potenciometro_PM.c **** *  None.
 139:Generated_Source\PSoC5/Potenciometro_PM.c **** *
 140:Generated_Source\PSoC5/Potenciometro_PM.c **** * Side Effects:
 141:Generated_Source\PSoC5/Potenciometro_PM.c **** *  None.
 142:Generated_Source\PSoC5/Potenciometro_PM.c **** *
 143:Generated_Source\PSoC5/Potenciometro_PM.c **** * Reentrant:
 144:Generated_Source\PSoC5/Potenciometro_PM.c **** *  No.
 145:Generated_Source\PSoC5/Potenciometro_PM.c **** *
 146:Generated_Source\PSoC5/Potenciometro_PM.c **** *******************************************************************************/
 147:Generated_Source\PSoC5/Potenciometro_PM.c **** void Potenciometro_RestoreConfig(void)
 148:Generated_Source\PSoC5/Potenciometro_PM.c **** {
 126              		.loc 1 148 0
 127              		.cfi_startproc
 128              		@ args = 0, pretend = 0, frame = 0
 129              		@ frame_needed = 0, uses_anonymous_args = 0
 130              		@ link register save eliminated.
 131 0000 7047     		bx	lr
 132              		.cfi_endproc
 133              	.LFE3:
 134              		.size	Potenciometro_RestoreConfig, .-Potenciometro_RestoreConfig
 135              		.text
 136              	.Letext0:
ARM GAS  C:\Users\emman\AppData\Local\Temp\ccZF3e39.s 			page 6


 137              		.file 2 "Generated_Source\\PSoC5\\cytypes.h"
 138              		.file 3 "Generated_Source\\PSoC5\\Potenciometro_SAR.h"
 139              		.file 4 "Generated_Source\\PSoC5\\Potenciometro.h"
 140              		.file 5 "Generated_Source\\PSoC5\\Potenciometro_IntClock.h"
 141              		.file 6 "Generated_Source\\PSoC5\\CyLib.h"