ARM GAS  C:\Users\emman\AppData\Local\Temp\ccl8RLpE.s 			page 1


   1              		.syntax unified
   2              		.cpu cortex-m3
   3              		.fpu softvfp
   4              		.eabi_attribute 20, 1
   5              		.eabi_attribute 21, 1
   6              		.eabi_attribute 23, 3
   7              		.eabi_attribute 24, 1
   8              		.eabi_attribute 25, 1
   9              		.eabi_attribute 26, 1
  10              		.eabi_attribute 30, 4
  11              		.eabi_attribute 34, 1
  12              		.eabi_attribute 18, 4
  13              		.thumb
  14              		.syntax unified
  15              		.file	"PWM_X.c"
  16              		.text
  17              	.Ltext0:
  18              		.cfi_sections	.debug_frame
  19              		.section	.text.PWM_X_Enable,"ax",%progbits
  20              		.align	1
  21              		.global	PWM_X_Enable
  22              		.thumb
  23              		.thumb_func
  24              		.type	PWM_X_Enable, %function
  25              	PWM_X_Enable:
  26              	.LFB2:
  27              		.file 1 "Generated_Source\\PSoC5\\PWM_X.c"
   1:Generated_Source\PSoC5/PWM_X.c **** /*******************************************************************************
   2:Generated_Source\PSoC5/PWM_X.c **** * File Name: PWM_X.c
   3:Generated_Source\PSoC5/PWM_X.c **** * Version 3.30
   4:Generated_Source\PSoC5/PWM_X.c **** *
   5:Generated_Source\PSoC5/PWM_X.c **** * Description:
   6:Generated_Source\PSoC5/PWM_X.c **** *  The PWM User Module consist of an 8 or 16-bit counter with two 8 or 16-bit
   7:Generated_Source\PSoC5/PWM_X.c **** *  comparitors. Each instance of this user module is capable of generating
   8:Generated_Source\PSoC5/PWM_X.c **** *  two PWM outputs with the same period. The pulse width is selectable between
   9:Generated_Source\PSoC5/PWM_X.c **** *  1 and 255/65535. The period is selectable between 2 and 255/65536 clocks.
  10:Generated_Source\PSoC5/PWM_X.c **** *  The compare value output may be configured to be active when the present
  11:Generated_Source\PSoC5/PWM_X.c **** *  counter is less than or less than/equal to the compare value.
  12:Generated_Source\PSoC5/PWM_X.c **** *  A terminal count output is also provided. It generates a pulse one clock
  13:Generated_Source\PSoC5/PWM_X.c **** *  width wide when the counter is equal to zero.
  14:Generated_Source\PSoC5/PWM_X.c **** *
  15:Generated_Source\PSoC5/PWM_X.c **** * Note:
  16:Generated_Source\PSoC5/PWM_X.c **** *
  17:Generated_Source\PSoC5/PWM_X.c **** *******************************************************************************
  18:Generated_Source\PSoC5/PWM_X.c **** * Copyright 2008-2014, Cypress Semiconductor Corporation.  All rights reserved.
  19:Generated_Source\PSoC5/PWM_X.c **** * You may use this file only in accordance with the license, terms, conditions,
  20:Generated_Source\PSoC5/PWM_X.c **** * disclaimers, and limitations in the end user license agreement accompanying
  21:Generated_Source\PSoC5/PWM_X.c **** * the software package with which this file was provided.
  22:Generated_Source\PSoC5/PWM_X.c **** ********************************************************************************/
  23:Generated_Source\PSoC5/PWM_X.c **** 
  24:Generated_Source\PSoC5/PWM_X.c **** #include "PWM_X.h"
  25:Generated_Source\PSoC5/PWM_X.c **** 
  26:Generated_Source\PSoC5/PWM_X.c **** /* Error message for removed <resource> through optimization */
  27:Generated_Source\PSoC5/PWM_X.c **** #ifdef PWM_X_PWMUDB_genblk1_ctrlreg__REMOVED
  28:Generated_Source\PSoC5/PWM_X.c ****     #error PWM_v3_30 detected with a constant 0 for the enable or \
  29:Generated_Source\PSoC5/PWM_X.c ****          constant 1 for reset. This will prevent the component from operating.
  30:Generated_Source\PSoC5/PWM_X.c **** #endif /* PWM_X_PWMUDB_genblk1_ctrlreg__REMOVED */
ARM GAS  C:\Users\emman\AppData\Local\Temp\ccl8RLpE.s 			page 2


  31:Generated_Source\PSoC5/PWM_X.c **** 
  32:Generated_Source\PSoC5/PWM_X.c **** uint8 PWM_X_initVar = 0u;
  33:Generated_Source\PSoC5/PWM_X.c **** 
  34:Generated_Source\PSoC5/PWM_X.c **** 
  35:Generated_Source\PSoC5/PWM_X.c **** /*******************************************************************************
  36:Generated_Source\PSoC5/PWM_X.c **** * Function Name: PWM_X_Start
  37:Generated_Source\PSoC5/PWM_X.c **** ********************************************************************************
  38:Generated_Source\PSoC5/PWM_X.c **** *
  39:Generated_Source\PSoC5/PWM_X.c **** * Summary:
  40:Generated_Source\PSoC5/PWM_X.c **** *  The start function initializes the pwm with the default values, the
  41:Generated_Source\PSoC5/PWM_X.c **** *  enables the counter to begin counting.  It does not enable interrupts,
  42:Generated_Source\PSoC5/PWM_X.c **** *  the EnableInt command should be called if interrupt generation is required.
  43:Generated_Source\PSoC5/PWM_X.c **** *
  44:Generated_Source\PSoC5/PWM_X.c **** * Parameters:
  45:Generated_Source\PSoC5/PWM_X.c **** *  None
  46:Generated_Source\PSoC5/PWM_X.c **** *
  47:Generated_Source\PSoC5/PWM_X.c **** * Return:
  48:Generated_Source\PSoC5/PWM_X.c **** *  None
  49:Generated_Source\PSoC5/PWM_X.c **** *
  50:Generated_Source\PSoC5/PWM_X.c **** * Global variables:
  51:Generated_Source\PSoC5/PWM_X.c **** *  PWM_X_initVar: Is modified when this function is called for the
  52:Generated_Source\PSoC5/PWM_X.c **** *   first time. Is used to ensure that initialization happens only once.
  53:Generated_Source\PSoC5/PWM_X.c **** *
  54:Generated_Source\PSoC5/PWM_X.c **** *******************************************************************************/
  55:Generated_Source\PSoC5/PWM_X.c **** void PWM_X_Start(void) 
  56:Generated_Source\PSoC5/PWM_X.c **** {
  57:Generated_Source\PSoC5/PWM_X.c ****     /* If not Initialized then initialize all required hardware and software */
  58:Generated_Source\PSoC5/PWM_X.c ****     if(PWM_X_initVar == 0u)
  59:Generated_Source\PSoC5/PWM_X.c ****     {
  60:Generated_Source\PSoC5/PWM_X.c ****         PWM_X_Init();
  61:Generated_Source\PSoC5/PWM_X.c ****         PWM_X_initVar = 1u;
  62:Generated_Source\PSoC5/PWM_X.c ****     }
  63:Generated_Source\PSoC5/PWM_X.c ****     PWM_X_Enable();
  64:Generated_Source\PSoC5/PWM_X.c **** 
  65:Generated_Source\PSoC5/PWM_X.c **** }
  66:Generated_Source\PSoC5/PWM_X.c **** 
  67:Generated_Source\PSoC5/PWM_X.c **** 
  68:Generated_Source\PSoC5/PWM_X.c **** /*******************************************************************************
  69:Generated_Source\PSoC5/PWM_X.c **** * Function Name: PWM_X_Init
  70:Generated_Source\PSoC5/PWM_X.c **** ********************************************************************************
  71:Generated_Source\PSoC5/PWM_X.c **** *
  72:Generated_Source\PSoC5/PWM_X.c **** * Summary:
  73:Generated_Source\PSoC5/PWM_X.c **** *  Initialize component's parameters to the parameters set by user in the
  74:Generated_Source\PSoC5/PWM_X.c **** *  customizer of the component placed onto schematic. Usually called in
  75:Generated_Source\PSoC5/PWM_X.c **** *  PWM_X_Start().
  76:Generated_Source\PSoC5/PWM_X.c **** *
  77:Generated_Source\PSoC5/PWM_X.c **** * Parameters:
  78:Generated_Source\PSoC5/PWM_X.c **** *  None
  79:Generated_Source\PSoC5/PWM_X.c **** *
  80:Generated_Source\PSoC5/PWM_X.c **** * Return:
  81:Generated_Source\PSoC5/PWM_X.c **** *  None
  82:Generated_Source\PSoC5/PWM_X.c **** *
  83:Generated_Source\PSoC5/PWM_X.c **** *******************************************************************************/
  84:Generated_Source\PSoC5/PWM_X.c **** void PWM_X_Init(void) 
  85:Generated_Source\PSoC5/PWM_X.c **** {
  86:Generated_Source\PSoC5/PWM_X.c ****     #if (PWM_X_UsingFixedFunction || PWM_X_UseControl)
  87:Generated_Source\PSoC5/PWM_X.c ****         uint8 ctrl;
ARM GAS  C:\Users\emman\AppData\Local\Temp\ccl8RLpE.s 			page 3


  88:Generated_Source\PSoC5/PWM_X.c ****     #endif /* (PWM_X_UsingFixedFunction || PWM_X_UseControl) */
  89:Generated_Source\PSoC5/PWM_X.c **** 
  90:Generated_Source\PSoC5/PWM_X.c ****     #if(!PWM_X_UsingFixedFunction)
  91:Generated_Source\PSoC5/PWM_X.c ****         #if(PWM_X_UseStatus)
  92:Generated_Source\PSoC5/PWM_X.c ****             /* Interrupt State Backup for Critical Region*/
  93:Generated_Source\PSoC5/PWM_X.c ****             uint8 PWM_X_interruptState;
  94:Generated_Source\PSoC5/PWM_X.c ****         #endif /* (PWM_X_UseStatus) */
  95:Generated_Source\PSoC5/PWM_X.c ****     #endif /* (!PWM_X_UsingFixedFunction) */
  96:Generated_Source\PSoC5/PWM_X.c **** 
  97:Generated_Source\PSoC5/PWM_X.c ****     #if (PWM_X_UsingFixedFunction)
  98:Generated_Source\PSoC5/PWM_X.c ****         /* You are allowed to write the compare value (FF only) */
  99:Generated_Source\PSoC5/PWM_X.c ****         PWM_X_CONTROL |= PWM_X_CFG0_MODE;
 100:Generated_Source\PSoC5/PWM_X.c ****         #if (PWM_X_DeadBand2_4)
 101:Generated_Source\PSoC5/PWM_X.c ****             PWM_X_CONTROL |= PWM_X_CFG0_DB;
 102:Generated_Source\PSoC5/PWM_X.c ****         #endif /* (PWM_X_DeadBand2_4) */
 103:Generated_Source\PSoC5/PWM_X.c **** 
 104:Generated_Source\PSoC5/PWM_X.c ****         ctrl = PWM_X_CONTROL3 & ((uint8 )(~PWM_X_CTRL_CMPMODE1_MASK));
 105:Generated_Source\PSoC5/PWM_X.c ****         PWM_X_CONTROL3 = ctrl | PWM_X_DEFAULT_COMPARE1_MODE;
 106:Generated_Source\PSoC5/PWM_X.c **** 
 107:Generated_Source\PSoC5/PWM_X.c ****          /* Clear and Set SYNCTC and SYNCCMP bits of RT1 register */
 108:Generated_Source\PSoC5/PWM_X.c ****         PWM_X_RT1 &= ((uint8)(~PWM_X_RT1_MASK));
 109:Generated_Source\PSoC5/PWM_X.c ****         PWM_X_RT1 |= PWM_X_SYNC;
 110:Generated_Source\PSoC5/PWM_X.c **** 
 111:Generated_Source\PSoC5/PWM_X.c ****         /*Enable DSI Sync all all inputs of the PWM*/
 112:Generated_Source\PSoC5/PWM_X.c ****         PWM_X_RT1 &= ((uint8)(~PWM_X_SYNCDSI_MASK));
 113:Generated_Source\PSoC5/PWM_X.c ****         PWM_X_RT1 |= PWM_X_SYNCDSI_EN;
 114:Generated_Source\PSoC5/PWM_X.c **** 
 115:Generated_Source\PSoC5/PWM_X.c ****     #elif (PWM_X_UseControl)
 116:Generated_Source\PSoC5/PWM_X.c ****         /* Set the default compare mode defined in the parameter */
 117:Generated_Source\PSoC5/PWM_X.c ****         ctrl = PWM_X_CONTROL & ((uint8)(~PWM_X_CTRL_CMPMODE2_MASK)) &
 118:Generated_Source\PSoC5/PWM_X.c ****                 ((uint8)(~PWM_X_CTRL_CMPMODE1_MASK));
 119:Generated_Source\PSoC5/PWM_X.c ****         PWM_X_CONTROL = ctrl | PWM_X_DEFAULT_COMPARE2_MODE |
 120:Generated_Source\PSoC5/PWM_X.c ****                                    PWM_X_DEFAULT_COMPARE1_MODE;
 121:Generated_Source\PSoC5/PWM_X.c ****     #endif /* (PWM_X_UsingFixedFunction) */
 122:Generated_Source\PSoC5/PWM_X.c **** 
 123:Generated_Source\PSoC5/PWM_X.c ****     #if (!PWM_X_UsingFixedFunction)
 124:Generated_Source\PSoC5/PWM_X.c ****         #if (PWM_X_Resolution == 8)
 125:Generated_Source\PSoC5/PWM_X.c ****             /* Set FIFO 0 to 1 byte register for period*/
 126:Generated_Source\PSoC5/PWM_X.c ****             PWM_X_AUX_CONTROLDP0 |= (PWM_X_AUX_CTRL_FIFO0_CLR);
 127:Generated_Source\PSoC5/PWM_X.c ****         #else /* (PWM_X_Resolution == 16)*/
 128:Generated_Source\PSoC5/PWM_X.c ****             /* Set FIFO 0 to 1 byte register for period */
 129:Generated_Source\PSoC5/PWM_X.c ****             PWM_X_AUX_CONTROLDP0 |= (PWM_X_AUX_CTRL_FIFO0_CLR);
 130:Generated_Source\PSoC5/PWM_X.c ****             PWM_X_AUX_CONTROLDP1 |= (PWM_X_AUX_CTRL_FIFO0_CLR);
 131:Generated_Source\PSoC5/PWM_X.c ****         #endif /* (PWM_X_Resolution == 8) */
 132:Generated_Source\PSoC5/PWM_X.c **** 
 133:Generated_Source\PSoC5/PWM_X.c ****         PWM_X_WriteCounter(PWM_X_INIT_PERIOD_VALUE);
 134:Generated_Source\PSoC5/PWM_X.c ****     #endif /* (!PWM_X_UsingFixedFunction) */
 135:Generated_Source\PSoC5/PWM_X.c **** 
 136:Generated_Source\PSoC5/PWM_X.c ****     PWM_X_WritePeriod(PWM_X_INIT_PERIOD_VALUE);
 137:Generated_Source\PSoC5/PWM_X.c **** 
 138:Generated_Source\PSoC5/PWM_X.c ****         #if (PWM_X_UseOneCompareMode)
 139:Generated_Source\PSoC5/PWM_X.c ****             PWM_X_WriteCompare(PWM_X_INIT_COMPARE_VALUE1);
 140:Generated_Source\PSoC5/PWM_X.c ****         #else
 141:Generated_Source\PSoC5/PWM_X.c ****             PWM_X_WriteCompare1(PWM_X_INIT_COMPARE_VALUE1);
 142:Generated_Source\PSoC5/PWM_X.c ****             PWM_X_WriteCompare2(PWM_X_INIT_COMPARE_VALUE2);
 143:Generated_Source\PSoC5/PWM_X.c ****         #endif /* (PWM_X_UseOneCompareMode) */
 144:Generated_Source\PSoC5/PWM_X.c **** 
ARM GAS  C:\Users\emman\AppData\Local\Temp\ccl8RLpE.s 			page 4


 145:Generated_Source\PSoC5/PWM_X.c ****         #if (PWM_X_KillModeMinTime)
 146:Generated_Source\PSoC5/PWM_X.c ****             PWM_X_WriteKillTime(PWM_X_MinimumKillTime);
 147:Generated_Source\PSoC5/PWM_X.c ****         #endif /* (PWM_X_KillModeMinTime) */
 148:Generated_Source\PSoC5/PWM_X.c **** 
 149:Generated_Source\PSoC5/PWM_X.c ****         #if (PWM_X_DeadBandUsed)
 150:Generated_Source\PSoC5/PWM_X.c ****             PWM_X_WriteDeadTime(PWM_X_INIT_DEAD_TIME);
 151:Generated_Source\PSoC5/PWM_X.c ****         #endif /* (PWM_X_DeadBandUsed) */
 152:Generated_Source\PSoC5/PWM_X.c **** 
 153:Generated_Source\PSoC5/PWM_X.c ****     #if (PWM_X_UseStatus || PWM_X_UsingFixedFunction)
 154:Generated_Source\PSoC5/PWM_X.c ****         PWM_X_SetInterruptMode(PWM_X_INIT_INTERRUPTS_MODE);
 155:Generated_Source\PSoC5/PWM_X.c ****     #endif /* (PWM_X_UseStatus || PWM_X_UsingFixedFunction) */
 156:Generated_Source\PSoC5/PWM_X.c **** 
 157:Generated_Source\PSoC5/PWM_X.c ****     #if (PWM_X_UsingFixedFunction)
 158:Generated_Source\PSoC5/PWM_X.c ****         /* Globally Enable the Fixed Function Block chosen */
 159:Generated_Source\PSoC5/PWM_X.c ****         PWM_X_GLOBAL_ENABLE |= PWM_X_BLOCK_EN_MASK;
 160:Generated_Source\PSoC5/PWM_X.c ****         /* Set the Interrupt source to come from the status register */
 161:Generated_Source\PSoC5/PWM_X.c ****         PWM_X_CONTROL2 |= PWM_X_CTRL2_IRQ_SEL;
 162:Generated_Source\PSoC5/PWM_X.c ****     #else
 163:Generated_Source\PSoC5/PWM_X.c ****         #if(PWM_X_UseStatus)
 164:Generated_Source\PSoC5/PWM_X.c **** 
 165:Generated_Source\PSoC5/PWM_X.c ****             /* CyEnterCriticalRegion and CyExitCriticalRegion are used to mark following region cri
 166:Generated_Source\PSoC5/PWM_X.c ****             /* Enter Critical Region*/
 167:Generated_Source\PSoC5/PWM_X.c ****             PWM_X_interruptState = CyEnterCriticalSection();
 168:Generated_Source\PSoC5/PWM_X.c ****             /* Use the interrupt output of the status register for IRQ output */
 169:Generated_Source\PSoC5/PWM_X.c ****             PWM_X_STATUS_AUX_CTRL |= PWM_X_STATUS_ACTL_INT_EN_MASK;
 170:Generated_Source\PSoC5/PWM_X.c **** 
 171:Generated_Source\PSoC5/PWM_X.c ****              /* Exit Critical Region*/
 172:Generated_Source\PSoC5/PWM_X.c ****             CyExitCriticalSection(PWM_X_interruptState);
 173:Generated_Source\PSoC5/PWM_X.c **** 
 174:Generated_Source\PSoC5/PWM_X.c ****             /* Clear the FIFO to enable the PWM_X_STATUS_FIFOFULL
 175:Generated_Source\PSoC5/PWM_X.c ****                    bit to be set on FIFO full. */
 176:Generated_Source\PSoC5/PWM_X.c ****             PWM_X_ClearFIFO();
 177:Generated_Source\PSoC5/PWM_X.c ****         #endif /* (PWM_X_UseStatus) */
 178:Generated_Source\PSoC5/PWM_X.c ****     #endif /* (PWM_X_UsingFixedFunction) */
 179:Generated_Source\PSoC5/PWM_X.c **** }
 180:Generated_Source\PSoC5/PWM_X.c **** 
 181:Generated_Source\PSoC5/PWM_X.c **** 
 182:Generated_Source\PSoC5/PWM_X.c **** /*******************************************************************************
 183:Generated_Source\PSoC5/PWM_X.c **** * Function Name: PWM_X_Enable
 184:Generated_Source\PSoC5/PWM_X.c **** ********************************************************************************
 185:Generated_Source\PSoC5/PWM_X.c **** *
 186:Generated_Source\PSoC5/PWM_X.c **** * Summary:
 187:Generated_Source\PSoC5/PWM_X.c **** *  Enables the PWM block operation
 188:Generated_Source\PSoC5/PWM_X.c **** *
 189:Generated_Source\PSoC5/PWM_X.c **** * Parameters:
 190:Generated_Source\PSoC5/PWM_X.c **** *  None
 191:Generated_Source\PSoC5/PWM_X.c **** *
 192:Generated_Source\PSoC5/PWM_X.c **** * Return:
 193:Generated_Source\PSoC5/PWM_X.c **** *  None
 194:Generated_Source\PSoC5/PWM_X.c **** *
 195:Generated_Source\PSoC5/PWM_X.c **** * Side Effects:
 196:Generated_Source\PSoC5/PWM_X.c **** *  This works only if software enable mode is chosen
 197:Generated_Source\PSoC5/PWM_X.c **** *
 198:Generated_Source\PSoC5/PWM_X.c **** *******************************************************************************/
 199:Generated_Source\PSoC5/PWM_X.c **** void PWM_X_Enable(void) 
 200:Generated_Source\PSoC5/PWM_X.c **** {
  28              		.loc 1 200 0
ARM GAS  C:\Users\emman\AppData\Local\Temp\ccl8RLpE.s 			page 5


  29              		.cfi_startproc
  30              		@ args = 0, pretend = 0, frame = 0
  31              		@ frame_needed = 0, uses_anonymous_args = 0
  32              		@ link register save eliminated.
 201:Generated_Source\PSoC5/PWM_X.c ****     /* Globally Enable the Fixed Function Block chosen */
 202:Generated_Source\PSoC5/PWM_X.c ****     #if (PWM_X_UsingFixedFunction)
 203:Generated_Source\PSoC5/PWM_X.c ****         PWM_X_GLOBAL_ENABLE |= PWM_X_BLOCK_EN_MASK;
 204:Generated_Source\PSoC5/PWM_X.c ****         PWM_X_GLOBAL_STBY_ENABLE |= PWM_X_BLOCK_STBY_EN_MASK;
 205:Generated_Source\PSoC5/PWM_X.c ****     #endif /* (PWM_X_UsingFixedFunction) */
 206:Generated_Source\PSoC5/PWM_X.c **** 
 207:Generated_Source\PSoC5/PWM_X.c ****     /* Enable the PWM from the control register  */
 208:Generated_Source\PSoC5/PWM_X.c ****     #if (PWM_X_UseControl || PWM_X_UsingFixedFunction)
 209:Generated_Source\PSoC5/PWM_X.c ****         PWM_X_CONTROL |= PWM_X_CTRL_ENABLE;
  33              		.loc 1 209 0
  34 0000 024A     		ldr	r2, .L2
  35 0002 1378     		ldrb	r3, [r2]	@ zero_extendqisi2
  36 0004 43F08003 		orr	r3, r3, #128
  37 0008 1370     		strb	r3, [r2]
  38 000a 7047     		bx	lr
  39              	.L3:
  40              		.align	2
  41              	.L2:
  42 000c 7B640040 		.word	1073767547
  43              		.cfi_endproc
  44              	.LFE2:
  45              		.size	PWM_X_Enable, .-PWM_X_Enable
  46              		.section	.text.PWM_X_Stop,"ax",%progbits
  47              		.align	1
  48              		.global	PWM_X_Stop
  49              		.thumb
  50              		.thumb_func
  51              		.type	PWM_X_Stop, %function
  52              	PWM_X_Stop:
  53              	.LFB3:
 210:Generated_Source\PSoC5/PWM_X.c ****     #endif /* (PWM_X_UseControl || PWM_X_UsingFixedFunction) */
 211:Generated_Source\PSoC5/PWM_X.c **** }
 212:Generated_Source\PSoC5/PWM_X.c **** 
 213:Generated_Source\PSoC5/PWM_X.c **** 
 214:Generated_Source\PSoC5/PWM_X.c **** /*******************************************************************************
 215:Generated_Source\PSoC5/PWM_X.c **** * Function Name: PWM_X_Stop
 216:Generated_Source\PSoC5/PWM_X.c **** ********************************************************************************
 217:Generated_Source\PSoC5/PWM_X.c **** *
 218:Generated_Source\PSoC5/PWM_X.c **** * Summary:
 219:Generated_Source\PSoC5/PWM_X.c **** *  The stop function halts the PWM, but does not change any modes or disable
 220:Generated_Source\PSoC5/PWM_X.c **** *  interrupts.
 221:Generated_Source\PSoC5/PWM_X.c **** *
 222:Generated_Source\PSoC5/PWM_X.c **** * Parameters:
 223:Generated_Source\PSoC5/PWM_X.c **** *  None
 224:Generated_Source\PSoC5/PWM_X.c **** *
 225:Generated_Source\PSoC5/PWM_X.c **** * Return:
 226:Generated_Source\PSoC5/PWM_X.c **** *  None
 227:Generated_Source\PSoC5/PWM_X.c **** *
 228:Generated_Source\PSoC5/PWM_X.c **** * Side Effects:
 229:Generated_Source\PSoC5/PWM_X.c **** *  If the Enable mode is set to Hardware only then this function
 230:Generated_Source\PSoC5/PWM_X.c **** *  has no effect on the operation of the PWM
 231:Generated_Source\PSoC5/PWM_X.c **** *
 232:Generated_Source\PSoC5/PWM_X.c **** *******************************************************************************/
ARM GAS  C:\Users\emman\AppData\Local\Temp\ccl8RLpE.s 			page 6


 233:Generated_Source\PSoC5/PWM_X.c **** void PWM_X_Stop(void) 
 234:Generated_Source\PSoC5/PWM_X.c **** {
  54              		.loc 1 234 0
  55              		.cfi_startproc
  56              		@ args = 0, pretend = 0, frame = 0
  57              		@ frame_needed = 0, uses_anonymous_args = 0
  58              		@ link register save eliminated.
 235:Generated_Source\PSoC5/PWM_X.c ****     #if (PWM_X_UseControl || PWM_X_UsingFixedFunction)
 236:Generated_Source\PSoC5/PWM_X.c ****         PWM_X_CONTROL &= ((uint8)(~PWM_X_CTRL_ENABLE));
  59              		.loc 1 236 0
  60 0000 024A     		ldr	r2, .L5
  61 0002 1378     		ldrb	r3, [r2]	@ zero_extendqisi2
  62 0004 03F07F03 		and	r3, r3, #127
  63 0008 1370     		strb	r3, [r2]
  64 000a 7047     		bx	lr
  65              	.L6:
  66              		.align	2
  67              	.L5:
  68 000c 7B640040 		.word	1073767547
  69              		.cfi_endproc
  70              	.LFE3:
  71              		.size	PWM_X_Stop, .-PWM_X_Stop
  72              		.section	.text.PWM_X_WriteCounter,"ax",%progbits
  73              		.align	1
  74              		.global	PWM_X_WriteCounter
  75              		.thumb
  76              		.thumb_func
  77              		.type	PWM_X_WriteCounter, %function
  78              	PWM_X_WriteCounter:
  79              	.LFB4:
 237:Generated_Source\PSoC5/PWM_X.c ****     #endif /* (PWM_X_UseControl || PWM_X_UsingFixedFunction) */
 238:Generated_Source\PSoC5/PWM_X.c **** 
 239:Generated_Source\PSoC5/PWM_X.c ****     /* Globally disable the Fixed Function Block chosen */
 240:Generated_Source\PSoC5/PWM_X.c ****     #if (PWM_X_UsingFixedFunction)
 241:Generated_Source\PSoC5/PWM_X.c ****         PWM_X_GLOBAL_ENABLE &= ((uint8)(~PWM_X_BLOCK_EN_MASK));
 242:Generated_Source\PSoC5/PWM_X.c ****         PWM_X_GLOBAL_STBY_ENABLE &= ((uint8)(~PWM_X_BLOCK_STBY_EN_MASK));
 243:Generated_Source\PSoC5/PWM_X.c ****     #endif /* (PWM_X_UsingFixedFunction) */
 244:Generated_Source\PSoC5/PWM_X.c **** }
 245:Generated_Source\PSoC5/PWM_X.c **** 
 246:Generated_Source\PSoC5/PWM_X.c **** #if (PWM_X_UseOneCompareMode)
 247:Generated_Source\PSoC5/PWM_X.c ****     #if (PWM_X_CompareMode1SW)
 248:Generated_Source\PSoC5/PWM_X.c **** 
 249:Generated_Source\PSoC5/PWM_X.c **** 
 250:Generated_Source\PSoC5/PWM_X.c ****         /*******************************************************************************
 251:Generated_Source\PSoC5/PWM_X.c ****         * Function Name: PWM_X_SetCompareMode
 252:Generated_Source\PSoC5/PWM_X.c ****         ********************************************************************************
 253:Generated_Source\PSoC5/PWM_X.c ****         *
 254:Generated_Source\PSoC5/PWM_X.c ****         * Summary:
 255:Generated_Source\PSoC5/PWM_X.c ****         *  This function writes the Compare Mode for the pwm output when in Dither mode,
 256:Generated_Source\PSoC5/PWM_X.c ****         *  Center Align Mode or One Output Mode.
 257:Generated_Source\PSoC5/PWM_X.c ****         *
 258:Generated_Source\PSoC5/PWM_X.c ****         * Parameters:
 259:Generated_Source\PSoC5/PWM_X.c ****         *  comparemode:  The new compare mode for the PWM output. Use the compare types
 260:Generated_Source\PSoC5/PWM_X.c ****         *                defined in the H file as input arguments.
 261:Generated_Source\PSoC5/PWM_X.c ****         *
 262:Generated_Source\PSoC5/PWM_X.c ****         * Return:
 263:Generated_Source\PSoC5/PWM_X.c ****         *  None
ARM GAS  C:\Users\emman\AppData\Local\Temp\ccl8RLpE.s 			page 7


 264:Generated_Source\PSoC5/PWM_X.c ****         *
 265:Generated_Source\PSoC5/PWM_X.c ****         *******************************************************************************/
 266:Generated_Source\PSoC5/PWM_X.c ****         void PWM_X_SetCompareMode(uint8 comparemode) 
 267:Generated_Source\PSoC5/PWM_X.c ****         {
 268:Generated_Source\PSoC5/PWM_X.c ****             #if(PWM_X_UsingFixedFunction)
 269:Generated_Source\PSoC5/PWM_X.c **** 
 270:Generated_Source\PSoC5/PWM_X.c ****                 #if(0 != PWM_X_CTRL_CMPMODE1_SHIFT)
 271:Generated_Source\PSoC5/PWM_X.c ****                     uint8 comparemodemasked = ((uint8)((uint8)comparemode << PWM_X_CTRL_CMPMODE1_SH
 272:Generated_Source\PSoC5/PWM_X.c ****                 #else
 273:Generated_Source\PSoC5/PWM_X.c ****                     uint8 comparemodemasked = comparemode;
 274:Generated_Source\PSoC5/PWM_X.c ****                 #endif /* (0 != PWM_X_CTRL_CMPMODE1_SHIFT) */
 275:Generated_Source\PSoC5/PWM_X.c **** 
 276:Generated_Source\PSoC5/PWM_X.c ****                 PWM_X_CONTROL3 &= ((uint8)(~PWM_X_CTRL_CMPMODE1_MASK)); /*Clear Existing Data */
 277:Generated_Source\PSoC5/PWM_X.c ****                 PWM_X_CONTROL3 |= comparemodemasked;
 278:Generated_Source\PSoC5/PWM_X.c **** 
 279:Generated_Source\PSoC5/PWM_X.c ****             #elif (PWM_X_UseControl)
 280:Generated_Source\PSoC5/PWM_X.c **** 
 281:Generated_Source\PSoC5/PWM_X.c ****                 #if(0 != PWM_X_CTRL_CMPMODE1_SHIFT)
 282:Generated_Source\PSoC5/PWM_X.c ****                     uint8 comparemode1masked = ((uint8)((uint8)comparemode << PWM_X_CTRL_CMPMODE1_S
 283:Generated_Source\PSoC5/PWM_X.c ****                                                 PWM_X_CTRL_CMPMODE1_MASK;
 284:Generated_Source\PSoC5/PWM_X.c ****                 #else
 285:Generated_Source\PSoC5/PWM_X.c ****                     uint8 comparemode1masked = comparemode & PWM_X_CTRL_CMPMODE1_MASK;
 286:Generated_Source\PSoC5/PWM_X.c ****                 #endif /* (0 != PWM_X_CTRL_CMPMODE1_SHIFT) */
 287:Generated_Source\PSoC5/PWM_X.c **** 
 288:Generated_Source\PSoC5/PWM_X.c ****                 #if(0 != PWM_X_CTRL_CMPMODE2_SHIFT)
 289:Generated_Source\PSoC5/PWM_X.c ****                     uint8 comparemode2masked = ((uint8)((uint8)comparemode << PWM_X_CTRL_CMPMODE2_S
 290:Generated_Source\PSoC5/PWM_X.c ****                                                PWM_X_CTRL_CMPMODE2_MASK;
 291:Generated_Source\PSoC5/PWM_X.c ****                 #else
 292:Generated_Source\PSoC5/PWM_X.c ****                     uint8 comparemode2masked = comparemode & PWM_X_CTRL_CMPMODE2_MASK;
 293:Generated_Source\PSoC5/PWM_X.c ****                 #endif /* (0 != PWM_X_CTRL_CMPMODE2_SHIFT) */
 294:Generated_Source\PSoC5/PWM_X.c **** 
 295:Generated_Source\PSoC5/PWM_X.c ****                 /*Clear existing mode */
 296:Generated_Source\PSoC5/PWM_X.c ****                 PWM_X_CONTROL &= ((uint8)(~(PWM_X_CTRL_CMPMODE1_MASK |
 297:Generated_Source\PSoC5/PWM_X.c ****                                             PWM_X_CTRL_CMPMODE2_MASK)));
 298:Generated_Source\PSoC5/PWM_X.c ****                 PWM_X_CONTROL |= (comparemode1masked | comparemode2masked);
 299:Generated_Source\PSoC5/PWM_X.c **** 
 300:Generated_Source\PSoC5/PWM_X.c ****             #else
 301:Generated_Source\PSoC5/PWM_X.c ****                 uint8 temp = comparemode;
 302:Generated_Source\PSoC5/PWM_X.c ****             #endif /* (PWM_X_UsingFixedFunction) */
 303:Generated_Source\PSoC5/PWM_X.c ****         }
 304:Generated_Source\PSoC5/PWM_X.c ****     #endif /* PWM_X_CompareMode1SW */
 305:Generated_Source\PSoC5/PWM_X.c **** 
 306:Generated_Source\PSoC5/PWM_X.c **** #else /* UseOneCompareMode */
 307:Generated_Source\PSoC5/PWM_X.c **** 
 308:Generated_Source\PSoC5/PWM_X.c ****     #if (PWM_X_CompareMode1SW)
 309:Generated_Source\PSoC5/PWM_X.c **** 
 310:Generated_Source\PSoC5/PWM_X.c **** 
 311:Generated_Source\PSoC5/PWM_X.c ****         /*******************************************************************************
 312:Generated_Source\PSoC5/PWM_X.c ****         * Function Name: PWM_X_SetCompareMode1
 313:Generated_Source\PSoC5/PWM_X.c ****         ********************************************************************************
 314:Generated_Source\PSoC5/PWM_X.c ****         *
 315:Generated_Source\PSoC5/PWM_X.c ****         * Summary:
 316:Generated_Source\PSoC5/PWM_X.c ****         *  This function writes the Compare Mode for the pwm or pwm1 output
 317:Generated_Source\PSoC5/PWM_X.c ****         *
 318:Generated_Source\PSoC5/PWM_X.c ****         * Parameters:
 319:Generated_Source\PSoC5/PWM_X.c ****         *  comparemode:  The new compare mode for the PWM output. Use the compare types
 320:Generated_Source\PSoC5/PWM_X.c ****         *                defined in the H file as input arguments.
ARM GAS  C:\Users\emman\AppData\Local\Temp\ccl8RLpE.s 			page 8


 321:Generated_Source\PSoC5/PWM_X.c ****         *
 322:Generated_Source\PSoC5/PWM_X.c ****         * Return:
 323:Generated_Source\PSoC5/PWM_X.c ****         *  None
 324:Generated_Source\PSoC5/PWM_X.c ****         *
 325:Generated_Source\PSoC5/PWM_X.c ****         *******************************************************************************/
 326:Generated_Source\PSoC5/PWM_X.c ****         void PWM_X_SetCompareMode1(uint8 comparemode) 
 327:Generated_Source\PSoC5/PWM_X.c ****         {
 328:Generated_Source\PSoC5/PWM_X.c ****             #if(0 != PWM_X_CTRL_CMPMODE1_SHIFT)
 329:Generated_Source\PSoC5/PWM_X.c ****                 uint8 comparemodemasked = ((uint8)((uint8)comparemode << PWM_X_CTRL_CMPMODE1_SHIFT)
 330:Generated_Source\PSoC5/PWM_X.c ****                                            PWM_X_CTRL_CMPMODE1_MASK;
 331:Generated_Source\PSoC5/PWM_X.c ****             #else
 332:Generated_Source\PSoC5/PWM_X.c ****                 uint8 comparemodemasked = comparemode & PWM_X_CTRL_CMPMODE1_MASK;
 333:Generated_Source\PSoC5/PWM_X.c ****             #endif /* (0 != PWM_X_CTRL_CMPMODE1_SHIFT) */
 334:Generated_Source\PSoC5/PWM_X.c **** 
 335:Generated_Source\PSoC5/PWM_X.c ****             #if (PWM_X_UseControl)
 336:Generated_Source\PSoC5/PWM_X.c ****                 PWM_X_CONTROL &= ((uint8)(~PWM_X_CTRL_CMPMODE1_MASK)); /*Clear existing mode */
 337:Generated_Source\PSoC5/PWM_X.c ****                 PWM_X_CONTROL |= comparemodemasked;
 338:Generated_Source\PSoC5/PWM_X.c ****             #endif /* (PWM_X_UseControl) */
 339:Generated_Source\PSoC5/PWM_X.c ****         }
 340:Generated_Source\PSoC5/PWM_X.c ****     #endif /* PWM_X_CompareMode1SW */
 341:Generated_Source\PSoC5/PWM_X.c **** 
 342:Generated_Source\PSoC5/PWM_X.c **** #if (PWM_X_CompareMode2SW)
 343:Generated_Source\PSoC5/PWM_X.c **** 
 344:Generated_Source\PSoC5/PWM_X.c **** 
 345:Generated_Source\PSoC5/PWM_X.c ****     /*******************************************************************************
 346:Generated_Source\PSoC5/PWM_X.c ****     * Function Name: PWM_X_SetCompareMode2
 347:Generated_Source\PSoC5/PWM_X.c ****     ********************************************************************************
 348:Generated_Source\PSoC5/PWM_X.c ****     *
 349:Generated_Source\PSoC5/PWM_X.c ****     * Summary:
 350:Generated_Source\PSoC5/PWM_X.c ****     *  This function writes the Compare Mode for the pwm or pwm2 output
 351:Generated_Source\PSoC5/PWM_X.c ****     *
 352:Generated_Source\PSoC5/PWM_X.c ****     * Parameters:
 353:Generated_Source\PSoC5/PWM_X.c ****     *  comparemode:  The new compare mode for the PWM output. Use the compare types
 354:Generated_Source\PSoC5/PWM_X.c ****     *                defined in the H file as input arguments.
 355:Generated_Source\PSoC5/PWM_X.c ****     *
 356:Generated_Source\PSoC5/PWM_X.c ****     * Return:
 357:Generated_Source\PSoC5/PWM_X.c ****     *  None
 358:Generated_Source\PSoC5/PWM_X.c ****     *
 359:Generated_Source\PSoC5/PWM_X.c ****     *******************************************************************************/
 360:Generated_Source\PSoC5/PWM_X.c ****     void PWM_X_SetCompareMode2(uint8 comparemode) 
 361:Generated_Source\PSoC5/PWM_X.c ****     {
 362:Generated_Source\PSoC5/PWM_X.c **** 
 363:Generated_Source\PSoC5/PWM_X.c ****         #if(0 != PWM_X_CTRL_CMPMODE2_SHIFT)
 364:Generated_Source\PSoC5/PWM_X.c ****             uint8 comparemodemasked = ((uint8)((uint8)comparemode << PWM_X_CTRL_CMPMODE2_SHIFT)) &
 365:Generated_Source\PSoC5/PWM_X.c ****                                                  PWM_X_CTRL_CMPMODE2_MASK;
 366:Generated_Source\PSoC5/PWM_X.c ****         #else
 367:Generated_Source\PSoC5/PWM_X.c ****             uint8 comparemodemasked = comparemode & PWM_X_CTRL_CMPMODE2_MASK;
 368:Generated_Source\PSoC5/PWM_X.c ****         #endif /* (0 != PWM_X_CTRL_CMPMODE2_SHIFT) */
 369:Generated_Source\PSoC5/PWM_X.c **** 
 370:Generated_Source\PSoC5/PWM_X.c ****         #if (PWM_X_UseControl)
 371:Generated_Source\PSoC5/PWM_X.c ****             PWM_X_CONTROL &= ((uint8)(~PWM_X_CTRL_CMPMODE2_MASK)); /*Clear existing mode */
 372:Generated_Source\PSoC5/PWM_X.c ****             PWM_X_CONTROL |= comparemodemasked;
 373:Generated_Source\PSoC5/PWM_X.c ****         #endif /* (PWM_X_UseControl) */
 374:Generated_Source\PSoC5/PWM_X.c ****     }
 375:Generated_Source\PSoC5/PWM_X.c ****     #endif /*PWM_X_CompareMode2SW */
 376:Generated_Source\PSoC5/PWM_X.c **** 
 377:Generated_Source\PSoC5/PWM_X.c **** #endif /* UseOneCompareMode */
ARM GAS  C:\Users\emman\AppData\Local\Temp\ccl8RLpE.s 			page 9


 378:Generated_Source\PSoC5/PWM_X.c **** 
 379:Generated_Source\PSoC5/PWM_X.c **** 
 380:Generated_Source\PSoC5/PWM_X.c **** #if (!PWM_X_UsingFixedFunction)
 381:Generated_Source\PSoC5/PWM_X.c **** 
 382:Generated_Source\PSoC5/PWM_X.c **** 
 383:Generated_Source\PSoC5/PWM_X.c ****     /*******************************************************************************
 384:Generated_Source\PSoC5/PWM_X.c ****     * Function Name: PWM_X_WriteCounter
 385:Generated_Source\PSoC5/PWM_X.c ****     ********************************************************************************
 386:Generated_Source\PSoC5/PWM_X.c ****     *
 387:Generated_Source\PSoC5/PWM_X.c ****     * Summary:
 388:Generated_Source\PSoC5/PWM_X.c ****     *  Writes a new counter value directly to the counter register. This will be
 389:Generated_Source\PSoC5/PWM_X.c ****     *  implemented for that currently running period and only that period. This API
 390:Generated_Source\PSoC5/PWM_X.c ****     *  is valid only for UDB implementation and not available for fixed function
 391:Generated_Source\PSoC5/PWM_X.c ****     *  PWM implementation.
 392:Generated_Source\PSoC5/PWM_X.c ****     *
 393:Generated_Source\PSoC5/PWM_X.c ****     * Parameters:
 394:Generated_Source\PSoC5/PWM_X.c ****     *  counter:  The period new period counter value.
 395:Generated_Source\PSoC5/PWM_X.c ****     *
 396:Generated_Source\PSoC5/PWM_X.c ****     * Return:
 397:Generated_Source\PSoC5/PWM_X.c ****     *  None
 398:Generated_Source\PSoC5/PWM_X.c ****     *
 399:Generated_Source\PSoC5/PWM_X.c ****     * Side Effects:
 400:Generated_Source\PSoC5/PWM_X.c ****     *  The PWM Period will be reloaded when a counter value will be a zero
 401:Generated_Source\PSoC5/PWM_X.c ****     *
 402:Generated_Source\PSoC5/PWM_X.c ****     *******************************************************************************/
 403:Generated_Source\PSoC5/PWM_X.c ****     void PWM_X_WriteCounter(uint16 counter) \
 404:Generated_Source\PSoC5/PWM_X.c ****                                        
 405:Generated_Source\PSoC5/PWM_X.c ****     {
  80              		.loc 1 405 0
  81              		.cfi_startproc
  82              		@ args = 0, pretend = 0, frame = 0
  83              		@ frame_needed = 0, uses_anonymous_args = 0
  84              		@ link register save eliminated.
  85              	.LVL0:
 406:Generated_Source\PSoC5/PWM_X.c ****         CY_SET_REG16(PWM_X_COUNTER_LSB_PTR, counter);
  86              		.loc 1 406 0
  87 0000 014B     		ldr	r3, .L8
  88 0002 1880     		strh	r0, [r3]	@ movhi
  89 0004 7047     		bx	lr
  90              	.L9:
  91 0006 00BF     		.align	2
  92              	.L8:
  93 0008 14680040 		.word	1073768468
  94              		.cfi_endproc
  95              	.LFE4:
  96              		.size	PWM_X_WriteCounter, .-PWM_X_WriteCounter
  97              		.section	.text.PWM_X_ReadCounter,"ax",%progbits
  98              		.align	1
  99              		.global	PWM_X_ReadCounter
 100              		.thumb
 101              		.thumb_func
 102              		.type	PWM_X_ReadCounter, %function
 103              	PWM_X_ReadCounter:
 104              	.LFB5:
 407:Generated_Source\PSoC5/PWM_X.c ****     }
 408:Generated_Source\PSoC5/PWM_X.c **** 
 409:Generated_Source\PSoC5/PWM_X.c **** 
ARM GAS  C:\Users\emman\AppData\Local\Temp\ccl8RLpE.s 			page 10


 410:Generated_Source\PSoC5/PWM_X.c ****     /*******************************************************************************
 411:Generated_Source\PSoC5/PWM_X.c ****     * Function Name: PWM_X_ReadCounter
 412:Generated_Source\PSoC5/PWM_X.c ****     ********************************************************************************
 413:Generated_Source\PSoC5/PWM_X.c ****     *
 414:Generated_Source\PSoC5/PWM_X.c ****     * Summary:
 415:Generated_Source\PSoC5/PWM_X.c ****     *  This function returns the current value of the counter.  It doesn't matter
 416:Generated_Source\PSoC5/PWM_X.c ****     *  if the counter is enabled or running.
 417:Generated_Source\PSoC5/PWM_X.c ****     *
 418:Generated_Source\PSoC5/PWM_X.c ****     * Parameters:
 419:Generated_Source\PSoC5/PWM_X.c ****     *  None
 420:Generated_Source\PSoC5/PWM_X.c ****     *
 421:Generated_Source\PSoC5/PWM_X.c ****     * Return:
 422:Generated_Source\PSoC5/PWM_X.c ****     *  The current value of the counter.
 423:Generated_Source\PSoC5/PWM_X.c ****     *
 424:Generated_Source\PSoC5/PWM_X.c ****     *******************************************************************************/
 425:Generated_Source\PSoC5/PWM_X.c ****     uint16 PWM_X_ReadCounter(void) 
 426:Generated_Source\PSoC5/PWM_X.c ****     {
 105              		.loc 1 426 0
 106              		.cfi_startproc
 107              		@ args = 0, pretend = 0, frame = 0
 108              		@ frame_needed = 0, uses_anonymous_args = 0
 109              		@ link register save eliminated.
 427:Generated_Source\PSoC5/PWM_X.c ****         /* Force capture by reading Accumulator */
 428:Generated_Source\PSoC5/PWM_X.c ****         /* Must first do a software capture to be able to read the counter */
 429:Generated_Source\PSoC5/PWM_X.c ****         /* It is up to the user code to make sure there isn't already captured data in the FIFO */
 430:Generated_Source\PSoC5/PWM_X.c ****           (void)CY_GET_REG8(PWM_X_COUNTERCAP_LSB_PTR_8BIT);
 110              		.loc 1 430 0
 111 0000 024B     		ldr	r3, .L11
 112 0002 1B78     		ldrb	r3, [r3]	@ zero_extendqisi2
 431:Generated_Source\PSoC5/PWM_X.c **** 
 432:Generated_Source\PSoC5/PWM_X.c ****         /* Read the data from the FIFO */
 433:Generated_Source\PSoC5/PWM_X.c ****         return (CY_GET_REG16(PWM_X_CAPTURE_LSB_PTR));
 113              		.loc 1 433 0
 114 0004 024B     		ldr	r3, .L11+4
 115 0006 1888     		ldrh	r0, [r3]
 434:Generated_Source\PSoC5/PWM_X.c ****     }
 116              		.loc 1 434 0
 117 0008 80B2     		uxth	r0, r0
 118 000a 7047     		bx	lr
 119              	.L12:
 120              		.align	2
 121              	.L11:
 122 000c 1A640040 		.word	1073767450
 123 0010 B4680040 		.word	1073768628
 124              		.cfi_endproc
 125              	.LFE5:
 126              		.size	PWM_X_ReadCounter, .-PWM_X_ReadCounter
 127              		.section	.text.PWM_X_ClearFIFO,"ax",%progbits
 128              		.align	1
 129              		.global	PWM_X_ClearFIFO
 130              		.thumb
 131              		.thumb_func
 132              		.type	PWM_X_ClearFIFO, %function
 133              	PWM_X_ClearFIFO:
 134              	.LFB6:
 435:Generated_Source\PSoC5/PWM_X.c **** 
 436:Generated_Source\PSoC5/PWM_X.c ****     #if (PWM_X_UseStatus)
ARM GAS  C:\Users\emman\AppData\Local\Temp\ccl8RLpE.s 			page 11


 437:Generated_Source\PSoC5/PWM_X.c **** 
 438:Generated_Source\PSoC5/PWM_X.c **** 
 439:Generated_Source\PSoC5/PWM_X.c ****         /*******************************************************************************
 440:Generated_Source\PSoC5/PWM_X.c ****         * Function Name: PWM_X_ClearFIFO
 441:Generated_Source\PSoC5/PWM_X.c ****         ********************************************************************************
 442:Generated_Source\PSoC5/PWM_X.c ****         *
 443:Generated_Source\PSoC5/PWM_X.c ****         * Summary:
 444:Generated_Source\PSoC5/PWM_X.c ****         *  This function clears all capture data from the capture FIFO
 445:Generated_Source\PSoC5/PWM_X.c ****         *
 446:Generated_Source\PSoC5/PWM_X.c ****         * Parameters:
 447:Generated_Source\PSoC5/PWM_X.c ****         *  None
 448:Generated_Source\PSoC5/PWM_X.c ****         *
 449:Generated_Source\PSoC5/PWM_X.c ****         * Return:
 450:Generated_Source\PSoC5/PWM_X.c ****         *  None
 451:Generated_Source\PSoC5/PWM_X.c ****         *
 452:Generated_Source\PSoC5/PWM_X.c ****         *******************************************************************************/
 453:Generated_Source\PSoC5/PWM_X.c ****         void PWM_X_ClearFIFO(void) 
 454:Generated_Source\PSoC5/PWM_X.c ****         {
 135              		.loc 1 454 0
 136              		.cfi_startproc
 137              		@ args = 0, pretend = 0, frame = 0
 138              		@ frame_needed = 0, uses_anonymous_args = 0
 139              		@ link register save eliminated.
 140              	.LBB16:
 141              	.LBB17:
 455:Generated_Source\PSoC5/PWM_X.c ****             while(0u != (PWM_X_ReadStatusRegister() & PWM_X_STATUS_FIFONEMPTY))
 456:Generated_Source\PSoC5/PWM_X.c ****             {
 457:Generated_Source\PSoC5/PWM_X.c ****                 (void)PWM_X_ReadCapture();
 458:Generated_Source\PSoC5/PWM_X.c ****             }
 459:Generated_Source\PSoC5/PWM_X.c ****         }
 460:Generated_Source\PSoC5/PWM_X.c **** 
 461:Generated_Source\PSoC5/PWM_X.c ****     #endif /* PWM_X_UseStatus */
 462:Generated_Source\PSoC5/PWM_X.c **** 
 463:Generated_Source\PSoC5/PWM_X.c **** #endif /* !PWM_X_UsingFixedFunction */
 464:Generated_Source\PSoC5/PWM_X.c **** 
 465:Generated_Source\PSoC5/PWM_X.c **** 
 466:Generated_Source\PSoC5/PWM_X.c **** /*******************************************************************************
 467:Generated_Source\PSoC5/PWM_X.c **** * Function Name: PWM_X_WritePeriod
 468:Generated_Source\PSoC5/PWM_X.c **** ********************************************************************************
 469:Generated_Source\PSoC5/PWM_X.c **** *
 470:Generated_Source\PSoC5/PWM_X.c **** * Summary:
 471:Generated_Source\PSoC5/PWM_X.c **** *  This function is used to change the period of the counter.  The new period
 472:Generated_Source\PSoC5/PWM_X.c **** *  will be loaded the next time terminal count is detected.
 473:Generated_Source\PSoC5/PWM_X.c **** *
 474:Generated_Source\PSoC5/PWM_X.c **** * Parameters:
 475:Generated_Source\PSoC5/PWM_X.c **** *  period:  Period value. May be between 1 and (2^Resolution)-1.  A value of 0
 476:Generated_Source\PSoC5/PWM_X.c **** *           will result in the counter remaining at zero.
 477:Generated_Source\PSoC5/PWM_X.c **** *
 478:Generated_Source\PSoC5/PWM_X.c **** * Return:
 479:Generated_Source\PSoC5/PWM_X.c **** *  None
 480:Generated_Source\PSoC5/PWM_X.c **** *
 481:Generated_Source\PSoC5/PWM_X.c **** *******************************************************************************/
 482:Generated_Source\PSoC5/PWM_X.c **** void PWM_X_WritePeriod(uint16 period) 
 483:Generated_Source\PSoC5/PWM_X.c **** {
 484:Generated_Source\PSoC5/PWM_X.c ****     #if(PWM_X_UsingFixedFunction)
 485:Generated_Source\PSoC5/PWM_X.c ****         CY_SET_REG16(PWM_X_PERIOD_LSB_PTR, (uint16)period);
 486:Generated_Source\PSoC5/PWM_X.c ****     #else
ARM GAS  C:\Users\emman\AppData\Local\Temp\ccl8RLpE.s 			page 12


 487:Generated_Source\PSoC5/PWM_X.c ****         CY_SET_REG16(PWM_X_PERIOD_LSB_PTR, period);
 488:Generated_Source\PSoC5/PWM_X.c ****     #endif /* (PWM_X_UsingFixedFunction) */
 489:Generated_Source\PSoC5/PWM_X.c **** }
 490:Generated_Source\PSoC5/PWM_X.c **** 
 491:Generated_Source\PSoC5/PWM_X.c **** #if (PWM_X_UseOneCompareMode)
 492:Generated_Source\PSoC5/PWM_X.c **** 
 493:Generated_Source\PSoC5/PWM_X.c **** 
 494:Generated_Source\PSoC5/PWM_X.c ****     /*******************************************************************************
 495:Generated_Source\PSoC5/PWM_X.c ****     * Function Name: PWM_X_WriteCompare
 496:Generated_Source\PSoC5/PWM_X.c ****     ********************************************************************************
 497:Generated_Source\PSoC5/PWM_X.c ****     *
 498:Generated_Source\PSoC5/PWM_X.c ****     * Summary:
 499:Generated_Source\PSoC5/PWM_X.c ****     *  This funtion is used to change the compare1 value when the PWM is in Dither
 500:Generated_Source\PSoC5/PWM_X.c ****     *  mode. The compare output will reflect the new value on the next UDB clock.
 501:Generated_Source\PSoC5/PWM_X.c ****     *  The compare output will be driven high when the present counter value is
 502:Generated_Source\PSoC5/PWM_X.c ****     *  compared to the compare value based on the compare mode defined in
 503:Generated_Source\PSoC5/PWM_X.c ****     *  Dither Mode.
 504:Generated_Source\PSoC5/PWM_X.c ****     *
 505:Generated_Source\PSoC5/PWM_X.c ****     * Parameters:
 506:Generated_Source\PSoC5/PWM_X.c ****     *  compare:  New compare value.
 507:Generated_Source\PSoC5/PWM_X.c ****     *
 508:Generated_Source\PSoC5/PWM_X.c ****     * Return:
 509:Generated_Source\PSoC5/PWM_X.c ****     *  None
 510:Generated_Source\PSoC5/PWM_X.c ****     *
 511:Generated_Source\PSoC5/PWM_X.c ****     * Side Effects:
 512:Generated_Source\PSoC5/PWM_X.c ****     *  This function is only available if the PWM mode parameter is set to
 513:Generated_Source\PSoC5/PWM_X.c ****     *  Dither Mode, Center Aligned Mode or One Output Mode
 514:Generated_Source\PSoC5/PWM_X.c ****     *
 515:Generated_Source\PSoC5/PWM_X.c ****     *******************************************************************************/
 516:Generated_Source\PSoC5/PWM_X.c ****     void PWM_X_WriteCompare(uint16 compare) \
 517:Generated_Source\PSoC5/PWM_X.c ****                                        
 518:Generated_Source\PSoC5/PWM_X.c ****     {
 519:Generated_Source\PSoC5/PWM_X.c ****         #if(PWM_X_UsingFixedFunction)
 520:Generated_Source\PSoC5/PWM_X.c ****             CY_SET_REG16(PWM_X_COMPARE1_LSB_PTR, (uint16)compare);
 521:Generated_Source\PSoC5/PWM_X.c ****         #else
 522:Generated_Source\PSoC5/PWM_X.c ****             CY_SET_REG16(PWM_X_COMPARE1_LSB_PTR, compare);
 523:Generated_Source\PSoC5/PWM_X.c ****         #endif /* (PWM_X_UsingFixedFunction) */
 524:Generated_Source\PSoC5/PWM_X.c **** 
 525:Generated_Source\PSoC5/PWM_X.c ****         #if (PWM_X_PWMMode == PWM_X__B_PWM__DITHER)
 526:Generated_Source\PSoC5/PWM_X.c ****             #if(PWM_X_UsingFixedFunction)
 527:Generated_Source\PSoC5/PWM_X.c ****                 CY_SET_REG16(PWM_X_COMPARE2_LSB_PTR, (uint16)(compare + 1u));
 528:Generated_Source\PSoC5/PWM_X.c ****             #else
 529:Generated_Source\PSoC5/PWM_X.c ****                 CY_SET_REG16(PWM_X_COMPARE2_LSB_PTR, (compare + 1u));
 530:Generated_Source\PSoC5/PWM_X.c ****             #endif /* (PWM_X_UsingFixedFunction) */
 531:Generated_Source\PSoC5/PWM_X.c ****         #endif /* (PWM_X_PWMMode == PWM_X__B_PWM__DITHER) */
 532:Generated_Source\PSoC5/PWM_X.c ****     }
 533:Generated_Source\PSoC5/PWM_X.c **** 
 534:Generated_Source\PSoC5/PWM_X.c **** 
 535:Generated_Source\PSoC5/PWM_X.c **** #else
 536:Generated_Source\PSoC5/PWM_X.c **** 
 537:Generated_Source\PSoC5/PWM_X.c **** 
 538:Generated_Source\PSoC5/PWM_X.c ****     /*******************************************************************************
 539:Generated_Source\PSoC5/PWM_X.c ****     * Function Name: PWM_X_WriteCompare1
 540:Generated_Source\PSoC5/PWM_X.c ****     ********************************************************************************
 541:Generated_Source\PSoC5/PWM_X.c ****     *
 542:Generated_Source\PSoC5/PWM_X.c ****     * Summary:
 543:Generated_Source\PSoC5/PWM_X.c ****     *  This funtion is used to change the compare1 value.  The compare output will
ARM GAS  C:\Users\emman\AppData\Local\Temp\ccl8RLpE.s 			page 13


 544:Generated_Source\PSoC5/PWM_X.c ****     *  reflect the new value on the next UDB clock.  The compare output will be
 545:Generated_Source\PSoC5/PWM_X.c ****     *  driven high when the present counter value is less than or less than or
 546:Generated_Source\PSoC5/PWM_X.c ****     *  equal to the compare register, depending on the mode.
 547:Generated_Source\PSoC5/PWM_X.c ****     *
 548:Generated_Source\PSoC5/PWM_X.c ****     * Parameters:
 549:Generated_Source\PSoC5/PWM_X.c ****     *  compare:  New compare value.
 550:Generated_Source\PSoC5/PWM_X.c ****     *
 551:Generated_Source\PSoC5/PWM_X.c ****     * Return:
 552:Generated_Source\PSoC5/PWM_X.c ****     *  None
 553:Generated_Source\PSoC5/PWM_X.c ****     *
 554:Generated_Source\PSoC5/PWM_X.c ****     *******************************************************************************/
 555:Generated_Source\PSoC5/PWM_X.c ****     void PWM_X_WriteCompare1(uint16 compare) \
 556:Generated_Source\PSoC5/PWM_X.c ****                                         
 557:Generated_Source\PSoC5/PWM_X.c ****     {
 558:Generated_Source\PSoC5/PWM_X.c ****         #if(PWM_X_UsingFixedFunction)
 559:Generated_Source\PSoC5/PWM_X.c ****             CY_SET_REG16(PWM_X_COMPARE1_LSB_PTR, (uint16)compare);
 560:Generated_Source\PSoC5/PWM_X.c ****         #else
 561:Generated_Source\PSoC5/PWM_X.c ****             CY_SET_REG16(PWM_X_COMPARE1_LSB_PTR, compare);
 562:Generated_Source\PSoC5/PWM_X.c ****         #endif /* (PWM_X_UsingFixedFunction) */
 563:Generated_Source\PSoC5/PWM_X.c ****     }
 564:Generated_Source\PSoC5/PWM_X.c **** 
 565:Generated_Source\PSoC5/PWM_X.c **** 
 566:Generated_Source\PSoC5/PWM_X.c ****     /*******************************************************************************
 567:Generated_Source\PSoC5/PWM_X.c ****     * Function Name: PWM_X_WriteCompare2
 568:Generated_Source\PSoC5/PWM_X.c ****     ********************************************************************************
 569:Generated_Source\PSoC5/PWM_X.c ****     *
 570:Generated_Source\PSoC5/PWM_X.c ****     * Summary:
 571:Generated_Source\PSoC5/PWM_X.c ****     *  This funtion is used to change the compare value, for compare1 output.
 572:Generated_Source\PSoC5/PWM_X.c ****     *  The compare output will reflect the new value on the next UDB clock.
 573:Generated_Source\PSoC5/PWM_X.c ****     *  The compare output will be driven high when the present counter value is
 574:Generated_Source\PSoC5/PWM_X.c ****     *  less than or less than or equal to the compare register, depending on the
 575:Generated_Source\PSoC5/PWM_X.c ****     *  mode.
 576:Generated_Source\PSoC5/PWM_X.c ****     *
 577:Generated_Source\PSoC5/PWM_X.c ****     * Parameters:
 578:Generated_Source\PSoC5/PWM_X.c ****     *  compare:  New compare value.
 579:Generated_Source\PSoC5/PWM_X.c ****     *
 580:Generated_Source\PSoC5/PWM_X.c ****     * Return:
 581:Generated_Source\PSoC5/PWM_X.c ****     *  None
 582:Generated_Source\PSoC5/PWM_X.c ****     *
 583:Generated_Source\PSoC5/PWM_X.c ****     *******************************************************************************/
 584:Generated_Source\PSoC5/PWM_X.c ****     void PWM_X_WriteCompare2(uint16 compare) \
 585:Generated_Source\PSoC5/PWM_X.c ****                                         
 586:Generated_Source\PSoC5/PWM_X.c ****     {
 587:Generated_Source\PSoC5/PWM_X.c ****         #if(PWM_X_UsingFixedFunction)
 588:Generated_Source\PSoC5/PWM_X.c ****             CY_SET_REG16(PWM_X_COMPARE2_LSB_PTR, compare);
 589:Generated_Source\PSoC5/PWM_X.c ****         #else
 590:Generated_Source\PSoC5/PWM_X.c ****             CY_SET_REG16(PWM_X_COMPARE2_LSB_PTR, compare);
 591:Generated_Source\PSoC5/PWM_X.c ****         #endif /* (PWM_X_UsingFixedFunction) */
 592:Generated_Source\PSoC5/PWM_X.c ****     }
 593:Generated_Source\PSoC5/PWM_X.c **** #endif /* UseOneCompareMode */
 594:Generated_Source\PSoC5/PWM_X.c **** 
 595:Generated_Source\PSoC5/PWM_X.c **** #if (PWM_X_DeadBandUsed)
 596:Generated_Source\PSoC5/PWM_X.c **** 
 597:Generated_Source\PSoC5/PWM_X.c **** 
 598:Generated_Source\PSoC5/PWM_X.c ****     /*******************************************************************************
 599:Generated_Source\PSoC5/PWM_X.c ****     * Function Name: PWM_X_WriteDeadTime
 600:Generated_Source\PSoC5/PWM_X.c ****     ********************************************************************************
ARM GAS  C:\Users\emman\AppData\Local\Temp\ccl8RLpE.s 			page 14


 601:Generated_Source\PSoC5/PWM_X.c ****     *
 602:Generated_Source\PSoC5/PWM_X.c ****     * Summary:
 603:Generated_Source\PSoC5/PWM_X.c ****     *  This function writes the dead-band counts to the corresponding register
 604:Generated_Source\PSoC5/PWM_X.c ****     *
 605:Generated_Source\PSoC5/PWM_X.c ****     * Parameters:
 606:Generated_Source\PSoC5/PWM_X.c ****     *  deadtime:  Number of counts for dead time
 607:Generated_Source\PSoC5/PWM_X.c ****     *
 608:Generated_Source\PSoC5/PWM_X.c ****     * Return:
 609:Generated_Source\PSoC5/PWM_X.c ****     *  None
 610:Generated_Source\PSoC5/PWM_X.c ****     *
 611:Generated_Source\PSoC5/PWM_X.c ****     *******************************************************************************/
 612:Generated_Source\PSoC5/PWM_X.c ****     void PWM_X_WriteDeadTime(uint8 deadtime) 
 613:Generated_Source\PSoC5/PWM_X.c ****     {
 614:Generated_Source\PSoC5/PWM_X.c ****         /* If using the Dead Band 1-255 mode then just write the register */
 615:Generated_Source\PSoC5/PWM_X.c ****         #if(!PWM_X_DeadBand2_4)
 616:Generated_Source\PSoC5/PWM_X.c ****             CY_SET_REG8(PWM_X_DEADBAND_COUNT_PTR, deadtime);
 617:Generated_Source\PSoC5/PWM_X.c ****         #else
 618:Generated_Source\PSoC5/PWM_X.c ****             /* Otherwise the data has to be masked and offset */
 619:Generated_Source\PSoC5/PWM_X.c ****             /* Clear existing data */
 620:Generated_Source\PSoC5/PWM_X.c ****             PWM_X_DEADBAND_COUNT &= ((uint8)(~PWM_X_DEADBAND_COUNT_MASK));
 621:Generated_Source\PSoC5/PWM_X.c **** 
 622:Generated_Source\PSoC5/PWM_X.c ****             /* Set new dead time */
 623:Generated_Source\PSoC5/PWM_X.c ****             #if(PWM_X_DEADBAND_COUNT_SHIFT)
 624:Generated_Source\PSoC5/PWM_X.c ****                 PWM_X_DEADBAND_COUNT |= ((uint8)((uint8)deadtime << PWM_X_DEADBAND_COUNT_SHIFT)) &
 625:Generated_Source\PSoC5/PWM_X.c ****                                                     PWM_X_DEADBAND_COUNT_MASK;
 626:Generated_Source\PSoC5/PWM_X.c ****             #else
 627:Generated_Source\PSoC5/PWM_X.c ****                 PWM_X_DEADBAND_COUNT |= deadtime & PWM_X_DEADBAND_COUNT_MASK;
 628:Generated_Source\PSoC5/PWM_X.c ****             #endif /* (PWM_X_DEADBAND_COUNT_SHIFT) */
 629:Generated_Source\PSoC5/PWM_X.c **** 
 630:Generated_Source\PSoC5/PWM_X.c ****         #endif /* (!PWM_X_DeadBand2_4) */
 631:Generated_Source\PSoC5/PWM_X.c ****     }
 632:Generated_Source\PSoC5/PWM_X.c **** 
 633:Generated_Source\PSoC5/PWM_X.c **** 
 634:Generated_Source\PSoC5/PWM_X.c ****     /*******************************************************************************
 635:Generated_Source\PSoC5/PWM_X.c ****     * Function Name: PWM_X_ReadDeadTime
 636:Generated_Source\PSoC5/PWM_X.c ****     ********************************************************************************
 637:Generated_Source\PSoC5/PWM_X.c ****     *
 638:Generated_Source\PSoC5/PWM_X.c ****     * Summary:
 639:Generated_Source\PSoC5/PWM_X.c ****     *  This function reads the dead-band counts from the corresponding register
 640:Generated_Source\PSoC5/PWM_X.c ****     *
 641:Generated_Source\PSoC5/PWM_X.c ****     * Parameters:
 642:Generated_Source\PSoC5/PWM_X.c ****     *  None
 643:Generated_Source\PSoC5/PWM_X.c ****     *
 644:Generated_Source\PSoC5/PWM_X.c ****     * Return:
 645:Generated_Source\PSoC5/PWM_X.c ****     *  Dead Band Counts
 646:Generated_Source\PSoC5/PWM_X.c ****     *
 647:Generated_Source\PSoC5/PWM_X.c ****     *******************************************************************************/
 648:Generated_Source\PSoC5/PWM_X.c ****     uint8 PWM_X_ReadDeadTime(void) 
 649:Generated_Source\PSoC5/PWM_X.c ****     {
 650:Generated_Source\PSoC5/PWM_X.c ****         /* If using the Dead Band 1-255 mode then just read the register */
 651:Generated_Source\PSoC5/PWM_X.c ****         #if(!PWM_X_DeadBand2_4)
 652:Generated_Source\PSoC5/PWM_X.c ****             return (CY_GET_REG8(PWM_X_DEADBAND_COUNT_PTR));
 653:Generated_Source\PSoC5/PWM_X.c ****         #else
 654:Generated_Source\PSoC5/PWM_X.c **** 
 655:Generated_Source\PSoC5/PWM_X.c ****             /* Otherwise the data has to be masked and offset */
 656:Generated_Source\PSoC5/PWM_X.c ****             #if(PWM_X_DEADBAND_COUNT_SHIFT)
 657:Generated_Source\PSoC5/PWM_X.c ****                 return ((uint8)(((uint8)(PWM_X_DEADBAND_COUNT & PWM_X_DEADBAND_COUNT_MASK)) >>
ARM GAS  C:\Users\emman\AppData\Local\Temp\ccl8RLpE.s 			page 15


 658:Generated_Source\PSoC5/PWM_X.c ****                                                                            PWM_X_DEADBAND_COUNT_SHI
 659:Generated_Source\PSoC5/PWM_X.c ****             #else
 660:Generated_Source\PSoC5/PWM_X.c ****                 return (PWM_X_DEADBAND_COUNT & PWM_X_DEADBAND_COUNT_MASK);
 661:Generated_Source\PSoC5/PWM_X.c ****             #endif /* (PWM_X_DEADBAND_COUNT_SHIFT) */
 662:Generated_Source\PSoC5/PWM_X.c ****         #endif /* (!PWM_X_DeadBand2_4) */
 663:Generated_Source\PSoC5/PWM_X.c ****     }
 664:Generated_Source\PSoC5/PWM_X.c **** #endif /* DeadBandUsed */
 665:Generated_Source\PSoC5/PWM_X.c **** 
 666:Generated_Source\PSoC5/PWM_X.c **** #if (PWM_X_UseStatus || PWM_X_UsingFixedFunction)
 667:Generated_Source\PSoC5/PWM_X.c **** 
 668:Generated_Source\PSoC5/PWM_X.c **** 
 669:Generated_Source\PSoC5/PWM_X.c ****     /*******************************************************************************
 670:Generated_Source\PSoC5/PWM_X.c ****     * Function Name: PWM_X_SetInterruptMode
 671:Generated_Source\PSoC5/PWM_X.c ****     ********************************************************************************
 672:Generated_Source\PSoC5/PWM_X.c ****     *
 673:Generated_Source\PSoC5/PWM_X.c ****     * Summary:
 674:Generated_Source\PSoC5/PWM_X.c ****     *  This function configures the interrupts mask control of theinterrupt
 675:Generated_Source\PSoC5/PWM_X.c ****     *  source status register.
 676:Generated_Source\PSoC5/PWM_X.c ****     *
 677:Generated_Source\PSoC5/PWM_X.c ****     * Parameters:
 678:Generated_Source\PSoC5/PWM_X.c ****     *  uint8 interruptMode: Bit field containing the interrupt sources enabled
 679:Generated_Source\PSoC5/PWM_X.c ****     *
 680:Generated_Source\PSoC5/PWM_X.c ****     * Return:
 681:Generated_Source\PSoC5/PWM_X.c ****     *  None
 682:Generated_Source\PSoC5/PWM_X.c ****     *
 683:Generated_Source\PSoC5/PWM_X.c ****     *******************************************************************************/
 684:Generated_Source\PSoC5/PWM_X.c ****     void PWM_X_SetInterruptMode(uint8 interruptMode) 
 685:Generated_Source\PSoC5/PWM_X.c ****     {
 686:Generated_Source\PSoC5/PWM_X.c ****         CY_SET_REG8(PWM_X_STATUS_MASK_PTR, interruptMode);
 687:Generated_Source\PSoC5/PWM_X.c ****     }
 688:Generated_Source\PSoC5/PWM_X.c **** 
 689:Generated_Source\PSoC5/PWM_X.c **** 
 690:Generated_Source\PSoC5/PWM_X.c ****     /*******************************************************************************
 691:Generated_Source\PSoC5/PWM_X.c ****     * Function Name: PWM_X_ReadStatusRegister
 692:Generated_Source\PSoC5/PWM_X.c ****     ********************************************************************************
 693:Generated_Source\PSoC5/PWM_X.c ****     *
 694:Generated_Source\PSoC5/PWM_X.c ****     * Summary:
 695:Generated_Source\PSoC5/PWM_X.c ****     *  This function returns the current state of the status register.
 696:Generated_Source\PSoC5/PWM_X.c ****     *
 697:Generated_Source\PSoC5/PWM_X.c ****     * Parameters:
 698:Generated_Source\PSoC5/PWM_X.c ****     *  None
 699:Generated_Source\PSoC5/PWM_X.c ****     *
 700:Generated_Source\PSoC5/PWM_X.c ****     * Return:
 701:Generated_Source\PSoC5/PWM_X.c ****     *  uint8 : Current status register value. The status register bits are:
 702:Generated_Source\PSoC5/PWM_X.c ****     *  [7:6] : Unused(0)
 703:Generated_Source\PSoC5/PWM_X.c ****     *  [5]   : Kill event output
 704:Generated_Source\PSoC5/PWM_X.c ****     *  [4]   : FIFO not empty
 705:Generated_Source\PSoC5/PWM_X.c ****     *  [3]   : FIFO full
 706:Generated_Source\PSoC5/PWM_X.c ****     *  [2]   : Terminal count
 707:Generated_Source\PSoC5/PWM_X.c ****     *  [1]   : Compare output 2
 708:Generated_Source\PSoC5/PWM_X.c ****     *  [0]   : Compare output 1
 709:Generated_Source\PSoC5/PWM_X.c ****     *
 710:Generated_Source\PSoC5/PWM_X.c ****     *******************************************************************************/
 711:Generated_Source\PSoC5/PWM_X.c ****     uint8 PWM_X_ReadStatusRegister(void) 
 712:Generated_Source\PSoC5/PWM_X.c ****     {
 713:Generated_Source\PSoC5/PWM_X.c ****         return (CY_GET_REG8(PWM_X_STATUS_PTR));
 142              		.loc 1 713 0
ARM GAS  C:\Users\emman\AppData\Local\Temp\ccl8RLpE.s 			page 16


 143 0000 034A     		ldr	r2, .L18
 144              	.LBE17:
 145              	.LBE16:
 146              	.LBB19:
 147              	.LBB20:
 714:Generated_Source\PSoC5/PWM_X.c ****     }
 715:Generated_Source\PSoC5/PWM_X.c **** 
 716:Generated_Source\PSoC5/PWM_X.c **** #endif /* (PWM_X_UseStatus || PWM_X_UsingFixedFunction) */
 717:Generated_Source\PSoC5/PWM_X.c **** 
 718:Generated_Source\PSoC5/PWM_X.c **** 
 719:Generated_Source\PSoC5/PWM_X.c **** #if (PWM_X_UseControl)
 720:Generated_Source\PSoC5/PWM_X.c **** 
 721:Generated_Source\PSoC5/PWM_X.c **** 
 722:Generated_Source\PSoC5/PWM_X.c ****     /*******************************************************************************
 723:Generated_Source\PSoC5/PWM_X.c ****     * Function Name: PWM_X_ReadControlRegister
 724:Generated_Source\PSoC5/PWM_X.c ****     ********************************************************************************
 725:Generated_Source\PSoC5/PWM_X.c ****     *
 726:Generated_Source\PSoC5/PWM_X.c ****     * Summary:
 727:Generated_Source\PSoC5/PWM_X.c ****     *  Returns the current state of the control register. This API is available
 728:Generated_Source\PSoC5/PWM_X.c ****     *  only if the control register is not removed.
 729:Generated_Source\PSoC5/PWM_X.c ****     *
 730:Generated_Source\PSoC5/PWM_X.c ****     * Parameters:
 731:Generated_Source\PSoC5/PWM_X.c ****     *  None
 732:Generated_Source\PSoC5/PWM_X.c ****     *
 733:Generated_Source\PSoC5/PWM_X.c ****     * Return:
 734:Generated_Source\PSoC5/PWM_X.c ****     *  uint8 : Current control register value
 735:Generated_Source\PSoC5/PWM_X.c ****     *
 736:Generated_Source\PSoC5/PWM_X.c ****     *******************************************************************************/
 737:Generated_Source\PSoC5/PWM_X.c ****     uint8 PWM_X_ReadControlRegister(void) 
 738:Generated_Source\PSoC5/PWM_X.c ****     {
 739:Generated_Source\PSoC5/PWM_X.c ****         uint8 result;
 740:Generated_Source\PSoC5/PWM_X.c **** 
 741:Generated_Source\PSoC5/PWM_X.c ****         result = CY_GET_REG8(PWM_X_CONTROL_PTR);
 742:Generated_Source\PSoC5/PWM_X.c ****         return (result);
 743:Generated_Source\PSoC5/PWM_X.c ****     }
 744:Generated_Source\PSoC5/PWM_X.c **** 
 745:Generated_Source\PSoC5/PWM_X.c **** 
 746:Generated_Source\PSoC5/PWM_X.c ****     /*******************************************************************************
 747:Generated_Source\PSoC5/PWM_X.c ****     * Function Name: PWM_X_WriteControlRegister
 748:Generated_Source\PSoC5/PWM_X.c ****     ********************************************************************************
 749:Generated_Source\PSoC5/PWM_X.c ****     *
 750:Generated_Source\PSoC5/PWM_X.c ****     * Summary:
 751:Generated_Source\PSoC5/PWM_X.c ****     *  Sets the bit field of the control register. This API is available only if
 752:Generated_Source\PSoC5/PWM_X.c ****     *  the control register is not removed.
 753:Generated_Source\PSoC5/PWM_X.c ****     *
 754:Generated_Source\PSoC5/PWM_X.c ****     * Parameters:
 755:Generated_Source\PSoC5/PWM_X.c ****     *  uint8 control: Control register bit field, The status register bits are:
 756:Generated_Source\PSoC5/PWM_X.c ****     *  [7]   : PWM Enable
 757:Generated_Source\PSoC5/PWM_X.c ****     *  [6]   : Reset
 758:Generated_Source\PSoC5/PWM_X.c ****     *  [5:3] : Compare Mode2
 759:Generated_Source\PSoC5/PWM_X.c ****     *  [2:0] : Compare Mode2
 760:Generated_Source\PSoC5/PWM_X.c ****     *
 761:Generated_Source\PSoC5/PWM_X.c ****     * Return:
 762:Generated_Source\PSoC5/PWM_X.c ****     *  None
 763:Generated_Source\PSoC5/PWM_X.c ****     *
 764:Generated_Source\PSoC5/PWM_X.c ****     *******************************************************************************/
 765:Generated_Source\PSoC5/PWM_X.c ****     void PWM_X_WriteControlRegister(uint8 control) 
ARM GAS  C:\Users\emman\AppData\Local\Temp\ccl8RLpE.s 			page 17


 766:Generated_Source\PSoC5/PWM_X.c ****     {
 767:Generated_Source\PSoC5/PWM_X.c ****         CY_SET_REG8(PWM_X_CONTROL_PTR, control);
 768:Generated_Source\PSoC5/PWM_X.c ****     }
 769:Generated_Source\PSoC5/PWM_X.c **** 
 770:Generated_Source\PSoC5/PWM_X.c **** #endif /* (PWM_X_UseControl) */
 771:Generated_Source\PSoC5/PWM_X.c **** 
 772:Generated_Source\PSoC5/PWM_X.c **** 
 773:Generated_Source\PSoC5/PWM_X.c **** #if (!PWM_X_UsingFixedFunction)
 774:Generated_Source\PSoC5/PWM_X.c **** 
 775:Generated_Source\PSoC5/PWM_X.c **** 
 776:Generated_Source\PSoC5/PWM_X.c ****     /*******************************************************************************
 777:Generated_Source\PSoC5/PWM_X.c ****     * Function Name: PWM_X_ReadCapture
 778:Generated_Source\PSoC5/PWM_X.c ****     ********************************************************************************
 779:Generated_Source\PSoC5/PWM_X.c ****     *
 780:Generated_Source\PSoC5/PWM_X.c ****     * Summary:
 781:Generated_Source\PSoC5/PWM_X.c ****     *  Reads the capture value from the capture FIFO.
 782:Generated_Source\PSoC5/PWM_X.c ****     *
 783:Generated_Source\PSoC5/PWM_X.c ****     * Parameters:
 784:Generated_Source\PSoC5/PWM_X.c ****     *  None
 785:Generated_Source\PSoC5/PWM_X.c ****     *
 786:Generated_Source\PSoC5/PWM_X.c ****     * Return:
 787:Generated_Source\PSoC5/PWM_X.c ****     *  uint8/uint16: The current capture value
 788:Generated_Source\PSoC5/PWM_X.c ****     *
 789:Generated_Source\PSoC5/PWM_X.c ****     *******************************************************************************/
 790:Generated_Source\PSoC5/PWM_X.c ****     uint16 PWM_X_ReadCapture(void) 
 791:Generated_Source\PSoC5/PWM_X.c ****     {
 792:Generated_Source\PSoC5/PWM_X.c ****         return (CY_GET_REG16(PWM_X_CAPTURE_LSB_PTR));
 148              		.loc 1 792 0
 149 0002 0449     		ldr	r1, .L18+4
 150              	.L14:
 151              	.LBE20:
 152              	.LBE19:
 153              	.LBB22:
 154              	.LBB18:
 713:Generated_Source\PSoC5/PWM_X.c ****     }
 155              		.loc 1 713 0
 156 0004 1378     		ldrb	r3, [r2]	@ zero_extendqisi2
 157              	.LBE18:
 158              	.LBE22:
 455:Generated_Source\PSoC5/PWM_X.c ****             while(0u != (PWM_X_ReadStatusRegister() & PWM_X_STATUS_FIFONEMPTY))
 159              		.loc 1 455 0
 160 0006 DB06     		lsls	r3, r3, #27
 161 0008 01D5     		bpl	.L17
 162              	.LBB23:
 163              	.LBB21:
 164              		.loc 1 792 0
 165 000a 0B88     		ldrh	r3, [r1]
 166 000c FAE7     		b	.L14
 167              	.L17:
 168              	.LBE21:
 169              	.LBE23:
 459:Generated_Source\PSoC5/PWM_X.c **** 
 170              		.loc 1 459 0
 171 000e 7047     		bx	lr
 172              	.L19:
 173              		.align	2
 174              	.L18:
ARM GAS  C:\Users\emman\AppData\Local\Temp\ccl8RLpE.s 			page 18


 175 0010 6B640040 		.word	1073767531
 176 0014 B4680040 		.word	1073768628
 177              		.cfi_endproc
 178              	.LFE6:
 179              		.size	PWM_X_ClearFIFO, .-PWM_X_ClearFIFO
 180              		.section	.text.PWM_X_Init,"ax",%progbits
 181              		.align	1
 182              		.global	PWM_X_Init
 183              		.thumb
 184              		.thumb_func
 185              		.type	PWM_X_Init, %function
 186              	PWM_X_Init:
 187              	.LFB1:
  85:Generated_Source\PSoC5/PWM_X.c ****     #if (PWM_X_UsingFixedFunction || PWM_X_UseControl)
 188              		.loc 1 85 0
 189              		.cfi_startproc
 190              		@ args = 0, pretend = 0, frame = 0
 191              		@ frame_needed = 0, uses_anonymous_args = 0
 192 0000 10B5     		push	{r4, lr}
 193              		.cfi_def_cfa_offset 8
 194              		.cfi_offset 4, -8
 195              		.cfi_offset 14, -4
 117:Generated_Source\PSoC5/PWM_X.c ****                 ((uint8)(~PWM_X_CTRL_CMPMODE1_MASK));
 196              		.loc 1 117 0
 197 0002 174A     		ldr	r2, .L21
 130:Generated_Source\PSoC5/PWM_X.c ****         #endif /* (PWM_X_Resolution == 8) */
 198              		.loc 1 130 0
 199 0004 174C     		ldr	r4, .L21+4
 117:Generated_Source\PSoC5/PWM_X.c ****                 ((uint8)(~PWM_X_CTRL_CMPMODE1_MASK));
 200              		.loc 1 117 0
 201 0006 1378     		ldrb	r3, [r2]	@ zero_extendqisi2
 202              	.LVL1:
 203              	.LBB24:
 204              	.LBB25:
 686:Generated_Source\PSoC5/PWM_X.c ****     }
 205              		.loc 1 686 0
 206 0008 6FF47271 		mvn	r1, #968
 207              	.LBE25:
 208              	.LBE24:
 119:Generated_Source\PSoC5/PWM_X.c ****                                    PWM_X_DEFAULT_COMPARE1_MODE;
 209              		.loc 1 119 0
 210 000c 03F0C003 		and	r3, r3, #192
 211              	.LVL2:
 212 0010 43F00103 		orr	r3, r3, #1
 213 0014 1370     		strb	r3, [r2]
 129:Generated_Source\PSoC5/PWM_X.c ****             PWM_X_AUX_CONTROLDP1 |= (PWM_X_AUX_CTRL_FIFO0_CLR);
 214              		.loc 1 129 0
 215 0016 D37F     		ldrb	r3, [r2, #31]	@ zero_extendqisi2
 216 0018 43F00103 		orr	r3, r3, #1
 217 001c D377     		strb	r3, [r2, #31]
 130:Generated_Source\PSoC5/PWM_X.c ****         #endif /* (PWM_X_Resolution == 8) */
 218              		.loc 1 130 0
 219 001e 2378     		ldrb	r3, [r4]	@ zero_extendqisi2
 220 0020 43F00103 		orr	r3, r3, #1
 221 0024 2370     		strb	r3, [r4]
 222              	.LVL3:
 223              	.LBB27:
ARM GAS  C:\Users\emman\AppData\Local\Temp\ccl8RLpE.s 			page 19


 224              	.LBB28:
 406:Generated_Source\PSoC5/PWM_X.c ****     }
 225              		.loc 1 406 0
 226 0026 44F61F63 		movw	r3, #19999
 227 002a A2F89933 		strh	r3, [r2, #921]	@ movhi
 228              	.LVL4:
 229              	.LBE28:
 230              	.LBE27:
 231              	.LBB29:
 232              	.LBB30:
 487:Generated_Source\PSoC5/PWM_X.c ****     #endif /* (PWM_X_UsingFixedFunction) */
 233              		.loc 1 487 0
 234 002e A2F81934 		strh	r3, [r2, #1049]	@ movhi
 235              	.LVL5:
 236              	.LBE30:
 237              	.LBE29:
 238              	.LBB31:
 239              	.LBB32:
 561:Generated_Source\PSoC5/PWM_X.c ****         #endif /* (PWM_X_UsingFixedFunction) */
 240              		.loc 1 561 0
 241 0032 0D4B     		ldr	r3, .L21+8
 242 0034 4FF4B862 		mov	r2, #1472
 243 0038 1A80     		strh	r2, [r3]	@ movhi
 244              	.LVL6:
 245              	.LBE32:
 246              	.LBE31:
 247              	.LBB33:
 248              	.LBB34:
 590:Generated_Source\PSoC5/PWM_X.c ****         #endif /* (PWM_X_UsingFixedFunction) */
 249              		.loc 1 590 0
 250 003a 4FF42F62 		mov	r2, #2800
 251 003e 1A84     		strh	r2, [r3, #32]	@ movhi
 252              	.LVL7:
 253              	.LBE34:
 254              	.LBE33:
 255              	.LBB35:
 256              	.LBB26:
 686:Generated_Source\PSoC5/PWM_X.c ****     }
 257              		.loc 1 686 0
 258 0040 0B44     		add	r3, r3, r1
 259 0042 0022     		movs	r2, #0
 260 0044 1A70     		strb	r2, [r3]
 261              	.LVL8:
 262              	.LBE26:
 263              	.LBE35:
 167:Generated_Source\PSoC5/PWM_X.c ****             /* Use the interrupt output of the status register for IRQ output */
 264              		.loc 1 167 0
 265 0046 FFF7FEFF 		bl	CyEnterCriticalSection
 266              	.LVL9:
 169:Generated_Source\PSoC5/PWM_X.c **** 
 267              		.loc 1 169 0
 268 004a 2378     		ldrb	r3, [r4]	@ zero_extendqisi2
 269 004c 43F01003 		orr	r3, r3, #16
 270 0050 2370     		strb	r3, [r4]
 172:Generated_Source\PSoC5/PWM_X.c **** 
 271              		.loc 1 172 0
 272 0052 FFF7FEFF 		bl	CyExitCriticalSection
ARM GAS  C:\Users\emman\AppData\Local\Temp\ccl8RLpE.s 			page 20


 273              	.LVL10:
 179:Generated_Source\PSoC5/PWM_X.c **** 
 274              		.loc 1 179 0
 275 0056 BDE81040 		pop	{r4, lr}
 276              		.cfi_restore 14
 277              		.cfi_restore 4
 278              		.cfi_def_cfa_offset 0
 176:Generated_Source\PSoC5/PWM_X.c ****         #endif /* (PWM_X_UseStatus) */
 279              		.loc 1 176 0
 280 005a FFF7FEBF 		b	PWM_X_ClearFIFO
 281              	.LVL11:
 282              	.L22:
 283 005e 00BF     		.align	2
 284              	.L21:
 285 0060 7B640040 		.word	1073767547
 286 0064 9B640040 		.word	1073767579
 287 0068 54680040 		.word	1073768532
 288              		.cfi_endproc
 289              	.LFE1:
 290              		.size	PWM_X_Init, .-PWM_X_Init
 291              		.section	.text.PWM_X_Start,"ax",%progbits
 292              		.align	1
 293              		.global	PWM_X_Start
 294              		.thumb
 295              		.thumb_func
 296              		.type	PWM_X_Start, %function
 297              	PWM_X_Start:
 298              	.LFB0:
  56:Generated_Source\PSoC5/PWM_X.c ****     /* If not Initialized then initialize all required hardware and software */
 299              		.loc 1 56 0
 300              		.cfi_startproc
 301              		@ args = 0, pretend = 0, frame = 0
 302              		@ frame_needed = 0, uses_anonymous_args = 0
 303 0000 10B5     		push	{r4, lr}
 304              		.cfi_def_cfa_offset 8
 305              		.cfi_offset 4, -8
 306              		.cfi_offset 14, -4
  58:Generated_Source\PSoC5/PWM_X.c ****     {
 307              		.loc 1 58 0
 308 0002 054C     		ldr	r4, .L25
 309 0004 2378     		ldrb	r3, [r4]	@ zero_extendqisi2
 310 0006 1BB9     		cbnz	r3, .L24
  60:Generated_Source\PSoC5/PWM_X.c ****         PWM_X_initVar = 1u;
 311              		.loc 1 60 0
 312 0008 FFF7FEFF 		bl	PWM_X_Init
 313              	.LVL12:
  61:Generated_Source\PSoC5/PWM_X.c ****     }
 314              		.loc 1 61 0
 315 000c 0123     		movs	r3, #1
 316 000e 2370     		strb	r3, [r4]
 317              	.L24:
  65:Generated_Source\PSoC5/PWM_X.c **** 
 318              		.loc 1 65 0
 319 0010 BDE81040 		pop	{r4, lr}
 320              		.cfi_restore 14
 321              		.cfi_restore 4
 322              		.cfi_def_cfa_offset 0
ARM GAS  C:\Users\emman\AppData\Local\Temp\ccl8RLpE.s 			page 21


  63:Generated_Source\PSoC5/PWM_X.c **** 
 323              		.loc 1 63 0
 324 0014 FFF7FEBF 		b	PWM_X_Enable
 325              	.LVL13:
 326              	.L26:
 327              		.align	2
 328              	.L25:
 329 0018 00000000 		.word	.LANCHOR0
 330              		.cfi_endproc
 331              	.LFE0:
 332              		.size	PWM_X_Start, .-PWM_X_Start
 333              		.section	.text.PWM_X_WritePeriod,"ax",%progbits
 334              		.align	1
 335              		.global	PWM_X_WritePeriod
 336              		.thumb
 337              		.thumb_func
 338              		.type	PWM_X_WritePeriod, %function
 339              	PWM_X_WritePeriod:
 340              	.LFB7:
 483:Generated_Source\PSoC5/PWM_X.c ****     #if(PWM_X_UsingFixedFunction)
 341              		.loc 1 483 0
 342              		.cfi_startproc
 343              		@ args = 0, pretend = 0, frame = 0
 344              		@ frame_needed = 0, uses_anonymous_args = 0
 345              		@ link register save eliminated.
 346              	.LVL14:
 487:Generated_Source\PSoC5/PWM_X.c ****     #endif /* (PWM_X_UsingFixedFunction) */
 347              		.loc 1 487 0
 348 0000 014B     		ldr	r3, .L28
 349 0002 1880     		strh	r0, [r3]	@ movhi
 350 0004 7047     		bx	lr
 351              	.L29:
 352 0006 00BF     		.align	2
 353              	.L28:
 354 0008 94680040 		.word	1073768596
 355              		.cfi_endproc
 356              	.LFE7:
 357              		.size	PWM_X_WritePeriod, .-PWM_X_WritePeriod
 358              		.section	.text.PWM_X_WriteCompare1,"ax",%progbits
 359              		.align	1
 360              		.global	PWM_X_WriteCompare1
 361              		.thumb
 362              		.thumb_func
 363              		.type	PWM_X_WriteCompare1, %function
 364              	PWM_X_WriteCompare1:
 365              	.LFB8:
 557:Generated_Source\PSoC5/PWM_X.c ****         #if(PWM_X_UsingFixedFunction)
 366              		.loc 1 557 0
 367              		.cfi_startproc
 368              		@ args = 0, pretend = 0, frame = 0
 369              		@ frame_needed = 0, uses_anonymous_args = 0
 370              		@ link register save eliminated.
 371              	.LVL15:
 561:Generated_Source\PSoC5/PWM_X.c ****         #endif /* (PWM_X_UsingFixedFunction) */
 372              		.loc 1 561 0
 373 0000 014B     		ldr	r3, .L31
 374 0002 1880     		strh	r0, [r3]	@ movhi
ARM GAS  C:\Users\emman\AppData\Local\Temp\ccl8RLpE.s 			page 22


 375 0004 7047     		bx	lr
 376              	.L32:
 377 0006 00BF     		.align	2
 378              	.L31:
 379 0008 54680040 		.word	1073768532
 380              		.cfi_endproc
 381              	.LFE8:
 382              		.size	PWM_X_WriteCompare1, .-PWM_X_WriteCompare1
 383              		.section	.text.PWM_X_WriteCompare2,"ax",%progbits
 384              		.align	1
 385              		.global	PWM_X_WriteCompare2
 386              		.thumb
 387              		.thumb_func
 388              		.type	PWM_X_WriteCompare2, %function
 389              	PWM_X_WriteCompare2:
 390              	.LFB9:
 586:Generated_Source\PSoC5/PWM_X.c ****         #if(PWM_X_UsingFixedFunction)
 391              		.loc 1 586 0
 392              		.cfi_startproc
 393              		@ args = 0, pretend = 0, frame = 0
 394              		@ frame_needed = 0, uses_anonymous_args = 0
 395              		@ link register save eliminated.
 396              	.LVL16:
 590:Generated_Source\PSoC5/PWM_X.c ****         #endif /* (PWM_X_UsingFixedFunction) */
 397              		.loc 1 590 0
 398 0000 014B     		ldr	r3, .L34
 399 0002 1880     		strh	r0, [r3]	@ movhi
 400 0004 7047     		bx	lr
 401              	.L35:
 402 0006 00BF     		.align	2
 403              	.L34:
 404 0008 74680040 		.word	1073768564
 405              		.cfi_endproc
 406              	.LFE9:
 407              		.size	PWM_X_WriteCompare2, .-PWM_X_WriteCompare2
 408              		.section	.text.PWM_X_SetInterruptMode,"ax",%progbits
 409              		.align	1
 410              		.global	PWM_X_SetInterruptMode
 411              		.thumb
 412              		.thumb_func
 413              		.type	PWM_X_SetInterruptMode, %function
 414              	PWM_X_SetInterruptMode:
 415              	.LFB10:
 685:Generated_Source\PSoC5/PWM_X.c ****         CY_SET_REG8(PWM_X_STATUS_MASK_PTR, interruptMode);
 416              		.loc 1 685 0
 417              		.cfi_startproc
 418              		@ args = 0, pretend = 0, frame = 0
 419              		@ frame_needed = 0, uses_anonymous_args = 0
 420              		@ link register save eliminated.
 421              	.LVL17:
 686:Generated_Source\PSoC5/PWM_X.c ****     }
 422              		.loc 1 686 0
 423 0000 014B     		ldr	r3, .L37
 424 0002 1870     		strb	r0, [r3]
 425 0004 7047     		bx	lr
 426              	.L38:
 427 0006 00BF     		.align	2
ARM GAS  C:\Users\emman\AppData\Local\Temp\ccl8RLpE.s 			page 23


 428              	.L37:
 429 0008 8B640040 		.word	1073767563
 430              		.cfi_endproc
 431              	.LFE10:
 432              		.size	PWM_X_SetInterruptMode, .-PWM_X_SetInterruptMode
 433              		.section	.text.PWM_X_ReadStatusRegister,"ax",%progbits
 434              		.align	1
 435              		.global	PWM_X_ReadStatusRegister
 436              		.thumb
 437              		.thumb_func
 438              		.type	PWM_X_ReadStatusRegister, %function
 439              	PWM_X_ReadStatusRegister:
 440              	.LFB11:
 712:Generated_Source\PSoC5/PWM_X.c ****         return (CY_GET_REG8(PWM_X_STATUS_PTR));
 441              		.loc 1 712 0
 442              		.cfi_startproc
 443              		@ args = 0, pretend = 0, frame = 0
 444              		@ frame_needed = 0, uses_anonymous_args = 0
 445              		@ link register save eliminated.
 713:Generated_Source\PSoC5/PWM_X.c ****     }
 446              		.loc 1 713 0
 447 0000 014B     		ldr	r3, .L40
 448 0002 1878     		ldrb	r0, [r3]	@ zero_extendqisi2
 714:Generated_Source\PSoC5/PWM_X.c **** 
 449              		.loc 1 714 0
 450 0004 7047     		bx	lr
 451              	.L41:
 452 0006 00BF     		.align	2
 453              	.L40:
 454 0008 6B640040 		.word	1073767531
 455              		.cfi_endproc
 456              	.LFE11:
 457              		.size	PWM_X_ReadStatusRegister, .-PWM_X_ReadStatusRegister
 458              		.section	.text.PWM_X_ReadControlRegister,"ax",%progbits
 459              		.align	1
 460              		.global	PWM_X_ReadControlRegister
 461              		.thumb
 462              		.thumb_func
 463              		.type	PWM_X_ReadControlRegister, %function
 464              	PWM_X_ReadControlRegister:
 465              	.LFB12:
 738:Generated_Source\PSoC5/PWM_X.c ****         uint8 result;
 466              		.loc 1 738 0
 467              		.cfi_startproc
 468              		@ args = 0, pretend = 0, frame = 0
 469              		@ frame_needed = 0, uses_anonymous_args = 0
 470              		@ link register save eliminated.
 741:Generated_Source\PSoC5/PWM_X.c ****         return (result);
 471              		.loc 1 741 0
 472 0000 014B     		ldr	r3, .L43
 473 0002 1878     		ldrb	r0, [r3]	@ zero_extendqisi2
 474              	.LVL18:
 743:Generated_Source\PSoC5/PWM_X.c **** 
 475              		.loc 1 743 0
 476 0004 7047     		bx	lr
 477              	.L44:
 478 0006 00BF     		.align	2
ARM GAS  C:\Users\emman\AppData\Local\Temp\ccl8RLpE.s 			page 24


 479              	.L43:
 480 0008 7B640040 		.word	1073767547
 481              		.cfi_endproc
 482              	.LFE12:
 483              		.size	PWM_X_ReadControlRegister, .-PWM_X_ReadControlRegister
 484              		.section	.text.PWM_X_WriteControlRegister,"ax",%progbits
 485              		.align	1
 486              		.global	PWM_X_WriteControlRegister
 487              		.thumb
 488              		.thumb_func
 489              		.type	PWM_X_WriteControlRegister, %function
 490              	PWM_X_WriteControlRegister:
 491              	.LFB13:
 766:Generated_Source\PSoC5/PWM_X.c ****         CY_SET_REG8(PWM_X_CONTROL_PTR, control);
 492              		.loc 1 766 0
 493              		.cfi_startproc
 494              		@ args = 0, pretend = 0, frame = 0
 495              		@ frame_needed = 0, uses_anonymous_args = 0
 496              		@ link register save eliminated.
 497              	.LVL19:
 767:Generated_Source\PSoC5/PWM_X.c ****     }
 498              		.loc 1 767 0
 499 0000 014B     		ldr	r3, .L46
 500 0002 1870     		strb	r0, [r3]
 501 0004 7047     		bx	lr
 502              	.L47:
 503 0006 00BF     		.align	2
 504              	.L46:
 505 0008 7B640040 		.word	1073767547
 506              		.cfi_endproc
 507              	.LFE13:
 508              		.size	PWM_X_WriteControlRegister, .-PWM_X_WriteControlRegister
 509              		.section	.text.PWM_X_ReadCapture,"ax",%progbits
 510              		.align	1
 511              		.global	PWM_X_ReadCapture
 512              		.thumb
 513              		.thumb_func
 514              		.type	PWM_X_ReadCapture, %function
 515              	PWM_X_ReadCapture:
 516              	.LFB14:
 791:Generated_Source\PSoC5/PWM_X.c ****         return (CY_GET_REG16(PWM_X_CAPTURE_LSB_PTR));
 517              		.loc 1 791 0
 518              		.cfi_startproc
 519              		@ args = 0, pretend = 0, frame = 0
 520              		@ frame_needed = 0, uses_anonymous_args = 0
 521              		@ link register save eliminated.
 522              		.loc 1 792 0
 523 0000 014B     		ldr	r3, .L49
 524 0002 1888     		ldrh	r0, [r3]
 793:Generated_Source\PSoC5/PWM_X.c ****     }
 525              		.loc 1 793 0
 526 0004 80B2     		uxth	r0, r0
 527 0006 7047     		bx	lr
 528              	.L50:
 529              		.align	2
 530              	.L49:
 531 0008 B4680040 		.word	1073768628
ARM GAS  C:\Users\emman\AppData\Local\Temp\ccl8RLpE.s 			page 25


 532              		.cfi_endproc
 533              	.LFE14:
 534              		.size	PWM_X_ReadCapture, .-PWM_X_ReadCapture
 535              		.section	.text.PWM_X_ReadCompare1,"ax",%progbits
 536              		.align	1
 537              		.global	PWM_X_ReadCompare1
 538              		.thumb
 539              		.thumb_func
 540              		.type	PWM_X_ReadCompare1, %function
 541              	PWM_X_ReadCompare1:
 542              	.LFB15:
 794:Generated_Source\PSoC5/PWM_X.c **** 
 795:Generated_Source\PSoC5/PWM_X.c **** #endif /* (!PWM_X_UsingFixedFunction) */
 796:Generated_Source\PSoC5/PWM_X.c **** 
 797:Generated_Source\PSoC5/PWM_X.c **** 
 798:Generated_Source\PSoC5/PWM_X.c **** #if (PWM_X_UseOneCompareMode)
 799:Generated_Source\PSoC5/PWM_X.c **** 
 800:Generated_Source\PSoC5/PWM_X.c **** 
 801:Generated_Source\PSoC5/PWM_X.c ****     /*******************************************************************************
 802:Generated_Source\PSoC5/PWM_X.c ****     * Function Name: PWM_X_ReadCompare
 803:Generated_Source\PSoC5/PWM_X.c ****     ********************************************************************************
 804:Generated_Source\PSoC5/PWM_X.c ****     *
 805:Generated_Source\PSoC5/PWM_X.c ****     * Summary:
 806:Generated_Source\PSoC5/PWM_X.c ****     *  Reads the compare value for the compare output when the PWM Mode parameter is
 807:Generated_Source\PSoC5/PWM_X.c ****     *  set to Dither mode, Center Aligned mode, or One Output mode.
 808:Generated_Source\PSoC5/PWM_X.c ****     *
 809:Generated_Source\PSoC5/PWM_X.c ****     * Parameters:
 810:Generated_Source\PSoC5/PWM_X.c ****     *  None
 811:Generated_Source\PSoC5/PWM_X.c ****     *
 812:Generated_Source\PSoC5/PWM_X.c ****     * Return:
 813:Generated_Source\PSoC5/PWM_X.c ****     *  uint8/uint16: Current compare value
 814:Generated_Source\PSoC5/PWM_X.c ****     *
 815:Generated_Source\PSoC5/PWM_X.c ****     *******************************************************************************/
 816:Generated_Source\PSoC5/PWM_X.c ****     uint16 PWM_X_ReadCompare(void) 
 817:Generated_Source\PSoC5/PWM_X.c ****     {
 818:Generated_Source\PSoC5/PWM_X.c ****         #if(PWM_X_UsingFixedFunction)
 819:Generated_Source\PSoC5/PWM_X.c ****             return ((uint16)CY_GET_REG16(PWM_X_COMPARE1_LSB_PTR));
 820:Generated_Source\PSoC5/PWM_X.c ****         #else
 821:Generated_Source\PSoC5/PWM_X.c ****             return (CY_GET_REG16(PWM_X_COMPARE1_LSB_PTR));
 822:Generated_Source\PSoC5/PWM_X.c ****         #endif /* (PWM_X_UsingFixedFunction) */
 823:Generated_Source\PSoC5/PWM_X.c ****     }
 824:Generated_Source\PSoC5/PWM_X.c **** 
 825:Generated_Source\PSoC5/PWM_X.c **** #else
 826:Generated_Source\PSoC5/PWM_X.c **** 
 827:Generated_Source\PSoC5/PWM_X.c **** 
 828:Generated_Source\PSoC5/PWM_X.c ****     /*******************************************************************************
 829:Generated_Source\PSoC5/PWM_X.c ****     * Function Name: PWM_X_ReadCompare1
 830:Generated_Source\PSoC5/PWM_X.c ****     ********************************************************************************
 831:Generated_Source\PSoC5/PWM_X.c ****     *
 832:Generated_Source\PSoC5/PWM_X.c ****     * Summary:
 833:Generated_Source\PSoC5/PWM_X.c ****     *  Reads the compare value for the compare1 output.
 834:Generated_Source\PSoC5/PWM_X.c ****     *
 835:Generated_Source\PSoC5/PWM_X.c ****     * Parameters:
 836:Generated_Source\PSoC5/PWM_X.c ****     *  None
 837:Generated_Source\PSoC5/PWM_X.c ****     *
 838:Generated_Source\PSoC5/PWM_X.c ****     * Return:
 839:Generated_Source\PSoC5/PWM_X.c ****     *  uint8/uint16: Current compare value.
ARM GAS  C:\Users\emman\AppData\Local\Temp\ccl8RLpE.s 			page 26


 840:Generated_Source\PSoC5/PWM_X.c ****     *
 841:Generated_Source\PSoC5/PWM_X.c ****     *******************************************************************************/
 842:Generated_Source\PSoC5/PWM_X.c ****     uint16 PWM_X_ReadCompare1(void) 
 843:Generated_Source\PSoC5/PWM_X.c ****     {
 543              		.loc 1 843 0
 544              		.cfi_startproc
 545              		@ args = 0, pretend = 0, frame = 0
 546              		@ frame_needed = 0, uses_anonymous_args = 0
 547              		@ link register save eliminated.
 844:Generated_Source\PSoC5/PWM_X.c ****         return (CY_GET_REG16(PWM_X_COMPARE1_LSB_PTR));
 548              		.loc 1 844 0
 549 0000 014B     		ldr	r3, .L52
 550 0002 1888     		ldrh	r0, [r3]
 845:Generated_Source\PSoC5/PWM_X.c ****     }
 551              		.loc 1 845 0
 552 0004 80B2     		uxth	r0, r0
 553 0006 7047     		bx	lr
 554              	.L53:
 555              		.align	2
 556              	.L52:
 557 0008 54680040 		.word	1073768532
 558              		.cfi_endproc
 559              	.LFE15:
 560              		.size	PWM_X_ReadCompare1, .-PWM_X_ReadCompare1
 561              		.section	.text.PWM_X_ReadCompare2,"ax",%progbits
 562              		.align	1
 563              		.global	PWM_X_ReadCompare2
 564              		.thumb
 565              		.thumb_func
 566              		.type	PWM_X_ReadCompare2, %function
 567              	PWM_X_ReadCompare2:
 568              	.LFB16:
 846:Generated_Source\PSoC5/PWM_X.c **** 
 847:Generated_Source\PSoC5/PWM_X.c **** 
 848:Generated_Source\PSoC5/PWM_X.c ****     /*******************************************************************************
 849:Generated_Source\PSoC5/PWM_X.c ****     * Function Name: PWM_X_ReadCompare2
 850:Generated_Source\PSoC5/PWM_X.c ****     ********************************************************************************
 851:Generated_Source\PSoC5/PWM_X.c ****     *
 852:Generated_Source\PSoC5/PWM_X.c ****     * Summary:
 853:Generated_Source\PSoC5/PWM_X.c ****     *  Reads the compare value for the compare2 output.
 854:Generated_Source\PSoC5/PWM_X.c ****     *
 855:Generated_Source\PSoC5/PWM_X.c ****     * Parameters:
 856:Generated_Source\PSoC5/PWM_X.c ****     *  None
 857:Generated_Source\PSoC5/PWM_X.c ****     *
 858:Generated_Source\PSoC5/PWM_X.c ****     * Return:
 859:Generated_Source\PSoC5/PWM_X.c ****     *  uint8/uint16: Current compare value.
 860:Generated_Source\PSoC5/PWM_X.c ****     *
 861:Generated_Source\PSoC5/PWM_X.c ****     *******************************************************************************/
 862:Generated_Source\PSoC5/PWM_X.c ****     uint16 PWM_X_ReadCompare2(void) 
 863:Generated_Source\PSoC5/PWM_X.c ****     {
 569              		.loc 1 863 0
 570              		.cfi_startproc
 571              		@ args = 0, pretend = 0, frame = 0
 572              		@ frame_needed = 0, uses_anonymous_args = 0
 573              		@ link register save eliminated.
 864:Generated_Source\PSoC5/PWM_X.c ****         return (CY_GET_REG16(PWM_X_COMPARE2_LSB_PTR));
 574              		.loc 1 864 0
ARM GAS  C:\Users\emman\AppData\Local\Temp\ccl8RLpE.s 			page 27


 575 0000 014B     		ldr	r3, .L55
 576 0002 1888     		ldrh	r0, [r3]
 865:Generated_Source\PSoC5/PWM_X.c ****     }
 577              		.loc 1 865 0
 578 0004 80B2     		uxth	r0, r0
 579 0006 7047     		bx	lr
 580              	.L56:
 581              		.align	2
 582              	.L55:
 583 0008 74680040 		.word	1073768564
 584              		.cfi_endproc
 585              	.LFE16:
 586              		.size	PWM_X_ReadCompare2, .-PWM_X_ReadCompare2
 587              		.section	.text.PWM_X_ReadPeriod,"ax",%progbits
 588              		.align	1
 589              		.global	PWM_X_ReadPeriod
 590              		.thumb
 591              		.thumb_func
 592              		.type	PWM_X_ReadPeriod, %function
 593              	PWM_X_ReadPeriod:
 594              	.LFB17:
 866:Generated_Source\PSoC5/PWM_X.c **** 
 867:Generated_Source\PSoC5/PWM_X.c **** #endif /* (PWM_X_UseOneCompareMode) */
 868:Generated_Source\PSoC5/PWM_X.c **** 
 869:Generated_Source\PSoC5/PWM_X.c **** 
 870:Generated_Source\PSoC5/PWM_X.c **** /*******************************************************************************
 871:Generated_Source\PSoC5/PWM_X.c **** * Function Name: PWM_X_ReadPeriod
 872:Generated_Source\PSoC5/PWM_X.c **** ********************************************************************************
 873:Generated_Source\PSoC5/PWM_X.c **** *
 874:Generated_Source\PSoC5/PWM_X.c **** * Summary:
 875:Generated_Source\PSoC5/PWM_X.c **** *  Reads the period value used by the PWM hardware.
 876:Generated_Source\PSoC5/PWM_X.c **** *
 877:Generated_Source\PSoC5/PWM_X.c **** * Parameters:
 878:Generated_Source\PSoC5/PWM_X.c **** *  None
 879:Generated_Source\PSoC5/PWM_X.c **** *
 880:Generated_Source\PSoC5/PWM_X.c **** * Return:
 881:Generated_Source\PSoC5/PWM_X.c **** *  uint8/16: Period value
 882:Generated_Source\PSoC5/PWM_X.c **** *
 883:Generated_Source\PSoC5/PWM_X.c **** *******************************************************************************/
 884:Generated_Source\PSoC5/PWM_X.c **** uint16 PWM_X_ReadPeriod(void) 
 885:Generated_Source\PSoC5/PWM_X.c **** {
 595              		.loc 1 885 0
 596              		.cfi_startproc
 597              		@ args = 0, pretend = 0, frame = 0
 598              		@ frame_needed = 0, uses_anonymous_args = 0
 599              		@ link register save eliminated.
 886:Generated_Source\PSoC5/PWM_X.c ****     #if(PWM_X_UsingFixedFunction)
 887:Generated_Source\PSoC5/PWM_X.c ****         return ((uint16)CY_GET_REG16(PWM_X_PERIOD_LSB_PTR));
 888:Generated_Source\PSoC5/PWM_X.c ****     #else
 889:Generated_Source\PSoC5/PWM_X.c ****         return (CY_GET_REG16(PWM_X_PERIOD_LSB_PTR));
 600              		.loc 1 889 0
 601 0000 014B     		ldr	r3, .L58
 602 0002 1888     		ldrh	r0, [r3]
 890:Generated_Source\PSoC5/PWM_X.c ****     #endif /* (PWM_X_UsingFixedFunction) */
 891:Generated_Source\PSoC5/PWM_X.c **** }
 603              		.loc 1 891 0
 604 0004 80B2     		uxth	r0, r0
ARM GAS  C:\Users\emman\AppData\Local\Temp\ccl8RLpE.s 			page 28


 605 0006 7047     		bx	lr
 606              	.L59:
 607              		.align	2
 608              	.L58:
 609 0008 94680040 		.word	1073768596
 610              		.cfi_endproc
 611              	.LFE17:
 612              		.size	PWM_X_ReadPeriod, .-PWM_X_ReadPeriod
 613              		.global	PWM_X_initVar
 614              		.bss
 615              		.set	.LANCHOR0,. + 0
 616              		.type	PWM_X_initVar, %object
 617              		.size	PWM_X_initVar, 1
 618              	PWM_X_initVar:
 619 0000 00       		.space	1
 620              		.text
 621              	.Letext0:
 622              		.file 2 "Generated_Source\\PSoC5\\cytypes.h"
 623              		.file 3 "Generated_Source\\PSoC5\\CyLib.h"