ARM GAS  C:\Users\emman\AppData\Local\Temp\cc4qekec.s 			page 1


   1              		.syntax unified
   2              		.cpu cortex-m3
   3              		.fpu softvfp
   4              		.eabi_attribute 20, 1
   5              		.eabi_attribute 21, 1
   6              		.eabi_attribute 23, 3
   7              		.eabi_attribute 24, 1
   8              		.eabi_attribute 25, 1
   9              		.eabi_attribute 26, 1
  10              		.eabi_attribute 30, 4
  11              		.eabi_attribute 34, 1
  12              		.eabi_attribute 18, 4
  13              		.thumb
  14              		.syntax unified
  15              		.file	"Touch_PM.c"
  16              		.text
  17              	.Ltext0:
  18              		.cfi_sections	.debug_frame
  19              		.section	.text.Touch_SaveConfig,"ax",%progbits
  20              		.align	1
  21              		.global	Touch_SaveConfig
  22              		.thumb
  23              		.thumb_func
  24              		.type	Touch_SaveConfig, %function
  25              	Touch_SaveConfig:
  26              	.LFB0:
  27              		.file 1 "Generated_Source\\PSoC5\\Touch_PM.c"
   1:Generated_Source\PSoC5/Touch_PM.c **** /*******************************************************************************
   2:Generated_Source\PSoC5/Touch_PM.c **** * File Name: Touch_PM.c
   3:Generated_Source\PSoC5/Touch_PM.c **** * Version 2.0
   4:Generated_Source\PSoC5/Touch_PM.c **** *
   5:Generated_Source\PSoC5/Touch_PM.c **** * Description:
   6:Generated_Source\PSoC5/Touch_PM.c **** *  This file contains the setup, control, and status commands to support 
   7:Generated_Source\PSoC5/Touch_PM.c **** *  the component operation in the low power mode. 
   8:Generated_Source\PSoC5/Touch_PM.c **** *
   9:Generated_Source\PSoC5/Touch_PM.c **** * Note:
  10:Generated_Source\PSoC5/Touch_PM.c **** *
  11:Generated_Source\PSoC5/Touch_PM.c **** ********************************************************************************
  12:Generated_Source\PSoC5/Touch_PM.c **** * Copyright 2012-2015, Cypress Semiconductor Corporation.  All rights reserved.
  13:Generated_Source\PSoC5/Touch_PM.c **** * You may use this file only in accordance with the license, terms, conditions, 
  14:Generated_Source\PSoC5/Touch_PM.c **** * disclaimers, and limitations in the end user license agreement accompanying 
  15:Generated_Source\PSoC5/Touch_PM.c **** * the software package with which this file was provided.
  16:Generated_Source\PSoC5/Touch_PM.c **** *******************************************************************************/
  17:Generated_Source\PSoC5/Touch_PM.c **** 
  18:Generated_Source\PSoC5/Touch_PM.c **** #include "Touch.h"
  19:Generated_Source\PSoC5/Touch_PM.c **** 
  20:Generated_Source\PSoC5/Touch_PM.c **** 
  21:Generated_Source\PSoC5/Touch_PM.c **** /*******************************************************************************
  22:Generated_Source\PSoC5/Touch_PM.c **** * Function Name: Touch_SaveConfig
  23:Generated_Source\PSoC5/Touch_PM.c **** ********************************************************************************
  24:Generated_Source\PSoC5/Touch_PM.c **** *
  25:Generated_Source\PSoC5/Touch_PM.c **** * Summary:
  26:Generated_Source\PSoC5/Touch_PM.c **** *  Saves the ADC configuration.
  27:Generated_Source\PSoC5/Touch_PM.c **** *
  28:Generated_Source\PSoC5/Touch_PM.c **** * Parameters:
  29:Generated_Source\PSoC5/Touch_PM.c **** *  None
  30:Generated_Source\PSoC5/Touch_PM.c **** *
ARM GAS  C:\Users\emman\AppData\Local\Temp\cc4qekec.s 			page 2


  31:Generated_Source\PSoC5/Touch_PM.c **** * Return:
  32:Generated_Source\PSoC5/Touch_PM.c **** *  None
  33:Generated_Source\PSoC5/Touch_PM.c **** *
  34:Generated_Source\PSoC5/Touch_PM.c **** *******************************************************************************/
  35:Generated_Source\PSoC5/Touch_PM.c **** void Touch_SaveConfig(void) 
  36:Generated_Source\PSoC5/Touch_PM.c **** {
  28              		.loc 1 36 0
  29              		.cfi_startproc
  30              		@ args = 0, pretend = 0, frame = 0
  31              		@ frame_needed = 0, uses_anonymous_args = 0
  32              		@ link register save eliminated.
  37:Generated_Source\PSoC5/Touch_PM.c ****     Touch_ADC_SaveConfig();   
  33              		.loc 1 37 0
  34 0000 FFF7FEBF 		b	Touch_ADC_SaveConfig
  35              	.LVL0:
  36              		.cfi_endproc
  37              	.LFE0:
  38              		.size	Touch_SaveConfig, .-Touch_SaveConfig
  39              		.section	.text.Touch_RestoreConfig,"ax",%progbits
  40              		.align	1
  41              		.global	Touch_RestoreConfig
  42              		.thumb
  43              		.thumb_func
  44              		.type	Touch_RestoreConfig, %function
  45              	Touch_RestoreConfig:
  46              	.LFB1:
  38:Generated_Source\PSoC5/Touch_PM.c **** }
  39:Generated_Source\PSoC5/Touch_PM.c **** 
  40:Generated_Source\PSoC5/Touch_PM.c **** 
  41:Generated_Source\PSoC5/Touch_PM.c **** /*******************************************************************************
  42:Generated_Source\PSoC5/Touch_PM.c **** * Function Name: Touch_RestoreConfig
  43:Generated_Source\PSoC5/Touch_PM.c **** ********************************************************************************
  44:Generated_Source\PSoC5/Touch_PM.c **** *
  45:Generated_Source\PSoC5/Touch_PM.c **** * Summary:
  46:Generated_Source\PSoC5/Touch_PM.c **** *  Restores the ADC configuration.
  47:Generated_Source\PSoC5/Touch_PM.c **** *
  48:Generated_Source\PSoC5/Touch_PM.c **** * Parameters:
  49:Generated_Source\PSoC5/Touch_PM.c **** *  None
  50:Generated_Source\PSoC5/Touch_PM.c **** *
  51:Generated_Source\PSoC5/Touch_PM.c **** * Return:
  52:Generated_Source\PSoC5/Touch_PM.c **** *  None
  53:Generated_Source\PSoC5/Touch_PM.c **** *
  54:Generated_Source\PSoC5/Touch_PM.c **** *
  55:Generated_Source\PSoC5/Touch_PM.c **** *******************************************************************************/
  56:Generated_Source\PSoC5/Touch_PM.c **** void Touch_RestoreConfig(void) 
  57:Generated_Source\PSoC5/Touch_PM.c **** {
  47              		.loc 1 57 0
  48              		.cfi_startproc
  49              		@ args = 0, pretend = 0, frame = 0
  50              		@ frame_needed = 0, uses_anonymous_args = 0
  51              		@ link register save eliminated.
  58:Generated_Source\PSoC5/Touch_PM.c ****     Touch_ADC_RestoreConfig();  
  52              		.loc 1 58 0
  53 0000 FFF7FEBF 		b	Touch_ADC_RestoreConfig
  54              	.LVL1:
  55              		.cfi_endproc
  56              	.LFE1:
ARM GAS  C:\Users\emman\AppData\Local\Temp\cc4qekec.s 			page 3


  57              		.size	Touch_RestoreConfig, .-Touch_RestoreConfig
  58              		.section	.text.Touch_Sleep,"ax",%progbits
  59              		.align	1
  60              		.global	Touch_Sleep
  61              		.thumb
  62              		.thumb_func
  63              		.type	Touch_Sleep, %function
  64              	Touch_Sleep:
  65              	.LFB2:
  59:Generated_Source\PSoC5/Touch_PM.c **** }
  60:Generated_Source\PSoC5/Touch_PM.c **** 
  61:Generated_Source\PSoC5/Touch_PM.c **** 
  62:Generated_Source\PSoC5/Touch_PM.c **** /*******************************************************************************
  63:Generated_Source\PSoC5/Touch_PM.c **** * Function Name: Touch_Sleep
  64:Generated_Source\PSoC5/Touch_PM.c **** ********************************************************************************
  65:Generated_Source\PSoC5/Touch_PM.c **** *
  66:Generated_Source\PSoC5/Touch_PM.c **** * Summary:
  67:Generated_Source\PSoC5/Touch_PM.c **** *  Prepares the component for entering the low power mode.
  68:Generated_Source\PSoC5/Touch_PM.c **** *
  69:Generated_Source\PSoC5/Touch_PM.c **** * Parameters:
  70:Generated_Source\PSoC5/Touch_PM.c **** *  None
  71:Generated_Source\PSoC5/Touch_PM.c **** *
  72:Generated_Source\PSoC5/Touch_PM.c **** * Return:
  73:Generated_Source\PSoC5/Touch_PM.c **** *  None
  74:Generated_Source\PSoC5/Touch_PM.c **** *
  75:Generated_Source\PSoC5/Touch_PM.c **** *******************************************************************************/
  76:Generated_Source\PSoC5/Touch_PM.c **** void Touch_Sleep(void) 
  77:Generated_Source\PSoC5/Touch_PM.c **** {
  66              		.loc 1 77 0
  67              		.cfi_startproc
  68              		@ args = 0, pretend = 0, frame = 0
  69              		@ frame_needed = 0, uses_anonymous_args = 0
  70 0000 08B5     		push	{r3, lr}
  71              		.cfi_def_cfa_offset 8
  72              		.cfi_offset 3, -8
  73              		.cfi_offset 14, -4
  78:Generated_Source\PSoC5/Touch_PM.c ****     Touch_ADC_Sleep();
  74              		.loc 1 78 0
  75 0002 FFF7FEFF 		bl	Touch_ADC_Sleep
  76              	.LVL2:
  79:Generated_Source\PSoC5/Touch_PM.c ****     Touch_AMux_Stop();
  80:Generated_Source\PSoC5/Touch_PM.c **** }
  77              		.loc 1 80 0
  78 0006 BDE80840 		pop	{r3, lr}
  79              		.cfi_restore 14
  80              		.cfi_restore 3
  81              		.cfi_def_cfa_offset 0
  79:Generated_Source\PSoC5/Touch_PM.c ****     Touch_AMux_Stop();
  82              		.loc 1 79 0
  83 000a FFF7FEBF 		b	Touch_AMux_Stop
  84              	.LVL3:
  85              		.cfi_endproc
  86              	.LFE2:
  87              		.size	Touch_Sleep, .-Touch_Sleep
  88              		.section	.text.Touch_Wakeup,"ax",%progbits
  89              		.align	1
  90              		.global	Touch_Wakeup
ARM GAS  C:\Users\emman\AppData\Local\Temp\cc4qekec.s 			page 4


  91              		.thumb
  92              		.thumb_func
  93              		.type	Touch_Wakeup, %function
  94              	Touch_Wakeup:
  95              	.LFB3:
  81:Generated_Source\PSoC5/Touch_PM.c **** 
  82:Generated_Source\PSoC5/Touch_PM.c **** 
  83:Generated_Source\PSoC5/Touch_PM.c **** /*******************************************************************************
  84:Generated_Source\PSoC5/Touch_PM.c **** * Function Name: Touch_Wakeup
  85:Generated_Source\PSoC5/Touch_PM.c **** ********************************************************************************
  86:Generated_Source\PSoC5/Touch_PM.c **** *
  87:Generated_Source\PSoC5/Touch_PM.c **** * Summary:
  88:Generated_Source\PSoC5/Touch_PM.c **** *  Restores the component after waking up from the low power mode.
  89:Generated_Source\PSoC5/Touch_PM.c **** *
  90:Generated_Source\PSoC5/Touch_PM.c **** * Parameters:
  91:Generated_Source\PSoC5/Touch_PM.c **** *  None
  92:Generated_Source\PSoC5/Touch_PM.c **** *
  93:Generated_Source\PSoC5/Touch_PM.c **** * Return:
  94:Generated_Source\PSoC5/Touch_PM.c **** *  None
  95:Generated_Source\PSoC5/Touch_PM.c **** *
  96:Generated_Source\PSoC5/Touch_PM.c **** *******************************************************************************/
  97:Generated_Source\PSoC5/Touch_PM.c **** void Touch_Wakeup(void)  
  98:Generated_Source\PSoC5/Touch_PM.c **** {
  96              		.loc 1 98 0
  97              		.cfi_startproc
  98              		@ args = 0, pretend = 0, frame = 0
  99              		@ frame_needed = 0, uses_anonymous_args = 0
 100              		@ link register save eliminated.
  99:Generated_Source\PSoC5/Touch_PM.c ****     Touch_ADC_Wakeup();
 101              		.loc 1 99 0
 102 0000 FFF7FEBF 		b	Touch_ADC_Wakeup
 103              	.LVL4:
 104              		.cfi_endproc
 105              	.LFE3:
 106              		.size	Touch_Wakeup, .-Touch_Wakeup
 107              		.text
 108              	.Letext0:
 109              		.file 2 "Generated_Source\\PSoC5\\Touch_ADC.h"
 110              		.file 3 "Generated_Source\\PSoC5\\Touch_AMux.h"