ARM GAS  C:\Users\emman\AppData\Local\Temp\ccNpJWxM.s 			page 1


   1              		.syntax unified
   2              		.cpu cortex-m3
   3              		.fpu softvfp
   4              		.eabi_attribute 20, 1
   5              		.eabi_attribute 21, 1
   6              		.eabi_attribute 23, 3
   7              		.eabi_attribute 24, 1
   8              		.eabi_attribute 25, 1
   9              		.eabi_attribute 26, 1
  10              		.eabi_attribute 30, 4
  11              		.eabi_attribute 34, 1
  12              		.eabi_attribute 18, 4
  13              		.thumb
  14              		.syntax unified
  15              		.file	"Touch_ADC.c"
  16              		.text
  17              	.Ltext0:
  18              		.cfi_sections	.debug_frame
  19              		.section	.text.Touch_ADC_InitConfig.part.0,"ax",%progbits
  20              		.align	1
  21              		.thumb
  22              		.thumb_func
  23              		.type	Touch_ADC_InitConfig.part.0, %function
  24              	Touch_ADC_InitConfig.part.0:
  25              	.LFB26:
  26              		.file 1 "Generated_Source\\PSoC5\\Touch_ADC.c"
   1:Generated_Source\PSoC5/Touch_ADC.c **** /*******************************************************************************
   2:Generated_Source\PSoC5/Touch_ADC.c **** * File Name: Touch_ADC.c
   3:Generated_Source\PSoC5/Touch_ADC.c **** * Version 3.20
   4:Generated_Source\PSoC5/Touch_ADC.c **** *
   5:Generated_Source\PSoC5/Touch_ADC.c **** * Description:
   6:Generated_Source\PSoC5/Touch_ADC.c **** *  This file provides the source code to the API for the Delta-Sigma ADC
   7:Generated_Source\PSoC5/Touch_ADC.c **** *  Component.
   8:Generated_Source\PSoC5/Touch_ADC.c **** *
   9:Generated_Source\PSoC5/Touch_ADC.c **** * Note:
  10:Generated_Source\PSoC5/Touch_ADC.c **** *
  11:Generated_Source\PSoC5/Touch_ADC.c **** ********************************************************************************
  12:Generated_Source\PSoC5/Touch_ADC.c **** * Copyright 2008-2015, Cypress Semiconductor Corporation.  All rights reserved.
  13:Generated_Source\PSoC5/Touch_ADC.c **** * You may use this file only in accordance with the license, terms, conditions,
  14:Generated_Source\PSoC5/Touch_ADC.c **** * disclaimers, and limitations in the end user license agreement accompanying
  15:Generated_Source\PSoC5/Touch_ADC.c **** * the software package with which this file was provided.
  16:Generated_Source\PSoC5/Touch_ADC.c **** *******************************************************************************/
  17:Generated_Source\PSoC5/Touch_ADC.c **** 
  18:Generated_Source\PSoC5/Touch_ADC.c **** #include "Touch_ADC.h"
  19:Generated_Source\PSoC5/Touch_ADC.c **** 
  20:Generated_Source\PSoC5/Touch_ADC.c **** #if(Touch_ADC_DEFAULT_INTERNAL_CLK)
  21:Generated_Source\PSoC5/Touch_ADC.c ****     #include "Touch_ADC_theACLK.h"
  22:Generated_Source\PSoC5/Touch_ADC.c **** #endif /* Touch_ADC_DEFAULT_INTERNAL_CLK */
  23:Generated_Source\PSoC5/Touch_ADC.c **** 
  24:Generated_Source\PSoC5/Touch_ADC.c **** #include "Touch_ADC_Ext_CP_Clk.h"
  25:Generated_Source\PSoC5/Touch_ADC.c **** 
  26:Generated_Source\PSoC5/Touch_ADC.c **** #if(Touch_ADC_DEFAULT_INPUT_MODE)
  27:Generated_Source\PSoC5/Touch_ADC.c ****     #include "Touch_ADC_AMux.h"
  28:Generated_Source\PSoC5/Touch_ADC.c **** #endif /* Touch_ADC_DEFAULT_INPUT_MODE */
  29:Generated_Source\PSoC5/Touch_ADC.c **** 
  30:Generated_Source\PSoC5/Touch_ADC.c **** 
  31:Generated_Source\PSoC5/Touch_ADC.c **** /***************************************
ARM GAS  C:\Users\emman\AppData\Local\Temp\ccNpJWxM.s 			page 2


  32:Generated_Source\PSoC5/Touch_ADC.c **** * Global data allocation
  33:Generated_Source\PSoC5/Touch_ADC.c **** ***************************************/
  34:Generated_Source\PSoC5/Touch_ADC.c **** 
  35:Generated_Source\PSoC5/Touch_ADC.c **** /* Software flag for checking conversion completed or not */
  36:Generated_Source\PSoC5/Touch_ADC.c **** volatile uint8 Touch_ADC_convDone = 0u;
  37:Generated_Source\PSoC5/Touch_ADC.c **** 
  38:Generated_Source\PSoC5/Touch_ADC.c **** /* Software flag to stop conversion for single sample conversion mode
  39:Generated_Source\PSoC5/Touch_ADC.c **** *   with resolution above 16 bits 
  40:Generated_Source\PSoC5/Touch_ADC.c **** */
  41:Generated_Source\PSoC5/Touch_ADC.c **** volatile uint8 Touch_ADC_stopConversion = 0u;
  42:Generated_Source\PSoC5/Touch_ADC.c **** 
  43:Generated_Source\PSoC5/Touch_ADC.c **** /* To run the initialization block only at the start up */
  44:Generated_Source\PSoC5/Touch_ADC.c **** uint8 Touch_ADC_initVar = 0u;
  45:Generated_Source\PSoC5/Touch_ADC.c **** 
  46:Generated_Source\PSoC5/Touch_ADC.c **** /* To check whether ADC started or not before switching the configuration */
  47:Generated_Source\PSoC5/Touch_ADC.c **** volatile uint8 Touch_ADC_started = 0u;
  48:Generated_Source\PSoC5/Touch_ADC.c **** 
  49:Generated_Source\PSoC5/Touch_ADC.c **** /* Flag to hold ADC config number. By default active config is 1. */
  50:Generated_Source\PSoC5/Touch_ADC.c **** volatile uint8 Touch_ADC_Config = 1u;
  51:Generated_Source\PSoC5/Touch_ADC.c **** 
  52:Generated_Source\PSoC5/Touch_ADC.c **** volatile int32 Touch_ADC_Offset;
  53:Generated_Source\PSoC5/Touch_ADC.c **** volatile int32 Touch_ADC_CountsPerVolt;
  54:Generated_Source\PSoC5/Touch_ADC.c **** 
  55:Generated_Source\PSoC5/Touch_ADC.c **** 
  56:Generated_Source\PSoC5/Touch_ADC.c **** /***************************************
  57:Generated_Source\PSoC5/Touch_ADC.c **** * Local data allocation
  58:Generated_Source\PSoC5/Touch_ADC.c **** ***************************************/
  59:Generated_Source\PSoC5/Touch_ADC.c **** 
  60:Generated_Source\PSoC5/Touch_ADC.c **** /* The array with precalculated gain compensation coefficients */
  61:Generated_Source\PSoC5/Touch_ADC.c **** static Touch_ADC_GCOR_STRUCT Touch_ADC_gcor[Touch_ADC_DEFAULT_NUM_CONFIGS];
  62:Generated_Source\PSoC5/Touch_ADC.c **** 
  63:Generated_Source\PSoC5/Touch_ADC.c **** 
  64:Generated_Source\PSoC5/Touch_ADC.c **** 
  65:Generated_Source\PSoC5/Touch_ADC.c **** /***************************************
  66:Generated_Source\PSoC5/Touch_ADC.c **** * Forward function references
  67:Generated_Source\PSoC5/Touch_ADC.c **** ***************************************/
  68:Generated_Source\PSoC5/Touch_ADC.c **** static void Touch_ADC_InitConfig(uint8 config) ;
  69:Generated_Source\PSoC5/Touch_ADC.c **** static void Touch_ADC_GainCompensation(uint8 inputRange, uint16 idealDecGain, uint16 idealOddDecGai
  70:Generated_Source\PSoC5/Touch_ADC.c ****                             uint8 resolution, uint8 config) ;
  71:Generated_Source\PSoC5/Touch_ADC.c **** static void Touch_ADC_SetDSMRef0Reg(uint8 value) ;
  72:Generated_Source\PSoC5/Touch_ADC.c **** 
  73:Generated_Source\PSoC5/Touch_ADC.c **** 
  74:Generated_Source\PSoC5/Touch_ADC.c **** /******************************************************************************
  75:Generated_Source\PSoC5/Touch_ADC.c **** * Function Name: Touch_ADC_Init
  76:Generated_Source\PSoC5/Touch_ADC.c **** *******************************************************************************
  77:Generated_Source\PSoC5/Touch_ADC.c **** *
  78:Generated_Source\PSoC5/Touch_ADC.c **** * Summary:
  79:Generated_Source\PSoC5/Touch_ADC.c **** *  Initialize component's parameters to the parameters set by user in the
  80:Generated_Source\PSoC5/Touch_ADC.c **** *  customizer of the component placed onto schematic. Usually called in
  81:Generated_Source\PSoC5/Touch_ADC.c **** * Touch_ADC_Start().
  82:Generated_Source\PSoC5/Touch_ADC.c **** *
  83:Generated_Source\PSoC5/Touch_ADC.c **** *
  84:Generated_Source\PSoC5/Touch_ADC.c **** * Parameters:
  85:Generated_Source\PSoC5/Touch_ADC.c **** *  None
  86:Generated_Source\PSoC5/Touch_ADC.c **** *
  87:Generated_Source\PSoC5/Touch_ADC.c **** * Return:
  88:Generated_Source\PSoC5/Touch_ADC.c **** *  None
ARM GAS  C:\Users\emman\AppData\Local\Temp\ccNpJWxM.s 			page 3


  89:Generated_Source\PSoC5/Touch_ADC.c **** *
  90:Generated_Source\PSoC5/Touch_ADC.c **** *******************************************************************************/
  91:Generated_Source\PSoC5/Touch_ADC.c **** void Touch_ADC_Init(void) 
  92:Generated_Source\PSoC5/Touch_ADC.c **** {
  93:Generated_Source\PSoC5/Touch_ADC.c **** 
  94:Generated_Source\PSoC5/Touch_ADC.c ****     Touch_ADC_Config = 1u;
  95:Generated_Source\PSoC5/Touch_ADC.c ****     Touch_ADC_convDone = 0u;
  96:Generated_Source\PSoC5/Touch_ADC.c **** 
  97:Generated_Source\PSoC5/Touch_ADC.c ****     Touch_ADC_Ext_CP_Clk_SetMode(CYCLK_DUTY);
  98:Generated_Source\PSoC5/Touch_ADC.c **** 
  99:Generated_Source\PSoC5/Touch_ADC.c ****     /* This is only valid if there is an internal clock */
 100:Generated_Source\PSoC5/Touch_ADC.c ****     #if(Touch_ADC_DEFAULT_INTERNAL_CLK)
 101:Generated_Source\PSoC5/Touch_ADC.c ****         Touch_ADC_theACLK_SetMode(CYCLK_DUTY);
 102:Generated_Source\PSoC5/Touch_ADC.c ****     #endif /* Touch_ADC_DEFAULT_INTERNAL_CLK */
 103:Generated_Source\PSoC5/Touch_ADC.c **** 
 104:Generated_Source\PSoC5/Touch_ADC.c ****     #if(Touch_ADC_IRQ_REMOVE == 0u)
 105:Generated_Source\PSoC5/Touch_ADC.c ****         /* Set interrupt priority */
 106:Generated_Source\PSoC5/Touch_ADC.c ****         CyIntSetPriority(Touch_ADC_INTC_NUMBER, Touch_ADC_INTC_PRIOR_NUMBER);
 107:Generated_Source\PSoC5/Touch_ADC.c ****     #endif   /* End Touch_ADC_IRQ_REMOVE */
 108:Generated_Source\PSoC5/Touch_ADC.c **** 
 109:Generated_Source\PSoC5/Touch_ADC.c ****     /* Init static registers with common configuration */
 110:Generated_Source\PSoC5/Touch_ADC.c ****     Touch_ADC_DSM_DEM0_REG    = Touch_ADC_CFG1_DSM_DEM0;
 111:Generated_Source\PSoC5/Touch_ADC.c ****     Touch_ADC_DSM_DEM1_REG    = Touch_ADC_CFG1_DSM_DEM1;
 112:Generated_Source\PSoC5/Touch_ADC.c ****     Touch_ADC_DSM_MISC_REG    = Touch_ADC_CFG1_DSM_MISC;
 113:Generated_Source\PSoC5/Touch_ADC.c ****     Touch_ADC_DSM_CLK_REG    |= Touch_ADC_CFG1_DSM_CLK;
 114:Generated_Source\PSoC5/Touch_ADC.c ****     Touch_ADC_DSM_REF1_REG    = Touch_ADC_CFG1_DSM_REF1;
 115:Generated_Source\PSoC5/Touch_ADC.c **** 
 116:Generated_Source\PSoC5/Touch_ADC.c ****     Touch_ADC_DSM_OUT0_REG    = Touch_ADC_CFG1_DSM_OUT0;
 117:Generated_Source\PSoC5/Touch_ADC.c ****     Touch_ADC_DSM_OUT1_REG    = Touch_ADC_CFG1_DSM_OUT1;
 118:Generated_Source\PSoC5/Touch_ADC.c **** 
 119:Generated_Source\PSoC5/Touch_ADC.c ****     Touch_ADC_DSM_CR0_REG     = Touch_ADC_CFG1_DSM_CR0;
 120:Generated_Source\PSoC5/Touch_ADC.c ****     Touch_ADC_DSM_CR1_REG     = Touch_ADC_CFG1_DSM_CR1;
 121:Generated_Source\PSoC5/Touch_ADC.c **** #if(Touch_ADC_MI_ENABLE != 0u) /* Enable Modulator Input */
 122:Generated_Source\PSoC5/Touch_ADC.c ****     Touch_ADC_DSM_CR3_REG     |= Touch_ADC_DSM_MODBIT_EN;
 123:Generated_Source\PSoC5/Touch_ADC.c **** #else
 124:Generated_Source\PSoC5/Touch_ADC.c ****     Touch_ADC_DSM_CR3_REG     = Touch_ADC_CFG1_DSM_CR3;
 125:Generated_Source\PSoC5/Touch_ADC.c **** #endif /* Touch_ADC_MI_ENABLE != 0u*/    
 126:Generated_Source\PSoC5/Touch_ADC.c ****     Touch_ADC_DSM_CR8_REG     = Touch_ADC_CFG1_DSM_CR8;
 127:Generated_Source\PSoC5/Touch_ADC.c ****     Touch_ADC_DSM_CR9_REG     = Touch_ADC_CFG1_DSM_CR9;
 128:Generated_Source\PSoC5/Touch_ADC.c ****     Touch_ADC_DSM_CR13_REG    = Touch_ADC_CFG1_DSM_CR13;
 129:Generated_Source\PSoC5/Touch_ADC.c **** 
 130:Generated_Source\PSoC5/Touch_ADC.c ****     Touch_ADC_DEC_SR_REG      = Touch_ADC_CFG1_DEC_SR;
 131:Generated_Source\PSoC5/Touch_ADC.c **** 
 132:Generated_Source\PSoC5/Touch_ADC.c ****     /* Calculate Gain compensation coefficients for all configurations */
 133:Generated_Source\PSoC5/Touch_ADC.c ****     Touch_ADC_GainCompensation(Touch_ADC_CFG1_INPUT_RANGE,
 134:Generated_Source\PSoC5/Touch_ADC.c ****                                       Touch_ADC_CFG1_IDEAL_DEC_GAIN,
 135:Generated_Source\PSoC5/Touch_ADC.c ****                                       Touch_ADC_CFG1_IDEAL_ODDDEC_GAIN,
 136:Generated_Source\PSoC5/Touch_ADC.c ****                                       Touch_ADC_CFG1_RESOLUTION,
 137:Generated_Source\PSoC5/Touch_ADC.c ****                                       Touch_ADC_CFG1);
 138:Generated_Source\PSoC5/Touch_ADC.c ****     #if(Touch_ADC_DEFAULT_NUM_CONFIGS > 1)
 139:Generated_Source\PSoC5/Touch_ADC.c ****         Touch_ADC_GainCompensation(Touch_ADC_CFG2_INPUT_RANGE,
 140:Generated_Source\PSoC5/Touch_ADC.c ****                                           Touch_ADC_CFG2_IDEAL_DEC_GAIN,
 141:Generated_Source\PSoC5/Touch_ADC.c ****                                           Touch_ADC_CFG2_IDEAL_ODDDEC_GAIN,
 142:Generated_Source\PSoC5/Touch_ADC.c ****                                           Touch_ADC_CFG2_RESOLUTION,
 143:Generated_Source\PSoC5/Touch_ADC.c ****                                           Touch_ADC_CFG2);
 144:Generated_Source\PSoC5/Touch_ADC.c ****     #endif /* Touch_ADC_DEFAULT_NUM_CONFIGS > 1 */
 145:Generated_Source\PSoC5/Touch_ADC.c ****     #if(Touch_ADC_DEFAULT_NUM_CONFIGS > 2)
ARM GAS  C:\Users\emman\AppData\Local\Temp\ccNpJWxM.s 			page 4


 146:Generated_Source\PSoC5/Touch_ADC.c ****         Touch_ADC_GainCompensation(Touch_ADC_CFG3_INPUT_RANGE,
 147:Generated_Source\PSoC5/Touch_ADC.c ****                                           Touch_ADC_CFG3_IDEAL_DEC_GAIN,
 148:Generated_Source\PSoC5/Touch_ADC.c ****                                           Touch_ADC_CFG3_IDEAL_ODDDEC_GAIN,
 149:Generated_Source\PSoC5/Touch_ADC.c ****                                           Touch_ADC_CFG3_RESOLUTION,
 150:Generated_Source\PSoC5/Touch_ADC.c ****                                           Touch_ADC_CFG3);
 151:Generated_Source\PSoC5/Touch_ADC.c ****     #endif /* Touch_ADC_DEFAULT_NUM_CONFIGS > 2 */
 152:Generated_Source\PSoC5/Touch_ADC.c ****     #if(Touch_ADC_DEFAULT_NUM_CONFIGS > 3)
 153:Generated_Source\PSoC5/Touch_ADC.c ****         Touch_ADC_GainCompensation(Touch_ADC_CFG4_INPUT_RANGE,
 154:Generated_Source\PSoC5/Touch_ADC.c ****                                           Touch_ADC_CFG4_IDEAL_DEC_GAIN,
 155:Generated_Source\PSoC5/Touch_ADC.c ****                                           Touch_ADC_CFG4_IDEAL_ODDDEC_GAIN,
 156:Generated_Source\PSoC5/Touch_ADC.c ****                                           Touch_ADC_CFG4_RESOLUTION,
 157:Generated_Source\PSoC5/Touch_ADC.c ****                                           Touch_ADC_CFG4);
 158:Generated_Source\PSoC5/Touch_ADC.c ****     #endif /* Touch_ADC_DEFAULT_NUM_CONFIGS > 3 */
 159:Generated_Source\PSoC5/Touch_ADC.c **** 
 160:Generated_Source\PSoC5/Touch_ADC.c ****     /* Set GCOR register for config1 */
 161:Generated_Source\PSoC5/Touch_ADC.c ****     Touch_ADC_DEC_GVAL_REG = Touch_ADC_gcor[Touch_ADC_Config - 1u].gval;
 162:Generated_Source\PSoC5/Touch_ADC.c ****     CY_SET_REG16(Touch_ADC_DEC_GCOR_16B_PTR, Touch_ADC_gcor[Touch_ADC_Config - 1u].gcor);
 163:Generated_Source\PSoC5/Touch_ADC.c **** 
 164:Generated_Source\PSoC5/Touch_ADC.c ****     /* Initialize the registers with default customizer settings for config1 */
 165:Generated_Source\PSoC5/Touch_ADC.c ****     Touch_ADC_InitConfig(Touch_ADC_Config);
 166:Generated_Source\PSoC5/Touch_ADC.c **** }
 167:Generated_Source\PSoC5/Touch_ADC.c **** 
 168:Generated_Source\PSoC5/Touch_ADC.c **** 
 169:Generated_Source\PSoC5/Touch_ADC.c **** /******************************************************************************
 170:Generated_Source\PSoC5/Touch_ADC.c **** * Function Name: Touch_ADC_Enable
 171:Generated_Source\PSoC5/Touch_ADC.c **** *******************************************************************************
 172:Generated_Source\PSoC5/Touch_ADC.c **** *
 173:Generated_Source\PSoC5/Touch_ADC.c **** * Summary:
 174:Generated_Source\PSoC5/Touch_ADC.c **** *  Enables the ADC DelSig block operation.
 175:Generated_Source\PSoC5/Touch_ADC.c **** *
 176:Generated_Source\PSoC5/Touch_ADC.c **** *
 177:Generated_Source\PSoC5/Touch_ADC.c **** * Parameters:
 178:Generated_Source\PSoC5/Touch_ADC.c **** *  None
 179:Generated_Source\PSoC5/Touch_ADC.c **** *
 180:Generated_Source\PSoC5/Touch_ADC.c **** * Return:
 181:Generated_Source\PSoC5/Touch_ADC.c **** *  None
 182:Generated_Source\PSoC5/Touch_ADC.c **** *
 183:Generated_Source\PSoC5/Touch_ADC.c **** *******************************************************************************/
 184:Generated_Source\PSoC5/Touch_ADC.c **** void Touch_ADC_Enable(void) 
 185:Generated_Source\PSoC5/Touch_ADC.c **** {
 186:Generated_Source\PSoC5/Touch_ADC.c **** 	uint8 config;
 187:Generated_Source\PSoC5/Touch_ADC.c ****     uint8 enableInterrupts;
 188:Generated_Source\PSoC5/Touch_ADC.c ****     enableInterrupts = CyEnterCriticalSection();
 189:Generated_Source\PSoC5/Touch_ADC.c **** 
 190:Generated_Source\PSoC5/Touch_ADC.c ****     /* Read volatile variable to the local variable */
 191:Generated_Source\PSoC5/Touch_ADC.c ****     config = Touch_ADC_Config;
 192:Generated_Source\PSoC5/Touch_ADC.c ****     
 193:Generated_Source\PSoC5/Touch_ADC.c ****     /* Enable active mode power for ADC */
 194:Generated_Source\PSoC5/Touch_ADC.c ****     Touch_ADC_PWRMGR_DEC_REG |= Touch_ADC_ACT_PWR_DEC_EN;
 195:Generated_Source\PSoC5/Touch_ADC.c ****     Touch_ADC_PWRMGR_DSM_REG |= Touch_ADC_ACT_PWR_DSM_EN;
 196:Generated_Source\PSoC5/Touch_ADC.c **** 
 197:Generated_Source\PSoC5/Touch_ADC.c ****      /* Enable alternative active mode power for ADC */
 198:Generated_Source\PSoC5/Touch_ADC.c ****     Touch_ADC_STBY_PWRMGR_DEC_REG |= Touch_ADC_STBY_PWR_DEC_EN;
 199:Generated_Source\PSoC5/Touch_ADC.c ****     Touch_ADC_STBY_PWRMGR_DSM_REG |= Touch_ADC_STBY_PWR_DSM_EN;
 200:Generated_Source\PSoC5/Touch_ADC.c **** 
 201:Generated_Source\PSoC5/Touch_ADC.c ****     /* Disable PRES, Enable power to VCMBUF0, REFBUF0 and REFBUF1, enable PRES */
 202:Generated_Source\PSoC5/Touch_ADC.c ****     Touch_ADC_RESET_CR4_REG |= Touch_ADC_IGNORE_PRESA1;
ARM GAS  C:\Users\emman\AppData\Local\Temp\ccNpJWxM.s 			page 5


 203:Generated_Source\PSoC5/Touch_ADC.c ****     Touch_ADC_RESET_CR5_REG |= Touch_ADC_IGNORE_PRESA2;
 204:Generated_Source\PSoC5/Touch_ADC.c **** 
 205:Generated_Source\PSoC5/Touch_ADC.c ****     Touch_ADC_DSM_CR17_REG |= (Touch_ADC_DSM_EN_BUF_VREF | Touch_ADC_DSM_EN_BUF_VCM);
 206:Generated_Source\PSoC5/Touch_ADC.c **** 
 207:Generated_Source\PSoC5/Touch_ADC.c ****     /* Code to disable the REFBUF0 if reference chosen is External ref */
 208:Generated_Source\PSoC5/Touch_ADC.c ****     #if (((Touch_ADC_CFG1_REFERENCE == Touch_ADC_EXT_REF_ON_P03) || \
 209:Generated_Source\PSoC5/Touch_ADC.c ****           (Touch_ADC_CFG1_REFERENCE == Touch_ADC_EXT_REF_ON_P32)) || \
 210:Generated_Source\PSoC5/Touch_ADC.c ****          ((Touch_ADC_DEFAULT_NUM_CONFIGS > 1) && \
 211:Generated_Source\PSoC5/Touch_ADC.c ****           ((Touch_ADC_CFG2_REFERENCE == Touch_ADC_EXT_REF_ON_P03) ||  \
 212:Generated_Source\PSoC5/Touch_ADC.c ****            (Touch_ADC_CFG2_REFERENCE == Touch_ADC_EXT_REF_ON_P32))) || \
 213:Generated_Source\PSoC5/Touch_ADC.c ****          ((Touch_ADC_DEFAULT_NUM_CONFIGS > 2) && \
 214:Generated_Source\PSoC5/Touch_ADC.c ****           ((Touch_ADC_CFG3_REFERENCE == Touch_ADC_EXT_REF_ON_P03) ||  \
 215:Generated_Source\PSoC5/Touch_ADC.c ****            (Touch_ADC_CFG3_REFERENCE == Touch_ADC_EXT_REF_ON_P32))) || \
 216:Generated_Source\PSoC5/Touch_ADC.c ****          ((Touch_ADC_DEFAULT_NUM_CONFIGS > 3) && \
 217:Generated_Source\PSoC5/Touch_ADC.c ****           ((Touch_ADC_CFG4_REFERENCE == Touch_ADC_EXT_REF_ON_P03) || \
 218:Generated_Source\PSoC5/Touch_ADC.c ****            (Touch_ADC_CFG4_REFERENCE == Touch_ADC_EXT_REF_ON_P32))))
 219:Generated_Source\PSoC5/Touch_ADC.c ****         if (((config == 1u) &&
 220:Generated_Source\PSoC5/Touch_ADC.c ****             ((Touch_ADC_CFG1_REFERENCE == Touch_ADC_EXT_REF_ON_P03) ||
 221:Generated_Source\PSoC5/Touch_ADC.c ****              (Touch_ADC_CFG1_REFERENCE == Touch_ADC_EXT_REF_ON_P32))) ||
 222:Generated_Source\PSoC5/Touch_ADC.c ****             ((config == 2u) &&
 223:Generated_Source\PSoC5/Touch_ADC.c ****             ((Touch_ADC_CFG2_REFERENCE == Touch_ADC_EXT_REF_ON_P03) ||
 224:Generated_Source\PSoC5/Touch_ADC.c ****              (Touch_ADC_CFG2_REFERENCE == Touch_ADC_EXT_REF_ON_P32))) ||
 225:Generated_Source\PSoC5/Touch_ADC.c ****             ((config == 3u) &&
 226:Generated_Source\PSoC5/Touch_ADC.c ****             ((Touch_ADC_CFG3_REFERENCE == Touch_ADC_EXT_REF_ON_P03) ||
 227:Generated_Source\PSoC5/Touch_ADC.c ****              (Touch_ADC_CFG3_REFERENCE == Touch_ADC_EXT_REF_ON_P32))) ||
 228:Generated_Source\PSoC5/Touch_ADC.c ****             ((config == 4u) &&
 229:Generated_Source\PSoC5/Touch_ADC.c ****             ((Touch_ADC_CFG4_REFERENCE == Touch_ADC_EXT_REF_ON_P03) ||
 230:Generated_Source\PSoC5/Touch_ADC.c ****              (Touch_ADC_CFG4_REFERENCE == Touch_ADC_EXT_REF_ON_P32))))
 231:Generated_Source\PSoC5/Touch_ADC.c ****         {
 232:Generated_Source\PSoC5/Touch_ADC.c ****             /* Disable the REFBUF0 */
 233:Generated_Source\PSoC5/Touch_ADC.c ****             Touch_ADC_DSM_CR17_REG &= (uint8)~Touch_ADC_DSM_EN_BUF_VREF;
 234:Generated_Source\PSoC5/Touch_ADC.c ****         }
 235:Generated_Source\PSoC5/Touch_ADC.c ****     #endif /* External ref */
 236:Generated_Source\PSoC5/Touch_ADC.c **** 
 237:Generated_Source\PSoC5/Touch_ADC.c ****     #if (((Touch_ADC_CFG1_INPUT_RANGE == Touch_ADC_IR_VSSA_TO_2VREF) || \
 238:Generated_Source\PSoC5/Touch_ADC.c ****          ((Touch_ADC_DEFAULT_NUM_CONFIGS > 1) && \
 239:Generated_Source\PSoC5/Touch_ADC.c ****           (Touch_ADC_CFG2_INPUT_RANGE == Touch_ADC_IR_VSSA_TO_2VREF)) || \
 240:Generated_Source\PSoC5/Touch_ADC.c ****          ((Touch_ADC_DEFAULT_NUM_CONFIGS > 2) && \
 241:Generated_Source\PSoC5/Touch_ADC.c ****           (Touch_ADC_CFG3_INPUT_RANGE == Touch_ADC_IR_VSSA_TO_2VREF)) || \
 242:Generated_Source\PSoC5/Touch_ADC.c ****          ((Touch_ADC_DEFAULT_NUM_CONFIGS > 3) && \
 243:Generated_Source\PSoC5/Touch_ADC.c ****           (Touch_ADC_CFG4_INPUT_RANGE == Touch_ADC_IR_VSSA_TO_2VREF))))
 244:Generated_Source\PSoC5/Touch_ADC.c ****         if(((config == 1u) &&
 245:Generated_Source\PSoC5/Touch_ADC.c ****             (Touch_ADC_CFG1_INPUT_RANGE == Touch_ADC_IR_VSSA_TO_2VREF) &&
 246:Generated_Source\PSoC5/Touch_ADC.c ****             ((Touch_ADC_CFG1_REFERENCE != Touch_ADC_EXT_REF_ON_P03) &&
 247:Generated_Source\PSoC5/Touch_ADC.c ****              (Touch_ADC_CFG1_REFERENCE != Touch_ADC_EXT_REF_ON_P32))) ||
 248:Generated_Source\PSoC5/Touch_ADC.c ****              ((config == 2u) &&
 249:Generated_Source\PSoC5/Touch_ADC.c ****               (Touch_ADC_CFG2_INPUT_RANGE == Touch_ADC_IR_VSSA_TO_2VREF) &&
 250:Generated_Source\PSoC5/Touch_ADC.c ****              ((Touch_ADC_CFG2_REFERENCE != Touch_ADC_EXT_REF_ON_P03) &&
 251:Generated_Source\PSoC5/Touch_ADC.c ****              (Touch_ADC_CFG2_REFERENCE != Touch_ADC_EXT_REF_ON_P32))) ||
 252:Generated_Source\PSoC5/Touch_ADC.c ****              ((config == 3u) &&
 253:Generated_Source\PSoC5/Touch_ADC.c ****               (Touch_ADC_CFG3_INPUT_RANGE == Touch_ADC_IR_VSSA_TO_2VREF) &&
 254:Generated_Source\PSoC5/Touch_ADC.c ****              ((Touch_ADC_CFG3_REFERENCE != Touch_ADC_EXT_REF_ON_P03) &&
 255:Generated_Source\PSoC5/Touch_ADC.c ****              (Touch_ADC_CFG3_REFERENCE != Touch_ADC_EXT_REF_ON_P32))) ||
 256:Generated_Source\PSoC5/Touch_ADC.c ****              ((config == 4u) &&
 257:Generated_Source\PSoC5/Touch_ADC.c ****               (Touch_ADC_CFG4_INPUT_RANGE == Touch_ADC_IR_VSSA_TO_2VREF) &&
 258:Generated_Source\PSoC5/Touch_ADC.c ****              ((Touch_ADC_CFG4_REFERENCE != Touch_ADC_EXT_REF_ON_P03) &&
 259:Generated_Source\PSoC5/Touch_ADC.c ****              (Touch_ADC_CFG4_REFERENCE != Touch_ADC_EXT_REF_ON_P32))))
ARM GAS  C:\Users\emman\AppData\Local\Temp\ccNpJWxM.s 			page 6


 260:Generated_Source\PSoC5/Touch_ADC.c ****         {
 261:Generated_Source\PSoC5/Touch_ADC.c ****             /* Enable the REFBUF1 */
 262:Generated_Source\PSoC5/Touch_ADC.c ****             Touch_ADC_DSM_REF0_REG |= Touch_ADC_DSM_EN_BUF_VREF_INN;
 263:Generated_Source\PSoC5/Touch_ADC.c ****         }
 264:Generated_Source\PSoC5/Touch_ADC.c ****     #endif /* VSSA_TO_2VREF */
 265:Generated_Source\PSoC5/Touch_ADC.c ****     if(config != 0u)
 266:Generated_Source\PSoC5/Touch_ADC.c ****     {
 267:Generated_Source\PSoC5/Touch_ADC.c ****         /* Suppress compiler warning */
 268:Generated_Source\PSoC5/Touch_ADC.c ****     }
 269:Generated_Source\PSoC5/Touch_ADC.c **** 
 270:Generated_Source\PSoC5/Touch_ADC.c ****     /* Wait for 3 microseconds */
 271:Generated_Source\PSoC5/Touch_ADC.c ****     CyDelayUs(Touch_ADC_PRES_DELAY_TIME);
 272:Generated_Source\PSoC5/Touch_ADC.c **** 
 273:Generated_Source\PSoC5/Touch_ADC.c ****     /* Enable the press circuit */
 274:Generated_Source\PSoC5/Touch_ADC.c ****     Touch_ADC_RESET_CR4_REG &= (uint8)~Touch_ADC_IGNORE_PRESA1;
 275:Generated_Source\PSoC5/Touch_ADC.c ****     Touch_ADC_RESET_CR5_REG &= (uint8)~Touch_ADC_IGNORE_PRESA2;
 276:Generated_Source\PSoC5/Touch_ADC.c **** 
 277:Generated_Source\PSoC5/Touch_ADC.c ****     /* Enable negative pumps for DSM  */
 278:Generated_Source\PSoC5/Touch_ADC.c ****     Touch_ADC_PUMP_CR1_REG  |= ( Touch_ADC_PUMP_CR1_CLKSEL | Touch_ADC_PUMP_CR1_FORCE );
 279:Generated_Source\PSoC5/Touch_ADC.c **** 
 280:Generated_Source\PSoC5/Touch_ADC.c ****     /* Enable Modulator Chopping if required */
 281:Generated_Source\PSoC5/Touch_ADC.c ****     Touch_ADC_DSM_CR2_REG = Touch_ADC_CFG1_DSM_CR2;
 282:Generated_Source\PSoC5/Touch_ADC.c **** 
 283:Generated_Source\PSoC5/Touch_ADC.c ****     /* This is only valid if there is an internal clock */
 284:Generated_Source\PSoC5/Touch_ADC.c ****     #if(Touch_ADC_DEFAULT_INTERNAL_CLK)
 285:Generated_Source\PSoC5/Touch_ADC.c ****         Touch_ADC_PWRMGR_CLK_REG |= Touch_ADC_ACT_PWR_CLK_EN;
 286:Generated_Source\PSoC5/Touch_ADC.c ****         Touch_ADC_STBY_PWRMGR_CLK_REG |= Touch_ADC_STBY_PWR_CLK_EN;
 287:Generated_Source\PSoC5/Touch_ADC.c ****     #endif /* Touch_ADC_DEFAULT_INTERNAL_CLK */
 288:Generated_Source\PSoC5/Touch_ADC.c **** 
 289:Generated_Source\PSoC5/Touch_ADC.c ****     /* Enable the active and alternate active power for charge pump clock */
 290:Generated_Source\PSoC5/Touch_ADC.c ****     Touch_ADC_PWRMGR_CHARGE_PUMP_CLK_REG |= Touch_ADC_ACT_PWR_CHARGE_PUMP_CLK_EN;
 291:Generated_Source\PSoC5/Touch_ADC.c ****     Touch_ADC_STBY_PWRMGR_CHARGE_PUMP_CLK_REG |= Touch_ADC_STBY_PWR_CHARGE_PUMP_CLK_EN;
 292:Generated_Source\PSoC5/Touch_ADC.c **** 
 293:Generated_Source\PSoC5/Touch_ADC.c ****     #if(Touch_ADC_IRQ_REMOVE == 0u)
 294:Generated_Source\PSoC5/Touch_ADC.c ****         /* Clear a pending interrupt */
 295:Generated_Source\PSoC5/Touch_ADC.c ****         CyIntClearPending(Touch_ADC_INTC_NUMBER);
 296:Generated_Source\PSoC5/Touch_ADC.c ****         /* Enable interrupt */
 297:Generated_Source\PSoC5/Touch_ADC.c ****         CyIntEnable(Touch_ADC_INTC_NUMBER);
 298:Generated_Source\PSoC5/Touch_ADC.c ****     #endif   /* End Touch_ADC_IRQ_REMOVE */
 299:Generated_Source\PSoC5/Touch_ADC.c **** 
 300:Generated_Source\PSoC5/Touch_ADC.c ****     CyExitCriticalSection(enableInterrupts);
 301:Generated_Source\PSoC5/Touch_ADC.c **** 
 302:Generated_Source\PSoC5/Touch_ADC.c **** }
 303:Generated_Source\PSoC5/Touch_ADC.c **** 
 304:Generated_Source\PSoC5/Touch_ADC.c **** 
 305:Generated_Source\PSoC5/Touch_ADC.c **** /*******************************************************************************
 306:Generated_Source\PSoC5/Touch_ADC.c **** * Function Name: Touch_ADC_Start
 307:Generated_Source\PSoC5/Touch_ADC.c **** ********************************************************************************
 308:Generated_Source\PSoC5/Touch_ADC.c **** *
 309:Generated_Source\PSoC5/Touch_ADC.c **** * Summary:
 310:Generated_Source\PSoC5/Touch_ADC.c **** *  Performs all required initialization for this component and enables
 311:Generated_Source\PSoC5/Touch_ADC.c **** *  the power. It configure all the register the first time it is called.
 312:Generated_Source\PSoC5/Touch_ADC.c **** *  Subsequent calls of the Start function only enable the ADC and turn
 313:Generated_Source\PSoC5/Touch_ADC.c **** *  on the power. If multiple configurations are selected, it will
 314:Generated_Source\PSoC5/Touch_ADC.c **** *  configure the ADC for configuration 1 by default, unless the
 315:Generated_Source\PSoC5/Touch_ADC.c **** *  Touch_ADC_SelectConfiguration( ) function has been called to change
 316:Generated_Source\PSoC5/Touch_ADC.c **** *  the default setting.
ARM GAS  C:\Users\emman\AppData\Local\Temp\ccNpJWxM.s 			page 7


 317:Generated_Source\PSoC5/Touch_ADC.c **** *
 318:Generated_Source\PSoC5/Touch_ADC.c **** * Parameters:
 319:Generated_Source\PSoC5/Touch_ADC.c **** *  None
 320:Generated_Source\PSoC5/Touch_ADC.c **** *
 321:Generated_Source\PSoC5/Touch_ADC.c **** * Return:
 322:Generated_Source\PSoC5/Touch_ADC.c **** *  None
 323:Generated_Source\PSoC5/Touch_ADC.c **** *
 324:Generated_Source\PSoC5/Touch_ADC.c **** * Global variables:
 325:Generated_Source\PSoC5/Touch_ADC.c **** *  Touch_ADC_initVar:  Used to check the initial configuration,
 326:Generated_Source\PSoC5/Touch_ADC.c **** *  modified when this function is called for the first time.
 327:Generated_Source\PSoC5/Touch_ADC.c **** *
 328:Generated_Source\PSoC5/Touch_ADC.c **** *******************************************************************************/
 329:Generated_Source\PSoC5/Touch_ADC.c **** void Touch_ADC_Start(void) 
 330:Generated_Source\PSoC5/Touch_ADC.c **** {
 331:Generated_Source\PSoC5/Touch_ADC.c ****     if(Touch_ADC_initVar == 0u)
 332:Generated_Source\PSoC5/Touch_ADC.c ****     {
 333:Generated_Source\PSoC5/Touch_ADC.c ****         if(Touch_ADC_started == 0u)
 334:Generated_Source\PSoC5/Touch_ADC.c ****         {
 335:Generated_Source\PSoC5/Touch_ADC.c ****             Touch_ADC_Init();
 336:Generated_Source\PSoC5/Touch_ADC.c ****         }
 337:Generated_Source\PSoC5/Touch_ADC.c ****         Touch_ADC_initVar = 1u;
 338:Generated_Source\PSoC5/Touch_ADC.c ****     }
 339:Generated_Source\PSoC5/Touch_ADC.c **** 
 340:Generated_Source\PSoC5/Touch_ADC.c ****     /* Enable the ADC */
 341:Generated_Source\PSoC5/Touch_ADC.c ****     Touch_ADC_Enable();
 342:Generated_Source\PSoC5/Touch_ADC.c **** }
 343:Generated_Source\PSoC5/Touch_ADC.c **** 
 344:Generated_Source\PSoC5/Touch_ADC.c **** 
 345:Generated_Source\PSoC5/Touch_ADC.c **** /*******************************************************************************
 346:Generated_Source\PSoC5/Touch_ADC.c **** * Function Name: Touch_ADC_Stop
 347:Generated_Source\PSoC5/Touch_ADC.c **** ********************************************************************************
 348:Generated_Source\PSoC5/Touch_ADC.c **** *
 349:Generated_Source\PSoC5/Touch_ADC.c **** * Summary:
 350:Generated_Source\PSoC5/Touch_ADC.c **** *  This function stops and powers down the ADC component and the internal
 351:Generated_Source\PSoC5/Touch_ADC.c **** *  clock if the external clock is not selected. If an external clock is
 352:Generated_Source\PSoC5/Touch_ADC.c **** *  used, it is up to the designer to power down the external clock it
 353:Generated_Source\PSoC5/Touch_ADC.c **** *  required.
 354:Generated_Source\PSoC5/Touch_ADC.c **** *
 355:Generated_Source\PSoC5/Touch_ADC.c **** * Parameters:
 356:Generated_Source\PSoC5/Touch_ADC.c **** *  None
 357:Generated_Source\PSoC5/Touch_ADC.c **** *
 358:Generated_Source\PSoC5/Touch_ADC.c **** * Return:
 359:Generated_Source\PSoC5/Touch_ADC.c **** *  None
 360:Generated_Source\PSoC5/Touch_ADC.c **** *
 361:Generated_Source\PSoC5/Touch_ADC.c **** *******************************************************************************/
 362:Generated_Source\PSoC5/Touch_ADC.c **** void Touch_ADC_Stop(void) 
 363:Generated_Source\PSoC5/Touch_ADC.c **** {
 364:Generated_Source\PSoC5/Touch_ADC.c ****     uint8 enableInterrupts;
 365:Generated_Source\PSoC5/Touch_ADC.c ****     enableInterrupts = CyEnterCriticalSection();
 366:Generated_Source\PSoC5/Touch_ADC.c **** 
 367:Generated_Source\PSoC5/Touch_ADC.c ****     /* Stop conversions */
 368:Generated_Source\PSoC5/Touch_ADC.c ****     Touch_ADC_DEC_CR_REG &= (uint8)~Touch_ADC_DEC_START_CONV;
 369:Generated_Source\PSoC5/Touch_ADC.c ****     Touch_ADC_DEC_SR_REG |=  Touch_ADC_DEC_INTR_CLEAR;
 370:Generated_Source\PSoC5/Touch_ADC.c **** 
 371:Generated_Source\PSoC5/Touch_ADC.c ****     /* Disable PRES, Disable power to VCMBUF0, REFBUF0 and REFBUF1,
 372:Generated_Source\PSoC5/Touch_ADC.c ****        enable PRES */
 373:Generated_Source\PSoC5/Touch_ADC.c ****     Touch_ADC_RESET_CR4_REG |= Touch_ADC_IGNORE_PRESA1;
ARM GAS  C:\Users\emman\AppData\Local\Temp\ccNpJWxM.s 			page 8


 374:Generated_Source\PSoC5/Touch_ADC.c ****     Touch_ADC_RESET_CR5_REG |= Touch_ADC_IGNORE_PRESA2;
 375:Generated_Source\PSoC5/Touch_ADC.c **** 
 376:Generated_Source\PSoC5/Touch_ADC.c ****     Touch_ADC_DSM_CR17_REG &= (uint8)~(Touch_ADC_DSM_EN_BUF_VREF | Touch_ADC_DSM_EN_BUF_VCM);
 377:Generated_Source\PSoC5/Touch_ADC.c ****     Touch_ADC_DSM_REF0_REG &= (uint8)~Touch_ADC_DSM_EN_BUF_VREF_INN;
 378:Generated_Source\PSoC5/Touch_ADC.c **** 
 379:Generated_Source\PSoC5/Touch_ADC.c ****     /* Wait for 3 microseconds. */
 380:Generated_Source\PSoC5/Touch_ADC.c ****     CyDelayUs(Touch_ADC_PRES_DELAY_TIME);
 381:Generated_Source\PSoC5/Touch_ADC.c **** 
 382:Generated_Source\PSoC5/Touch_ADC.c ****     /* Enable the press circuit */
 383:Generated_Source\PSoC5/Touch_ADC.c ****     Touch_ADC_RESET_CR4_REG &= (uint8)~Touch_ADC_IGNORE_PRESA1;
 384:Generated_Source\PSoC5/Touch_ADC.c ****     Touch_ADC_RESET_CR5_REG &= (uint8)~Touch_ADC_IGNORE_PRESA2;
 385:Generated_Source\PSoC5/Touch_ADC.c **** 
 386:Generated_Source\PSoC5/Touch_ADC.c ****     /* Disable power to the ADC */
 387:Generated_Source\PSoC5/Touch_ADC.c ****     Touch_ADC_PWRMGR_DSM_REG &= (uint8)~Touch_ADC_ACT_PWR_DSM_EN;
 388:Generated_Source\PSoC5/Touch_ADC.c **** 
 389:Generated_Source\PSoC5/Touch_ADC.c ****     /* Disable power to Decimator block */
 390:Generated_Source\PSoC5/Touch_ADC.c ****     Touch_ADC_PWRMGR_DEC_REG &= (uint8)~Touch_ADC_ACT_PWR_DEC_EN;
 391:Generated_Source\PSoC5/Touch_ADC.c **** 
 392:Generated_Source\PSoC5/Touch_ADC.c ****     /* Disable alternative active power to the ADC */
 393:Generated_Source\PSoC5/Touch_ADC.c ****     Touch_ADC_STBY_PWRMGR_DEC_REG &= (uint8)~Touch_ADC_STBY_PWR_DEC_EN;
 394:Generated_Source\PSoC5/Touch_ADC.c ****     Touch_ADC_STBY_PWRMGR_DSM_REG &= (uint8)~Touch_ADC_STBY_PWR_DSM_EN;
 395:Generated_Source\PSoC5/Touch_ADC.c **** 
 396:Generated_Source\PSoC5/Touch_ADC.c ****    /* Disable negative pumps for DSM  */
 397:Generated_Source\PSoC5/Touch_ADC.c ****     Touch_ADC_PUMP_CR1_REG &= (uint8)~(Touch_ADC_PUMP_CR1_CLKSEL | Touch_ADC_PUMP_CR1_FORCE );
 398:Generated_Source\PSoC5/Touch_ADC.c **** 
 399:Generated_Source\PSoC5/Touch_ADC.c ****     /* This is only valid if there is an internal clock */
 400:Generated_Source\PSoC5/Touch_ADC.c ****     #if(Touch_ADC_DEFAULT_INTERNAL_CLK)
 401:Generated_Source\PSoC5/Touch_ADC.c ****         Touch_ADC_PWRMGR_CLK_REG &= (uint8)~Touch_ADC_ACT_PWR_CLK_EN;
 402:Generated_Source\PSoC5/Touch_ADC.c ****         Touch_ADC_STBY_PWRMGR_CLK_REG &= (uint8)~Touch_ADC_STBY_PWR_CLK_EN;
 403:Generated_Source\PSoC5/Touch_ADC.c ****     #endif /* Touch_ADC_DEFAULT_INTERNAL_CLK */
 404:Generated_Source\PSoC5/Touch_ADC.c **** 
 405:Generated_Source\PSoC5/Touch_ADC.c ****     /* Disable Modulator Chopping */
 406:Generated_Source\PSoC5/Touch_ADC.c ****     Touch_ADC_DSM_CR2_REG &= (uint8)~Touch_ADC_DSM_MOD_CHOP_EN;
 407:Generated_Source\PSoC5/Touch_ADC.c ****     /* Disable power to charge pump clock */
 408:Generated_Source\PSoC5/Touch_ADC.c ****     Touch_ADC_PWRMGR_CHARGE_PUMP_CLK_REG &= (uint8)~Touch_ADC_ACT_PWR_CHARGE_PUMP_CLK_EN;
 409:Generated_Source\PSoC5/Touch_ADC.c ****     Touch_ADC_STBY_PWRMGR_CHARGE_PUMP_CLK_REG &= (uint8)~Touch_ADC_STBY_PWR_CHARGE_PUMP_CLK_EN;
 410:Generated_Source\PSoC5/Touch_ADC.c ****     
 411:Generated_Source\PSoC5/Touch_ADC.c ****     CyExitCriticalSection(enableInterrupts);
 412:Generated_Source\PSoC5/Touch_ADC.c **** }
 413:Generated_Source\PSoC5/Touch_ADC.c **** 
 414:Generated_Source\PSoC5/Touch_ADC.c **** 
 415:Generated_Source\PSoC5/Touch_ADC.c **** /*******************************************************************************
 416:Generated_Source\PSoC5/Touch_ADC.c **** * Function Name: Touch_ADC_SetBufferGain
 417:Generated_Source\PSoC5/Touch_ADC.c **** ********************************************************************************
 418:Generated_Source\PSoC5/Touch_ADC.c **** *
 419:Generated_Source\PSoC5/Touch_ADC.c **** * Summary:
 420:Generated_Source\PSoC5/Touch_ADC.c **** *  Sets input buffer gain.
 421:Generated_Source\PSoC5/Touch_ADC.c **** *
 422:Generated_Source\PSoC5/Touch_ADC.c **** * Parameters:
 423:Generated_Source\PSoC5/Touch_ADC.c **** *  gain:  Two bit value to select a gain of 1, 2, 4, or 8.
 424:Generated_Source\PSoC5/Touch_ADC.c **** *
 425:Generated_Source\PSoC5/Touch_ADC.c **** * Return:
 426:Generated_Source\PSoC5/Touch_ADC.c **** *  None
 427:Generated_Source\PSoC5/Touch_ADC.c **** *
 428:Generated_Source\PSoC5/Touch_ADC.c **** *******************************************************************************/
 429:Generated_Source\PSoC5/Touch_ADC.c **** void Touch_ADC_SetBufferGain(uint8 gain) 
 430:Generated_Source\PSoC5/Touch_ADC.c **** {
ARM GAS  C:\Users\emman\AppData\Local\Temp\ccNpJWxM.s 			page 9


 431:Generated_Source\PSoC5/Touch_ADC.c ****     uint8 tmpReg;
 432:Generated_Source\PSoC5/Touch_ADC.c ****     tmpReg = Touch_ADC_DSM_BUF1_REG & (uint8)~Touch_ADC_DSM_GAIN_MASK;
 433:Generated_Source\PSoC5/Touch_ADC.c ****     tmpReg |= (uint8)(gain << Touch_ADC_DSM_GAIN_SHIFT) & Touch_ADC_DSM_GAIN_MASK;
 434:Generated_Source\PSoC5/Touch_ADC.c ****     Touch_ADC_DSM_BUF1_REG = tmpReg;
 435:Generated_Source\PSoC5/Touch_ADC.c **** }
 436:Generated_Source\PSoC5/Touch_ADC.c **** 
 437:Generated_Source\PSoC5/Touch_ADC.c **** 
 438:Generated_Source\PSoC5/Touch_ADC.c **** /*******************************************************************************
 439:Generated_Source\PSoC5/Touch_ADC.c **** * Function Name: Touch_ADC_SetCoherency
 440:Generated_Source\PSoC5/Touch_ADC.c **** ********************************************************************************
 441:Generated_Source\PSoC5/Touch_ADC.c **** *
 442:Generated_Source\PSoC5/Touch_ADC.c **** * Summary:
 443:Generated_Source\PSoC5/Touch_ADC.c **** *  This function allows the user to change which of the ADC's 3 word
 444:Generated_Source\PSoC5/Touch_ADC.c **** *  result will trigger a coherency unlock. The ADC's result will not be
 445:Generated_Source\PSoC5/Touch_ADC.c **** *  updated until the set byte is read either by the ADC or DMA. 
 446:Generated_Source\PSoC5/Touch_ADC.c **** *  By default the LSB is the coherency byte for right alignment data format. 
 447:Generated_Source\PSoC5/Touch_ADC.c **** *  The middle or high byte is set automatically depend on left alignment 
 448:Generated_Source\PSoC5/Touch_ADC.c **** *  configuration for DMA data transfer.
 449:Generated_Source\PSoC5/Touch_ADC.c **** *  If DMA or if a custom API requires different byte to be read the last,
 450:Generated_Source\PSoC5/Touch_ADC.c **** *  this API should be used to set the last byte of the ADC result that is read. 
 451:Generated_Source\PSoC5/Touch_ADC.c **** *  If a multibyte read is performed either by DMA or the ARM processor, the
 452:Generated_Source\PSoC5/Touch_ADC.c **** *  coherency can be set to any byte in the last word read.
 453:Generated_Source\PSoC5/Touch_ADC.c **** *
 454:Generated_Source\PSoC5/Touch_ADC.c **** * Parameters:
 455:Generated_Source\PSoC5/Touch_ADC.c **** *  coherency:  Two bit value to set the coherency bit.
 456:Generated_Source\PSoC5/Touch_ADC.c **** *           00-Coherency checking off
 457:Generated_Source\PSoC5/Touch_ADC.c **** *           01-low byte is key byte
 458:Generated_Source\PSoC5/Touch_ADC.c **** *           02-middle byte is the key byte
 459:Generated_Source\PSoC5/Touch_ADC.c **** *           03-high byte is the key byte
 460:Generated_Source\PSoC5/Touch_ADC.c **** *
 461:Generated_Source\PSoC5/Touch_ADC.c **** * Return:
 462:Generated_Source\PSoC5/Touch_ADC.c **** *  None
 463:Generated_Source\PSoC5/Touch_ADC.c **** *
 464:Generated_Source\PSoC5/Touch_ADC.c **** *******************************************************************************/
 465:Generated_Source\PSoC5/Touch_ADC.c **** void Touch_ADC_SetCoherency(uint8 coherency) 
 466:Generated_Source\PSoC5/Touch_ADC.c **** {
 467:Generated_Source\PSoC5/Touch_ADC.c ****     uint8 tmpReg;
 468:Generated_Source\PSoC5/Touch_ADC.c **** 
 469:Generated_Source\PSoC5/Touch_ADC.c ****     tmpReg = Touch_ADC_DEC_COHER_REG & (uint8)~Touch_ADC_DEC_SAMP_KEY_MASK;
 470:Generated_Source\PSoC5/Touch_ADC.c ****     tmpReg |= coherency & Touch_ADC_DEC_SAMP_KEY_MASK;
 471:Generated_Source\PSoC5/Touch_ADC.c ****     Touch_ADC_DEC_COHER_REG = tmpReg;
 472:Generated_Source\PSoC5/Touch_ADC.c **** }
 473:Generated_Source\PSoC5/Touch_ADC.c **** 
 474:Generated_Source\PSoC5/Touch_ADC.c **** 
 475:Generated_Source\PSoC5/Touch_ADC.c **** /*******************************************************************************
 476:Generated_Source\PSoC5/Touch_ADC.c **** * Function Name: Touch_ADC_SetGCOR
 477:Generated_Source\PSoC5/Touch_ADC.c **** ********************************************************************************
 478:Generated_Source\PSoC5/Touch_ADC.c **** *
 479:Generated_Source\PSoC5/Touch_ADC.c **** * Summary:
 480:Generated_Source\PSoC5/Touch_ADC.c **** *  Calculates a new GCOR value and writes it into the GCOR register. 
 481:Generated_Source\PSoC5/Touch_ADC.c **** *  The GCOR value is a 16-bit value that represents a gain of 0 to 2. 
 482:Generated_Source\PSoC5/Touch_ADC.c **** *  The ADC result is multiplied by this value before it is placed in the ADC 
 483:Generated_Source\PSoC5/Touch_ADC.c **** *  output registers. The numerical format for the GCOR value is:
 484:Generated_Source\PSoC5/Touch_ADC.c **** *  0x0000 -> 0.000
 485:Generated_Source\PSoC5/Touch_ADC.c **** *  0x8000 -> 1.000
 486:Generated_Source\PSoC5/Touch_ADC.c **** *  0xFFFF -> 1.99997
 487:Generated_Source\PSoC5/Touch_ADC.c **** *  When executing the function, the old GCOR value is multiplied by
ARM GAS  C:\Users\emman\AppData\Local\Temp\ccNpJWxM.s 			page 10


 488:Generated_Source\PSoC5/Touch_ADC.c **** *  gainAdjust and reloaded into the GCOR register.
 489:Generated_Source\PSoC5/Touch_ADC.c **** *
 490:Generated_Source\PSoC5/Touch_ADC.c **** * Parameters:
 491:Generated_Source\PSoC5/Touch_ADC.c **** *  gainAdjust:  floating point value to set GCOR registers.
 492:Generated_Source\PSoC5/Touch_ADC.c **** *
 493:Generated_Source\PSoC5/Touch_ADC.c **** * Return:
 494:Generated_Source\PSoC5/Touch_ADC.c **** *  uint8: 0 - if GCOR value is within the expected range.
 495:Generated_Source\PSoC5/Touch_ADC.c **** *         1 - the correction value is outside GCOR value range of
 496:Generated_Source\PSoC5/Touch_ADC.c **** *             0.00 to 1.9999.
 497:Generated_Source\PSoC5/Touch_ADC.c **** *
 498:Generated_Source\PSoC5/Touch_ADC.c **** * Side Effects:  The GVAL register is set to the amount of valid bits in the
 499:Generated_Source\PSoC5/Touch_ADC.c **** *                GCOR  register minus one. If GVAL is 15 (0x0F), all 16 bits
 500:Generated_Source\PSoC5/Touch_ADC.c **** *                of the GCOR registers will be valid. If for example GVAL is
 501:Generated_Source\PSoC5/Touch_ADC.c **** *                11 (0x0B) only 12 bits will be valid. The least 4 bits will
 502:Generated_Source\PSoC5/Touch_ADC.c **** *                be lost when the GCOR value is shifted 4 places to the right.
 503:Generated_Source\PSoC5/Touch_ADC.c **** *
 504:Generated_Source\PSoC5/Touch_ADC.c **** ******************************************************************************/
 505:Generated_Source\PSoC5/Touch_ADC.c **** uint8 Touch_ADC_SetGCOR(float32 gainAdjust) 
 506:Generated_Source\PSoC5/Touch_ADC.c **** {
 507:Generated_Source\PSoC5/Touch_ADC.c ****     uint16 tmpReg;
 508:Generated_Source\PSoC5/Touch_ADC.c ****     uint8 status;
 509:Generated_Source\PSoC5/Touch_ADC.c ****     float32 tmpValue;
 510:Generated_Source\PSoC5/Touch_ADC.c **** 
 511:Generated_Source\PSoC5/Touch_ADC.c ****     tmpReg = Touch_ADC_gcor[Touch_ADC_Config - 1u].gcor;
 512:Generated_Source\PSoC5/Touch_ADC.c ****     tmpValue = ((float32)tmpReg / (float32)Touch_ADC_IDEAL_GAIN_CONST);
 513:Generated_Source\PSoC5/Touch_ADC.c ****     tmpValue = tmpValue * gainAdjust;
 514:Generated_Source\PSoC5/Touch_ADC.c **** 
 515:Generated_Source\PSoC5/Touch_ADC.c ****     if (tmpValue > 1.9999)
 516:Generated_Source\PSoC5/Touch_ADC.c ****     {
 517:Generated_Source\PSoC5/Touch_ADC.c ****         status = 1u;
 518:Generated_Source\PSoC5/Touch_ADC.c ****     }
 519:Generated_Source\PSoC5/Touch_ADC.c ****     else
 520:Generated_Source\PSoC5/Touch_ADC.c ****     {
 521:Generated_Source\PSoC5/Touch_ADC.c ****         tmpValue *= (float32)Touch_ADC_IDEAL_GAIN_CONST;
 522:Generated_Source\PSoC5/Touch_ADC.c **** 		tmpReg = (uint16)tmpValue;
 523:Generated_Source\PSoC5/Touch_ADC.c ****         CY_SET_REG16(Touch_ADC_DEC_GCOR_16B_PTR, tmpReg);
 524:Generated_Source\PSoC5/Touch_ADC.c ****         /* Update gain array to be used by SelectConfiguration() API */
 525:Generated_Source\PSoC5/Touch_ADC.c ****        Touch_ADC_gcor[Touch_ADC_Config - 1u].gcor = tmpReg;
 526:Generated_Source\PSoC5/Touch_ADC.c **** 
 527:Generated_Source\PSoC5/Touch_ADC.c ****         status = 0u;
 528:Generated_Source\PSoC5/Touch_ADC.c **** 
 529:Generated_Source\PSoC5/Touch_ADC.c ****     }
 530:Generated_Source\PSoC5/Touch_ADC.c ****     return(status);
 531:Generated_Source\PSoC5/Touch_ADC.c **** }
 532:Generated_Source\PSoC5/Touch_ADC.c **** 
 533:Generated_Source\PSoC5/Touch_ADC.c **** 
 534:Generated_Source\PSoC5/Touch_ADC.c **** /******************************************************************************
 535:Generated_Source\PSoC5/Touch_ADC.c **** * Function Name: Touch_ADC_ReadGCOR
 536:Generated_Source\PSoC5/Touch_ADC.c **** *******************************************************************************
 537:Generated_Source\PSoC5/Touch_ADC.c **** *
 538:Generated_Source\PSoC5/Touch_ADC.c **** * Summary:
 539:Generated_Source\PSoC5/Touch_ADC.c **** *  This API returns the current GCOR register value, normalized based on the
 540:Generated_Source\PSoC5/Touch_ADC.c **** *  GVAL register settings.
 541:Generated_Source\PSoC5/Touch_ADC.c **** *  For example, if the GCOR value is 0x0812 and the GVAL register is set to 
 542:Generated_Source\PSoC5/Touch_ADC.c **** *  11 (0x0B) then the returned value will be shifted by for bits to the left.
 543:Generated_Source\PSoC5/Touch_ADC.c **** *  (Actual GCOR value = 0x0812, returned value = 0x8120)
 544:Generated_Source\PSoC5/Touch_ADC.c **** *
ARM GAS  C:\Users\emman\AppData\Local\Temp\ccNpJWxM.s 			page 11


 545:Generated_Source\PSoC5/Touch_ADC.c **** * Parameters:
 546:Generated_Source\PSoC5/Touch_ADC.c **** *  None
 547:Generated_Source\PSoC5/Touch_ADC.c **** *
 548:Generated_Source\PSoC5/Touch_ADC.c **** * Return:
 549:Generated_Source\PSoC5/Touch_ADC.c **** *  uint16:  Normalized GCOR value.
 550:Generated_Source\PSoC5/Touch_ADC.c **** *
 551:Generated_Source\PSoC5/Touch_ADC.c **** *******************************************************************************/
 552:Generated_Source\PSoC5/Touch_ADC.c **** uint16 Touch_ADC_ReadGCOR(void) 
 553:Generated_Source\PSoC5/Touch_ADC.c **** {
 554:Generated_Source\PSoC5/Touch_ADC.c ****     uint8 gValue;
 555:Generated_Source\PSoC5/Touch_ADC.c ****     uint16 gcorValue;
 556:Generated_Source\PSoC5/Touch_ADC.c **** 
 557:Generated_Source\PSoC5/Touch_ADC.c ****     gValue = Touch_ADC_DEC_GVAL_REG;
 558:Generated_Source\PSoC5/Touch_ADC.c ****     gcorValue = CY_GET_REG16(Touch_ADC_DEC_GCOR_16B_PTR);
 559:Generated_Source\PSoC5/Touch_ADC.c **** 
 560:Generated_Source\PSoC5/Touch_ADC.c ****     if (gValue < Touch_ADC_MAX_GVAL)
 561:Generated_Source\PSoC5/Touch_ADC.c ****     {
 562:Generated_Source\PSoC5/Touch_ADC.c ****         gcorValue <<= Touch_ADC_MAX_GVAL - gValue;
 563:Generated_Source\PSoC5/Touch_ADC.c ****     }
 564:Generated_Source\PSoC5/Touch_ADC.c **** 
 565:Generated_Source\PSoC5/Touch_ADC.c ****     return gcorValue;
 566:Generated_Source\PSoC5/Touch_ADC.c **** }
 567:Generated_Source\PSoC5/Touch_ADC.c **** 
 568:Generated_Source\PSoC5/Touch_ADC.c **** 
 569:Generated_Source\PSoC5/Touch_ADC.c **** /*******************************************************************************
 570:Generated_Source\PSoC5/Touch_ADC.c **** * Function Name: Touch_ADC_StartConvert
 571:Generated_Source\PSoC5/Touch_ADC.c **** ********************************************************************************
 572:Generated_Source\PSoC5/Touch_ADC.c **** *
 573:Generated_Source\PSoC5/Touch_ADC.c **** * Summary:
 574:Generated_Source\PSoC5/Touch_ADC.c **** *  Forces the ADC to initiate a conversion. If in the "Single Sample"
 575:Generated_Source\PSoC5/Touch_ADC.c **** *  mode, one conversion will be performed then the ADC will halt. If in
 576:Generated_Source\PSoC5/Touch_ADC.c **** *  one of the other three conversion modes, the ADC will run
 577:Generated_Source\PSoC5/Touch_ADC.c **** *  continuously until the ADC_Stop() or ADC_StopConvert() is called.
 578:Generated_Source\PSoC5/Touch_ADC.c **** *
 579:Generated_Source\PSoC5/Touch_ADC.c **** * Parameters:
 580:Generated_Source\PSoC5/Touch_ADC.c **** *  None
 581:Generated_Source\PSoC5/Touch_ADC.c **** *
 582:Generated_Source\PSoC5/Touch_ADC.c **** * Return:
 583:Generated_Source\PSoC5/Touch_ADC.c **** *  None
 584:Generated_Source\PSoC5/Touch_ADC.c **** *
 585:Generated_Source\PSoC5/Touch_ADC.c **** *******************************************************************************/
 586:Generated_Source\PSoC5/Touch_ADC.c **** void Touch_ADC_StartConvert(void) 
 587:Generated_Source\PSoC5/Touch_ADC.c **** {
 588:Generated_Source\PSoC5/Touch_ADC.c ****     /* Start the conversion */
 589:Generated_Source\PSoC5/Touch_ADC.c ****     Touch_ADC_DEC_CR_REG |= Touch_ADC_DEC_START_CONV;
 590:Generated_Source\PSoC5/Touch_ADC.c **** }
 591:Generated_Source\PSoC5/Touch_ADC.c **** 
 592:Generated_Source\PSoC5/Touch_ADC.c **** 
 593:Generated_Source\PSoC5/Touch_ADC.c **** /*******************************************************************************
 594:Generated_Source\PSoC5/Touch_ADC.c **** * Function Name: Touch_ADC_StopConvert
 595:Generated_Source\PSoC5/Touch_ADC.c **** ********************************************************************************
 596:Generated_Source\PSoC5/Touch_ADC.c **** *
 597:Generated_Source\PSoC5/Touch_ADC.c **** * Summary:
 598:Generated_Source\PSoC5/Touch_ADC.c **** *  Forces the ADC to stop all conversions. If the ADC is in the middle of a
 599:Generated_Source\PSoC5/Touch_ADC.c **** *  conversion, the ADC will be reset and not provide a result for that partial
 600:Generated_Source\PSoC5/Touch_ADC.c **** *  conversion.
 601:Generated_Source\PSoC5/Touch_ADC.c **** *
ARM GAS  C:\Users\emman\AppData\Local\Temp\ccNpJWxM.s 			page 12


 602:Generated_Source\PSoC5/Touch_ADC.c **** * Parameters:
 603:Generated_Source\PSoC5/Touch_ADC.c **** *  None
 604:Generated_Source\PSoC5/Touch_ADC.c **** *
 605:Generated_Source\PSoC5/Touch_ADC.c **** * Return:
 606:Generated_Source\PSoC5/Touch_ADC.c **** *  None
 607:Generated_Source\PSoC5/Touch_ADC.c **** *
 608:Generated_Source\PSoC5/Touch_ADC.c **** *******************************************************************************/
 609:Generated_Source\PSoC5/Touch_ADC.c **** void Touch_ADC_StopConvert(void) 
 610:Generated_Source\PSoC5/Touch_ADC.c **** {
 611:Generated_Source\PSoC5/Touch_ADC.c ****     /* Stop all conversions */
 612:Generated_Source\PSoC5/Touch_ADC.c ****     Touch_ADC_DEC_CR_REG &= (uint8)~Touch_ADC_DEC_START_CONV;
 613:Generated_Source\PSoC5/Touch_ADC.c **** }
 614:Generated_Source\PSoC5/Touch_ADC.c **** 
 615:Generated_Source\PSoC5/Touch_ADC.c **** 
 616:Generated_Source\PSoC5/Touch_ADC.c **** /*******************************************************************************
 617:Generated_Source\PSoC5/Touch_ADC.c **** * Function Name: Touch_ADC_IsEndConversion
 618:Generated_Source\PSoC5/Touch_ADC.c **** ********************************************************************************
 619:Generated_Source\PSoC5/Touch_ADC.c **** *
 620:Generated_Source\PSoC5/Touch_ADC.c **** * Summary:
 621:Generated_Source\PSoC5/Touch_ADC.c **** *  Checks the status that the most recently started conversion has completed.
 622:Generated_Source\PSoC5/Touch_ADC.c **** *  The status is cleared by any of ADC_GetResult8(), ADC_GetResult16() or 
 623:Generated_Source\PSoC5/Touch_ADC.c **** *  ADC_GetResult32() API.
 624:Generated_Source\PSoC5/Touch_ADC.c **** *  This function provides the programmer with two options. In one mode this 
 625:Generated_Source\PSoC5/Touch_ADC.c **** *  function immediately returns with the conversion status. In the other mode,
 626:Generated_Source\PSoC5/Touch_ADC.c **** *  the function does not return (blocking) until the conversion has completed.
 627:Generated_Source\PSoC5/Touch_ADC.c **** *
 628:Generated_Source\PSoC5/Touch_ADC.c **** * Parameters:
 629:Generated_Source\PSoC5/Touch_ADC.c **** *  retMode: Check conversion return mode. See the following table for options.
 630:Generated_Source\PSoC5/Touch_ADC.c **** *   Touch_ADC_RETURN_STATUS -   Immediately returns conversion result
 631:Generated_Source\PSoC5/Touch_ADC.c **** *                                      status.
 632:Generated_Source\PSoC5/Touch_ADC.c **** *   Touch_ADC_WAIT_FOR_RESULT - Does not return until ADC conversion
 633:Generated_Source\PSoC5/Touch_ADC.c **** *                                      is complete.
 634:Generated_Source\PSoC5/Touch_ADC.c **** *
 635:Generated_Source\PSoC5/Touch_ADC.c **** * Return:
 636:Generated_Source\PSoC5/Touch_ADC.c **** *  If a nonzero value is returned, the last conversion has completed.
 637:Generated_Source\PSoC5/Touch_ADC.c **** *  If the returned value is zero, the ADC is still calculating the last result.
 638:Generated_Source\PSoC5/Touch_ADC.c **** *
 639:Generated_Source\PSoC5/Touch_ADC.c **** * Global variables:
 640:Generated_Source\PSoC5/Touch_ADC.c **** *  Touch_ADC_convDone:  Used to check whether conversion is complete
 641:Generated_Source\PSoC5/Touch_ADC.c **** *  or not for single sample mode with resolution is above 16
 642:Generated_Source\PSoC5/Touch_ADC.c **** *
 643:Generated_Source\PSoC5/Touch_ADC.c **** *******************************************************************************/
 644:Generated_Source\PSoC5/Touch_ADC.c **** uint8 Touch_ADC_IsEndConversion(uint8 retMode) 
 645:Generated_Source\PSoC5/Touch_ADC.c **** {
 646:Generated_Source\PSoC5/Touch_ADC.c ****     uint8 status;
 647:Generated_Source\PSoC5/Touch_ADC.c **** 
 648:Generated_Source\PSoC5/Touch_ADC.c ****     do
 649:Generated_Source\PSoC5/Touch_ADC.c ****     {
 650:Generated_Source\PSoC5/Touch_ADC.c ****         /* Check for stop convert if conversion mode is Single Sample with
 651:Generated_Source\PSoC5/Touch_ADC.c ****         *   resolution above 16 bit
 652:Generated_Source\PSoC5/Touch_ADC.c ****         */
 653:Generated_Source\PSoC5/Touch_ADC.c ****         if(Touch_ADC_stopConversion != 0u)
 654:Generated_Source\PSoC5/Touch_ADC.c ****         {
 655:Generated_Source\PSoC5/Touch_ADC.c ****             status = Touch_ADC_convDone;
 656:Generated_Source\PSoC5/Touch_ADC.c ****         }
 657:Generated_Source\PSoC5/Touch_ADC.c ****         else
 658:Generated_Source\PSoC5/Touch_ADC.c ****         {
ARM GAS  C:\Users\emman\AppData\Local\Temp\ccNpJWxM.s 			page 13


 659:Generated_Source\PSoC5/Touch_ADC.c ****             status = Touch_ADC_DEC_SR_REG & Touch_ADC_DEC_CONV_DONE;
 660:Generated_Source\PSoC5/Touch_ADC.c ****         }
 661:Generated_Source\PSoC5/Touch_ADC.c ****     }while((status != Touch_ADC_DEC_CONV_DONE) && (retMode == Touch_ADC_WAIT_FOR_RESULT));
 662:Generated_Source\PSoC5/Touch_ADC.c **** 
 663:Generated_Source\PSoC5/Touch_ADC.c ****     return(status);
 664:Generated_Source\PSoC5/Touch_ADC.c **** }
 665:Generated_Source\PSoC5/Touch_ADC.c **** 
 666:Generated_Source\PSoC5/Touch_ADC.c **** 
 667:Generated_Source\PSoC5/Touch_ADC.c **** /*******************************************************************************
 668:Generated_Source\PSoC5/Touch_ADC.c **** * Function Name: Touch_ADC_GetResult8
 669:Generated_Source\PSoC5/Touch_ADC.c **** ********************************************************************************
 670:Generated_Source\PSoC5/Touch_ADC.c **** *
 671:Generated_Source\PSoC5/Touch_ADC.c **** * Summary:
 672:Generated_Source\PSoC5/Touch_ADC.c **** *  This function returns the result of an 8-bit conversion. If the
 673:Generated_Source\PSoC5/Touch_ADC.c **** *  resolution is set greater than 8-bits, the LSB of the result will be
 674:Generated_Source\PSoC5/Touch_ADC.c **** *  returned. When the ADC is configured for 8-bit single ended mode,
 675:Generated_Source\PSoC5/Touch_ADC.c **** *  the ADC_GetResult16() function should be used instead. This
 676:Generated_Source\PSoC5/Touch_ADC.c **** *  function returns only signed 8-bit values. The maximum positive
 677:Generated_Source\PSoC5/Touch_ADC.c **** *  signed 8-bit value is 127, but in singled ended 8-bit mode, the
 678:Generated_Source\PSoC5/Touch_ADC.c **** *  maximum positive value is 255.
 679:Generated_Source\PSoC5/Touch_ADC.c **** *
 680:Generated_Source\PSoC5/Touch_ADC.c **** * Parameters:
 681:Generated_Source\PSoC5/Touch_ADC.c **** *  None
 682:Generated_Source\PSoC5/Touch_ADC.c **** *
 683:Generated_Source\PSoC5/Touch_ADC.c **** * Return:
 684:Generated_Source\PSoC5/Touch_ADC.c **** *  int8: The LSB of the last ADC conversion.
 685:Generated_Source\PSoC5/Touch_ADC.c **** *
 686:Generated_Source\PSoC5/Touch_ADC.c **** * Global variables:
 687:Generated_Source\PSoC5/Touch_ADC.c **** *  Touch_ADC_convDone:  Cleared in single sample mode with resolution
 688:Generated_Source\PSoC5/Touch_ADC.c **** *                              above 16 bits
 689:Generated_Source\PSoC5/Touch_ADC.c **** *
 690:Generated_Source\PSoC5/Touch_ADC.c **** *******************************************************************************/
 691:Generated_Source\PSoC5/Touch_ADC.c **** int8 Touch_ADC_GetResult8( void ) 
 692:Generated_Source\PSoC5/Touch_ADC.c **** {
 693:Generated_Source\PSoC5/Touch_ADC.c ****     int8 result;
 694:Generated_Source\PSoC5/Touch_ADC.c ****     uint8 coherency;
 695:Generated_Source\PSoC5/Touch_ADC.c **** 
 696:Generated_Source\PSoC5/Touch_ADC.c ****     /* Read active coherency configuration */
 697:Generated_Source\PSoC5/Touch_ADC.c ****     coherency = Touch_ADC_DEC_COHER_REG & Touch_ADC_DEC_SAMP_KEY_MASK;
 698:Generated_Source\PSoC5/Touch_ADC.c **** 
 699:Generated_Source\PSoC5/Touch_ADC.c ****     result = (int8)Touch_ADC_DEC_SAMP_REG;
 700:Generated_Source\PSoC5/Touch_ADC.c **** 
 701:Generated_Source\PSoC5/Touch_ADC.c ****     if(coherency == Touch_ADC_DEC_SAMP_KEY_MID)
 702:Generated_Source\PSoC5/Touch_ADC.c ****     {   /* Dummy read of the middle byte to unlock the coherency */
 703:Generated_Source\PSoC5/Touch_ADC.c ****         (void)Touch_ADC_DEC_SAMPM_REG;
 704:Generated_Source\PSoC5/Touch_ADC.c ****     }
 705:Generated_Source\PSoC5/Touch_ADC.c ****     else  if(coherency == Touch_ADC_DEC_SAMP_KEY_HIGH)
 706:Generated_Source\PSoC5/Touch_ADC.c ****     {   /* Dummy read of the MSB byte to unlock the coherency */
 707:Generated_Source\PSoC5/Touch_ADC.c ****         (void)Touch_ADC_DEC_SAMPH_REG;
 708:Generated_Source\PSoC5/Touch_ADC.c ****     }
 709:Generated_Source\PSoC5/Touch_ADC.c ****     else /*No action required for other coherency */
 710:Generated_Source\PSoC5/Touch_ADC.c ****     {
 711:Generated_Source\PSoC5/Touch_ADC.c ****     }
 712:Generated_Source\PSoC5/Touch_ADC.c ****     /* Clear conversion complete status in Single Sample mode with resolution above 16 bit */
 713:Generated_Source\PSoC5/Touch_ADC.c ****     if(Touch_ADC_stopConversion != 0u)
 714:Generated_Source\PSoC5/Touch_ADC.c ****     {
 715:Generated_Source\PSoC5/Touch_ADC.c ****         Touch_ADC_convDone = 0u;
ARM GAS  C:\Users\emman\AppData\Local\Temp\ccNpJWxM.s 			page 14


 716:Generated_Source\PSoC5/Touch_ADC.c ****     }
 717:Generated_Source\PSoC5/Touch_ADC.c ****     return (result);
 718:Generated_Source\PSoC5/Touch_ADC.c **** }
 719:Generated_Source\PSoC5/Touch_ADC.c **** 
 720:Generated_Source\PSoC5/Touch_ADC.c **** 
 721:Generated_Source\PSoC5/Touch_ADC.c **** /*******************************************************************************
 722:Generated_Source\PSoC5/Touch_ADC.c **** * Function Name: Touch_ADC_GetResult16
 723:Generated_Source\PSoC5/Touch_ADC.c **** ********************************************************************************
 724:Generated_Source\PSoC5/Touch_ADC.c **** *
 725:Generated_Source\PSoC5/Touch_ADC.c **** * Summary:
 726:Generated_Source\PSoC5/Touch_ADC.c **** *  Returns a 16-bit result for a conversion with a result that has a
 727:Generated_Source\PSoC5/Touch_ADC.c **** *  resolution of 8 to 16 bits. If the resolution is set greater than 16-bits,
 728:Generated_Source\PSoC5/Touch_ADC.c **** *  it will return the 16 least significant bits of the result. When the ADC
 729:Generated_Source\PSoC5/Touch_ADC.c **** *  is configured for 16-bit single ended mode, the ADC_GetResult32()
 730:Generated_Source\PSoC5/Touch_ADC.c **** *  function should be used instead. This function returns only signed
 731:Generated_Source\PSoC5/Touch_ADC.c **** *  16-bit result, which allows a maximum positive value of 32767, not 65535.
 732:Generated_Source\PSoC5/Touch_ADC.c **** *  This function supports different coherency settings.
 733:Generated_Source\PSoC5/Touch_ADC.c **** *
 734:Generated_Source\PSoC5/Touch_ADC.c **** * Parameters:
 735:Generated_Source\PSoC5/Touch_ADC.c **** *   void
 736:Generated_Source\PSoC5/Touch_ADC.c **** *
 737:Generated_Source\PSoC5/Touch_ADC.c **** * Return:
 738:Generated_Source\PSoC5/Touch_ADC.c **** *  int16:  ADC result.
 739:Generated_Source\PSoC5/Touch_ADC.c **** *
 740:Generated_Source\PSoC5/Touch_ADC.c **** * Global variables:
 741:Generated_Source\PSoC5/Touch_ADC.c **** *  Touch_ADC_convDone:  Cleared in single sample mode with resolution
 742:Generated_Source\PSoC5/Touch_ADC.c **** *                              above 16 bits
 743:Generated_Source\PSoC5/Touch_ADC.c **** *
 744:Generated_Source\PSoC5/Touch_ADC.c **** *******************************************************************************/
 745:Generated_Source\PSoC5/Touch_ADC.c **** int16 Touch_ADC_GetResult16(void) 
 746:Generated_Source\PSoC5/Touch_ADC.c **** {
 747:Generated_Source\PSoC5/Touch_ADC.c ****     uint16 result;
 748:Generated_Source\PSoC5/Touch_ADC.c ****     uint8 coherency;
 749:Generated_Source\PSoC5/Touch_ADC.c **** 
 750:Generated_Source\PSoC5/Touch_ADC.c ****     /* Read active coherency configuration */
 751:Generated_Source\PSoC5/Touch_ADC.c ****     coherency = Touch_ADC_DEC_COHER_REG & Touch_ADC_DEC_SAMP_KEY_MASK;
 752:Generated_Source\PSoC5/Touch_ADC.c **** 
 753:Generated_Source\PSoC5/Touch_ADC.c ****     if(coherency <= Touch_ADC_DEC_SAMP_KEY_LOW)
 754:Generated_Source\PSoC5/Touch_ADC.c ****     {   /*  Use default method to read result registers i.e. LSB byte read at the end*/
 755:Generated_Source\PSoC5/Touch_ADC.c ****         #if (CY_PSOC3)
 756:Generated_Source\PSoC5/Touch_ADC.c ****             result = Touch_ADC_DEC_SAMPM_REG;
 757:Generated_Source\PSoC5/Touch_ADC.c ****             result = (result << 8u) | Touch_ADC_DEC_SAMP_REG;
 758:Generated_Source\PSoC5/Touch_ADC.c ****         #else
 759:Generated_Source\PSoC5/Touch_ADC.c ****             result = (CY_GET_REG16(Touch_ADC_DEC_SAMP_16B_PTR));
 760:Generated_Source\PSoC5/Touch_ADC.c ****         #endif /* CY_PSOC3 */
 761:Generated_Source\PSoC5/Touch_ADC.c ****     }
 762:Generated_Source\PSoC5/Touch_ADC.c ****     else /* MID or HIGH */
 763:Generated_Source\PSoC5/Touch_ADC.c ****     {   /* Read middle byte at the end */
 764:Generated_Source\PSoC5/Touch_ADC.c ****         #if (CY_PSOC3)
 765:Generated_Source\PSoC5/Touch_ADC.c ****             result = (CY_GET_REG16(Touch_ADC_DEC_SAMP_16B_PTR));
 766:Generated_Source\PSoC5/Touch_ADC.c ****         #else
 767:Generated_Source\PSoC5/Touch_ADC.c ****             result = Touch_ADC_DEC_SAMP_REG;
 768:Generated_Source\PSoC5/Touch_ADC.c ****             result |=  (uint16)((uint16)Touch_ADC_DEC_SAMPM_REG << 8u);
 769:Generated_Source\PSoC5/Touch_ADC.c ****         #endif /* CY_PSOC3 */
 770:Generated_Source\PSoC5/Touch_ADC.c ****         if(coherency == Touch_ADC_DEC_SAMP_KEY_HIGH)
 771:Generated_Source\PSoC5/Touch_ADC.c ****         {   /* Dummy read of the MSB byte to unlock the coherency */
 772:Generated_Source\PSoC5/Touch_ADC.c ****             (void)Touch_ADC_DEC_SAMPH_REG;
ARM GAS  C:\Users\emman\AppData\Local\Temp\ccNpJWxM.s 			page 15


 773:Generated_Source\PSoC5/Touch_ADC.c ****         }
 774:Generated_Source\PSoC5/Touch_ADC.c ****     }
 775:Generated_Source\PSoC5/Touch_ADC.c ****     /* Clear conversion complete status in Single Sample mode with resolution above 16 bit */
 776:Generated_Source\PSoC5/Touch_ADC.c ****     if(Touch_ADC_stopConversion != 0u)
 777:Generated_Source\PSoC5/Touch_ADC.c ****     {
 778:Generated_Source\PSoC5/Touch_ADC.c ****         Touch_ADC_convDone = 0u;
 779:Generated_Source\PSoC5/Touch_ADC.c ****     }
 780:Generated_Source\PSoC5/Touch_ADC.c **** 
 781:Generated_Source\PSoC5/Touch_ADC.c ****     return ((int16)result);
 782:Generated_Source\PSoC5/Touch_ADC.c **** }
 783:Generated_Source\PSoC5/Touch_ADC.c **** 
 784:Generated_Source\PSoC5/Touch_ADC.c **** 
 785:Generated_Source\PSoC5/Touch_ADC.c **** /*******************************************************************************
 786:Generated_Source\PSoC5/Touch_ADC.c **** * Function Name: Touch_ADC_GetResult32
 787:Generated_Source\PSoC5/Touch_ADC.c **** ********************************************************************************
 788:Generated_Source\PSoC5/Touch_ADC.c **** *
 789:Generated_Source\PSoC5/Touch_ADC.c **** * Summary:
 790:Generated_Source\PSoC5/Touch_ADC.c **** *  Returns a 32-bit result for a conversion with a result that has a
 791:Generated_Source\PSoC5/Touch_ADC.c **** *  resolution of 8 to 20 bits.
 792:Generated_Source\PSoC5/Touch_ADC.c **** *  This function supports different coherency settings.
 793:Generated_Source\PSoC5/Touch_ADC.c **** *
 794:Generated_Source\PSoC5/Touch_ADC.c **** * Parameters:
 795:Generated_Source\PSoC5/Touch_ADC.c **** *  None
 796:Generated_Source\PSoC5/Touch_ADC.c **** *
 797:Generated_Source\PSoC5/Touch_ADC.c **** * Return:
 798:Generated_Source\PSoC5/Touch_ADC.c **** *  int32: Result of the last ADC conversion.
 799:Generated_Source\PSoC5/Touch_ADC.c **** *
 800:Generated_Source\PSoC5/Touch_ADC.c **** * Global variables:
 801:Generated_Source\PSoC5/Touch_ADC.c **** *  Touch_ADC_convDone:  Cleared in single sample mode with resolution
 802:Generated_Source\PSoC5/Touch_ADC.c **** *                              above 16 bits
 803:Generated_Source\PSoC5/Touch_ADC.c **** *
 804:Generated_Source\PSoC5/Touch_ADC.c **** *******************************************************************************/
 805:Generated_Source\PSoC5/Touch_ADC.c **** int32 Touch_ADC_GetResult32(void) 
 806:Generated_Source\PSoC5/Touch_ADC.c **** {
 807:Generated_Source\PSoC5/Touch_ADC.c ****     uint32 result;
 808:Generated_Source\PSoC5/Touch_ADC.c ****     uint8 coherency;
 809:Generated_Source\PSoC5/Touch_ADC.c ****     #if (CY_PSOC3)
 810:Generated_Source\PSoC5/Touch_ADC.c **** 	    uint16 tmp;
 811:Generated_Source\PSoC5/Touch_ADC.c ****     #endif /* CY_PSOC3 */
 812:Generated_Source\PSoC5/Touch_ADC.c **** 
 813:Generated_Source\PSoC5/Touch_ADC.c ****     /* Read active coherency configuration */
 814:Generated_Source\PSoC5/Touch_ADC.c ****     coherency = Touch_ADC_DEC_COHER_REG & Touch_ADC_DEC_SAMP_KEY_MASK;
 815:Generated_Source\PSoC5/Touch_ADC.c **** 
 816:Generated_Source\PSoC5/Touch_ADC.c ****     if(coherency <= Touch_ADC_DEC_SAMP_KEY_LOW)
 817:Generated_Source\PSoC5/Touch_ADC.c ****     {   /*  Use default method to read result registers i.e. LSB byte read at the end*/
 818:Generated_Source\PSoC5/Touch_ADC.c ****         #if (CY_PSOC3)
 819:Generated_Source\PSoC5/Touch_ADC.c ****             result = Touch_ADC_DEC_SAMPH_REG;
 820:Generated_Source\PSoC5/Touch_ADC.c ****             if((result & 0x80u) != 0u)
 821:Generated_Source\PSoC5/Touch_ADC.c ****             {   /* Sign extend */
 822:Generated_Source\PSoC5/Touch_ADC.c ****                 result |= 0xFF00u;
 823:Generated_Source\PSoC5/Touch_ADC.c ****             }
 824:Generated_Source\PSoC5/Touch_ADC.c ****             result = (result << 8u) | Touch_ADC_DEC_SAMPM_REG;
 825:Generated_Source\PSoC5/Touch_ADC.c ****             result = (result << 8u) | Touch_ADC_DEC_SAMP_REG;
 826:Generated_Source\PSoC5/Touch_ADC.c ****         #else
 827:Generated_Source\PSoC5/Touch_ADC.c ****             result = CY_GET_REG16(Touch_ADC_DEC_SAMPH_16B_PTR);
 828:Generated_Source\PSoC5/Touch_ADC.c ****             result = (result << 16u) | (CY_GET_REG16(Touch_ADC_DEC_SAMP_16B_PTR));
 829:Generated_Source\PSoC5/Touch_ADC.c ****         #endif /* CY_PSOC3 */
ARM GAS  C:\Users\emman\AppData\Local\Temp\ccNpJWxM.s 			page 16


 830:Generated_Source\PSoC5/Touch_ADC.c ****     }
 831:Generated_Source\PSoC5/Touch_ADC.c ****     else if(coherency == Touch_ADC_DEC_SAMP_KEY_MID)
 832:Generated_Source\PSoC5/Touch_ADC.c ****     {   /* Read middle byte at the end */
 833:Generated_Source\PSoC5/Touch_ADC.c ****         #if (CY_PSOC3)
 834:Generated_Source\PSoC5/Touch_ADC.c ****             result = Touch_ADC_DEC_SAMPH_REG;
 835:Generated_Source\PSoC5/Touch_ADC.c ****             if((result & 0x80u) != 0u)
 836:Generated_Source\PSoC5/Touch_ADC.c ****             {   /* Sign extend */
 837:Generated_Source\PSoC5/Touch_ADC.c ****                 result |= 0xFF00u;
 838:Generated_Source\PSoC5/Touch_ADC.c ****             }
 839:Generated_Source\PSoC5/Touch_ADC.c ****             result = (result << 16u) | (CY_GET_REG16(Touch_ADC_DEC_SAMP_16B_PTR));
 840:Generated_Source\PSoC5/Touch_ADC.c ****         #else
 841:Generated_Source\PSoC5/Touch_ADC.c ****             result = CY_GET_REG16(Touch_ADC_DEC_SAMPH_16B_PTR);
 842:Generated_Source\PSoC5/Touch_ADC.c ****             result = (result << 16u) | Touch_ADC_DEC_SAMP_REG;
 843:Generated_Source\PSoC5/Touch_ADC.c ****             result |=  (uint32)((uint32)Touch_ADC_DEC_SAMPM_REG << 8u);
 844:Generated_Source\PSoC5/Touch_ADC.c ****         #endif /* CY_PSOC3 */
 845:Generated_Source\PSoC5/Touch_ADC.c ****     }
 846:Generated_Source\PSoC5/Touch_ADC.c ****     else /*Touch_ADC_DEC_SAMP_KEY_HIGH */
 847:Generated_Source\PSoC5/Touch_ADC.c ****     {
 848:Generated_Source\PSoC5/Touch_ADC.c ****         /* Read MSB byte at the end */
 849:Generated_Source\PSoC5/Touch_ADC.c ****         #if (CY_PSOC3)
 850:Generated_Source\PSoC5/Touch_ADC.c ****             result = CY_GET_REG16(Touch_ADC_DEC_SAMP_16B_PTR);
 851:Generated_Source\PSoC5/Touch_ADC.c **** 			tmp = Touch_ADC_DEC_SAMPH_REG;
 852:Generated_Source\PSoC5/Touch_ADC.c ****             if((tmp & 0x80u) != 0u)
 853:Generated_Source\PSoC5/Touch_ADC.c ****             {   /* Sign extend */
 854:Generated_Source\PSoC5/Touch_ADC.c ****                 tmp |= 0xFF00u;
 855:Generated_Source\PSoC5/Touch_ADC.c ****             }
 856:Generated_Source\PSoC5/Touch_ADC.c ****             result |= (uint32)tmp << 16u;
 857:Generated_Source\PSoC5/Touch_ADC.c ****         #else
 858:Generated_Source\PSoC5/Touch_ADC.c ****             result = CY_GET_REG16(Touch_ADC_DEC_SAMP_16B_PTR);
 859:Generated_Source\PSoC5/Touch_ADC.c ****             result |= (uint32)((uint32)CY_GET_REG16(Touch_ADC_DEC_SAMPH_16B_PTR) << 16u);
 860:Generated_Source\PSoC5/Touch_ADC.c ****         #endif /* CY_PSOC3 */
 861:Generated_Source\PSoC5/Touch_ADC.c ****     }
 862:Generated_Source\PSoC5/Touch_ADC.c ****     /* Clear conversion complete status in Single Sample mode with resolution above 16 bit */
 863:Generated_Source\PSoC5/Touch_ADC.c ****     if(Touch_ADC_stopConversion != 0u)
 864:Generated_Source\PSoC5/Touch_ADC.c ****     {
 865:Generated_Source\PSoC5/Touch_ADC.c ****         Touch_ADC_convDone = 0u;
 866:Generated_Source\PSoC5/Touch_ADC.c ****     }
 867:Generated_Source\PSoC5/Touch_ADC.c **** 
 868:Generated_Source\PSoC5/Touch_ADC.c ****     return ((int32)result);
 869:Generated_Source\PSoC5/Touch_ADC.c **** }
 870:Generated_Source\PSoC5/Touch_ADC.c **** 
 871:Generated_Source\PSoC5/Touch_ADC.c **** 
 872:Generated_Source\PSoC5/Touch_ADC.c **** /*******************************************************************************
 873:Generated_Source\PSoC5/Touch_ADC.c **** * Function Name: Touch_ADC_SetOffset
 874:Generated_Source\PSoC5/Touch_ADC.c **** ********************************************************************************
 875:Generated_Source\PSoC5/Touch_ADC.c **** *
 876:Generated_Source\PSoC5/Touch_ADC.c **** * Summary:
 877:Generated_Source\PSoC5/Touch_ADC.c **** *  Sets the ADC offset which is used by the functions ADC_CountsTo_uVolts, 
 878:Generated_Source\PSoC5/Touch_ADC.c **** *  ADC_CountsTo_mVolts, and ADC_CountsTo_Volts to subtract the offset from the 
 879:Generated_Source\PSoC5/Touch_ADC.c **** *  given reading before calculating the voltage conversion.
 880:Generated_Source\PSoC5/Touch_ADC.c **** *
 881:Generated_Source\PSoC5/Touch_ADC.c **** * Parameters:
 882:Generated_Source\PSoC5/Touch_ADC.c **** *  int32:  This value is a measured value when the inputs are shorted or 
 883:Generated_Source\PSoC5/Touch_ADC.c **** *          connected to the same input voltage.
 884:Generated_Source\PSoC5/Touch_ADC.c **** *
 885:Generated_Source\PSoC5/Touch_ADC.c **** * Return:
 886:Generated_Source\PSoC5/Touch_ADC.c **** *  None
ARM GAS  C:\Users\emman\AppData\Local\Temp\ccNpJWxM.s 			page 17


 887:Generated_Source\PSoC5/Touch_ADC.c **** *
 888:Generated_Source\PSoC5/Touch_ADC.c **** * Global variables:
 889:Generated_Source\PSoC5/Touch_ADC.c **** *  Touch_ADC_Offset:  Modified to set the user provided offset. This
 890:Generated_Source\PSoC5/Touch_ADC.c **** *  variable is used for offset calibration purpose.
 891:Generated_Source\PSoC5/Touch_ADC.c **** *
 892:Generated_Source\PSoC5/Touch_ADC.c **** * Side Effects:
 893:Generated_Source\PSoC5/Touch_ADC.c **** *  Affects the Touch_ADC_CountsTo_Volts,
 894:Generated_Source\PSoC5/Touch_ADC.c **** *  Touch_ADC_CountsTo_mVolts, Touch_ADC_CountsTo_uVolts functions
 895:Generated_Source\PSoC5/Touch_ADC.c **** *  by subtracting the given offset.
 896:Generated_Source\PSoC5/Touch_ADC.c **** *
 897:Generated_Source\PSoC5/Touch_ADC.c **** *******************************************************************************/
 898:Generated_Source\PSoC5/Touch_ADC.c **** void Touch_ADC_SetOffset(int32 offset) 
 899:Generated_Source\PSoC5/Touch_ADC.c **** {
 900:Generated_Source\PSoC5/Touch_ADC.c **** 
 901:Generated_Source\PSoC5/Touch_ADC.c ****     Touch_ADC_Offset = offset;
 902:Generated_Source\PSoC5/Touch_ADC.c **** }
 903:Generated_Source\PSoC5/Touch_ADC.c **** 
 904:Generated_Source\PSoC5/Touch_ADC.c **** 
 905:Generated_Source\PSoC5/Touch_ADC.c **** /*******************************************************************************
 906:Generated_Source\PSoC5/Touch_ADC.c **** * Function Name: Touch_ADC_SetGain
 907:Generated_Source\PSoC5/Touch_ADC.c **** ********************************************************************************
 908:Generated_Source\PSoC5/Touch_ADC.c **** *
 909:Generated_Source\PSoC5/Touch_ADC.c **** * Summary:
 910:Generated_Source\PSoC5/Touch_ADC.c **** *  Sets the ADC gain in counts per volt for the voltage conversion
 911:Generated_Source\PSoC5/Touch_ADC.c **** *  functions below. This value is set by default by the reference and
 912:Generated_Source\PSoC5/Touch_ADC.c **** *  input range settings. It should only be used to further calibrate the
 913:Generated_Source\PSoC5/Touch_ADC.c **** *  ADC with a known input or if an external reference is used. This
 914:Generated_Source\PSoC5/Touch_ADC.c **** *  function may also be used to calibrate an entire signal chain, not
 915:Generated_Source\PSoC5/Touch_ADC.c **** *  just the ADC.
 916:Generated_Source\PSoC5/Touch_ADC.c **** *
 917:Generated_Source\PSoC5/Touch_ADC.c **** * Parameters:
 918:Generated_Source\PSoC5/Touch_ADC.c **** *  int32: ADC gain in counts per volt.
 919:Generated_Source\PSoC5/Touch_ADC.c **** *
 920:Generated_Source\PSoC5/Touch_ADC.c **** * Return:
 921:Generated_Source\PSoC5/Touch_ADC.c **** *  None
 922:Generated_Source\PSoC5/Touch_ADC.c **** *
 923:Generated_Source\PSoC5/Touch_ADC.c **** * Global variables:
 924:Generated_Source\PSoC5/Touch_ADC.c **** *  Touch_ADC_CountsPerVolt:  modified to set the ADC gain in counts
 925:Generated_Source\PSoC5/Touch_ADC.c **** *   per volt.
 926:Generated_Source\PSoC5/Touch_ADC.c **** *
 927:Generated_Source\PSoC5/Touch_ADC.c **** * Side Effects:
 928:Generated_Source\PSoC5/Touch_ADC.c **** *  Affects the Touch_ADC_CountsTo_Volts,
 929:Generated_Source\PSoC5/Touch_ADC.c **** *  Touch_ADC_CountsTo_mVolts, Touch_ADC_CountsTo_uVolts functions
 930:Generated_Source\PSoC5/Touch_ADC.c **** *  supplying the correct conversion between ADC counts and voltage.
 931:Generated_Source\PSoC5/Touch_ADC.c **** *
 932:Generated_Source\PSoC5/Touch_ADC.c **** *******************************************************************************/
 933:Generated_Source\PSoC5/Touch_ADC.c **** void Touch_ADC_SetGain(int32 adcGain) 
 934:Generated_Source\PSoC5/Touch_ADC.c **** {
 935:Generated_Source\PSoC5/Touch_ADC.c ****     Touch_ADC_CountsPerVolt = adcGain;
 936:Generated_Source\PSoC5/Touch_ADC.c **** }
 937:Generated_Source\PSoC5/Touch_ADC.c **** 
 938:Generated_Source\PSoC5/Touch_ADC.c **** 
 939:Generated_Source\PSoC5/Touch_ADC.c **** /*******************************************************************************
 940:Generated_Source\PSoC5/Touch_ADC.c **** * Function Name: Touch_ADC_CountsTo_mVolts
 941:Generated_Source\PSoC5/Touch_ADC.c **** ********************************************************************************
 942:Generated_Source\PSoC5/Touch_ADC.c **** *
 943:Generated_Source\PSoC5/Touch_ADC.c **** * Summary:
ARM GAS  C:\Users\emman\AppData\Local\Temp\ccNpJWxM.s 			page 18


 944:Generated_Source\PSoC5/Touch_ADC.c **** *  Converts the ADC counts output to mVolts as a 16-bit integer. For
 945:Generated_Source\PSoC5/Touch_ADC.c **** *  example, if the ADC measured 0.534 volts, the return value would
 946:Generated_Source\PSoC5/Touch_ADC.c **** *  be 534 mVolts.
 947:Generated_Source\PSoC5/Touch_ADC.c **** *
 948:Generated_Source\PSoC5/Touch_ADC.c **** * Parameters:
 949:Generated_Source\PSoC5/Touch_ADC.c **** *  int32: adcCounts Result from the ADC conversion.
 950:Generated_Source\PSoC5/Touch_ADC.c **** *
 951:Generated_Source\PSoC5/Touch_ADC.c **** * Return:
 952:Generated_Source\PSoC5/Touch_ADC.c **** *  int16:  Result in mVolts
 953:Generated_Source\PSoC5/Touch_ADC.c **** *
 954:Generated_Source\PSoC5/Touch_ADC.c **** * Global variables:
 955:Generated_Source\PSoC5/Touch_ADC.c **** *  Touch_ADC_CountsPerVolt:  used to convert ADC counts to mVolts.
 956:Generated_Source\PSoC5/Touch_ADC.c **** *  Touch_ADC_Offset:  Used as the offset while converting ADC counts
 957:Generated_Source\PSoC5/Touch_ADC.c **** *   to mVolts.
 958:Generated_Source\PSoC5/Touch_ADC.c **** *
 959:Generated_Source\PSoC5/Touch_ADC.c **** *******************************************************************************/
 960:Generated_Source\PSoC5/Touch_ADC.c **** int16 Touch_ADC_CountsTo_mVolts(int32 adcCounts) 
 961:Generated_Source\PSoC5/Touch_ADC.c **** {
 962:Generated_Source\PSoC5/Touch_ADC.c **** 
 963:Generated_Source\PSoC5/Touch_ADC.c ****     int16 mVolts;
 964:Generated_Source\PSoC5/Touch_ADC.c **** 
 965:Generated_Source\PSoC5/Touch_ADC.c ****     /* Convert adcCounts to the right align if left option selected */
 966:Generated_Source\PSoC5/Touch_ADC.c ****     #if(Touch_ADC_CFG1_DEC_DIV != 0)
 967:Generated_Source\PSoC5/Touch_ADC.c ****         if(Touch_ADC_Config == Touch_ADC_CFG1)
 968:Generated_Source\PSoC5/Touch_ADC.c ****         {
 969:Generated_Source\PSoC5/Touch_ADC.c ****             adcCounts /= Touch_ADC_CFG1_DEC_DIV;
 970:Generated_Source\PSoC5/Touch_ADC.c ****         }
 971:Generated_Source\PSoC5/Touch_ADC.c ****     #endif /* Touch_ADC_CFG1_DEC_DIV */
 972:Generated_Source\PSoC5/Touch_ADC.c ****     #if((Touch_ADC_CFG2_DEC_DIV != 0) && (Touch_ADC_DEFAULT_NUM_CONFIGS > 1))
 973:Generated_Source\PSoC5/Touch_ADC.c ****         if(Touch_ADC_Config == Touch_ADC_CFG2)
 974:Generated_Source\PSoC5/Touch_ADC.c ****         {
 975:Generated_Source\PSoC5/Touch_ADC.c ****             adcCounts /= Touch_ADC_CFG2_DEC_DIV;
 976:Generated_Source\PSoC5/Touch_ADC.c ****         }
 977:Generated_Source\PSoC5/Touch_ADC.c ****     #endif /* Touch_ADC_CFG2_DEC_DIV */
 978:Generated_Source\PSoC5/Touch_ADC.c ****     #if((Touch_ADC_CFG3_DEC_DIV != 0) && (Touch_ADC_DEFAULT_NUM_CONFIGS > 2))
 979:Generated_Source\PSoC5/Touch_ADC.c ****         if(Touch_ADC_Config == Touch_ADC_CFG3)
 980:Generated_Source\PSoC5/Touch_ADC.c ****         {
 981:Generated_Source\PSoC5/Touch_ADC.c ****             adcCounts /= Touch_ADC_CFG3_DEC_DIV;
 982:Generated_Source\PSoC5/Touch_ADC.c ****         }
 983:Generated_Source\PSoC5/Touch_ADC.c ****     #endif /* Touch_ADC_CFG2_DEC_DIV */
 984:Generated_Source\PSoC5/Touch_ADC.c ****     #if((Touch_ADC_CFG4_DEC_DIV != 0) && (Touch_ADC_DEFAULT_NUM_CONFIGS > 3))
 985:Generated_Source\PSoC5/Touch_ADC.c ****         if(Touch_ADC_Config == Touch_ADC_CFG4)
 986:Generated_Source\PSoC5/Touch_ADC.c ****         {
 987:Generated_Source\PSoC5/Touch_ADC.c ****             adcCounts /= Touch_ADC_CFG4_DEC_DIV;
 988:Generated_Source\PSoC5/Touch_ADC.c ****         }
 989:Generated_Source\PSoC5/Touch_ADC.c ****     #endif /* Touch_ADC_CFG2_DEC_DIV */
 990:Generated_Source\PSoC5/Touch_ADC.c **** 
 991:Generated_Source\PSoC5/Touch_ADC.c ****     /* Subtract ADC offset */
 992:Generated_Source\PSoC5/Touch_ADC.c ****     adcCounts -= Touch_ADC_Offset;
 993:Generated_Source\PSoC5/Touch_ADC.c **** 
 994:Generated_Source\PSoC5/Touch_ADC.c ****     mVolts = (int16)(( adcCounts * Touch_ADC_1MV_COUNTS ) / Touch_ADC_CountsPerVolt) ;
 995:Generated_Source\PSoC5/Touch_ADC.c **** 
 996:Generated_Source\PSoC5/Touch_ADC.c ****     return(mVolts);
 997:Generated_Source\PSoC5/Touch_ADC.c **** }
 998:Generated_Source\PSoC5/Touch_ADC.c **** 
 999:Generated_Source\PSoC5/Touch_ADC.c **** 
1000:Generated_Source\PSoC5/Touch_ADC.c **** /*******************************************************************************
ARM GAS  C:\Users\emman\AppData\Local\Temp\ccNpJWxM.s 			page 19


1001:Generated_Source\PSoC5/Touch_ADC.c **** * Function Name: Touch_ADC_CountsTo_Volts
1002:Generated_Source\PSoC5/Touch_ADC.c **** ********************************************************************************
1003:Generated_Source\PSoC5/Touch_ADC.c **** *
1004:Generated_Source\PSoC5/Touch_ADC.c **** * Summary:
1005:Generated_Source\PSoC5/Touch_ADC.c **** *  Converts the ADC output to Volts as a floating point number. For
1006:Generated_Source\PSoC5/Touch_ADC.c **** *  example, if the ADC measure a voltage of 1.2345 Volts, the
1007:Generated_Source\PSoC5/Touch_ADC.c **** *  returned result would be +1.2345 Volts.
1008:Generated_Source\PSoC5/Touch_ADC.c **** *
1009:Generated_Source\PSoC5/Touch_ADC.c **** * Parameters:
1010:Generated_Source\PSoC5/Touch_ADC.c **** *  int32 adcCounts:  Result from the ADC conversion.
1011:Generated_Source\PSoC5/Touch_ADC.c **** *
1012:Generated_Source\PSoC5/Touch_ADC.c **** * Return:
1013:Generated_Source\PSoC5/Touch_ADC.c **** *  float32: Result in Volts
1014:Generated_Source\PSoC5/Touch_ADC.c **** *
1015:Generated_Source\PSoC5/Touch_ADC.c **** * Global variables:
1016:Generated_Source\PSoC5/Touch_ADC.c **** *  Touch_ADC_CountsPerVolt:  used to convert to Volts.
1017:Generated_Source\PSoC5/Touch_ADC.c **** *  Touch_ADC_Offset:  Used as the offset while converting ADC counts
1018:Generated_Source\PSoC5/Touch_ADC.c **** *   to Volts.
1019:Generated_Source\PSoC5/Touch_ADC.c **** *
1020:Generated_Source\PSoC5/Touch_ADC.c **** *******************************************************************************/
1021:Generated_Source\PSoC5/Touch_ADC.c **** float32 Touch_ADC_CountsTo_Volts(int32 adcCounts) 
1022:Generated_Source\PSoC5/Touch_ADC.c **** {
1023:Generated_Source\PSoC5/Touch_ADC.c **** 
1024:Generated_Source\PSoC5/Touch_ADC.c ****     float32 Volts;
1025:Generated_Source\PSoC5/Touch_ADC.c **** 
1026:Generated_Source\PSoC5/Touch_ADC.c ****     /* Convert adcCounts to the right align if left option selected */
1027:Generated_Source\PSoC5/Touch_ADC.c ****     #if(Touch_ADC_CFG1_DEC_DIV != 0)
1028:Generated_Source\PSoC5/Touch_ADC.c ****         if(Touch_ADC_Config == Touch_ADC_CFG1)
1029:Generated_Source\PSoC5/Touch_ADC.c ****         {
1030:Generated_Source\PSoC5/Touch_ADC.c ****             adcCounts /= Touch_ADC_CFG1_DEC_DIV;
1031:Generated_Source\PSoC5/Touch_ADC.c ****         }
1032:Generated_Source\PSoC5/Touch_ADC.c ****     #endif /* Touch_ADC_CFG1_DEC_DIV */
1033:Generated_Source\PSoC5/Touch_ADC.c ****     #if((Touch_ADC_CFG2_DEC_DIV != 0) && (Touch_ADC_DEFAULT_NUM_CONFIGS > 1))
1034:Generated_Source\PSoC5/Touch_ADC.c ****         if(Touch_ADC_Config == Touch_ADC_CFG2)
1035:Generated_Source\PSoC5/Touch_ADC.c ****         {
1036:Generated_Source\PSoC5/Touch_ADC.c ****             adcCounts /= Touch_ADC_CFG2_DEC_DIV;
1037:Generated_Source\PSoC5/Touch_ADC.c ****         }
1038:Generated_Source\PSoC5/Touch_ADC.c ****     #endif /* Touch_ADC_CFG2_DEC_DIV */
1039:Generated_Source\PSoC5/Touch_ADC.c ****     #if((Touch_ADC_CFG3_DEC_DIV != 0) && (Touch_ADC_DEFAULT_NUM_CONFIGS > 2))
1040:Generated_Source\PSoC5/Touch_ADC.c ****         if(Touch_ADC_Config == Touch_ADC_CFG3)
1041:Generated_Source\PSoC5/Touch_ADC.c ****         {
1042:Generated_Source\PSoC5/Touch_ADC.c ****             adcCounts /= Touch_ADC_CFG3_DEC_DIV;
1043:Generated_Source\PSoC5/Touch_ADC.c ****         }
1044:Generated_Source\PSoC5/Touch_ADC.c ****     #endif /* Touch_ADC_CFG2_DEC_DIV */
1045:Generated_Source\PSoC5/Touch_ADC.c ****     #if((Touch_ADC_CFG4_DEC_DIV != 0) && (Touch_ADC_DEFAULT_NUM_CONFIGS > 3))
1046:Generated_Source\PSoC5/Touch_ADC.c ****         if(Touch_ADC_Config == Touch_ADC_CFG4)
1047:Generated_Source\PSoC5/Touch_ADC.c ****         {
1048:Generated_Source\PSoC5/Touch_ADC.c ****             adcCounts /= Touch_ADC_CFG4_DEC_DIV;
1049:Generated_Source\PSoC5/Touch_ADC.c ****         }
1050:Generated_Source\PSoC5/Touch_ADC.c ****     #endif /* Touch_ADC_CFG2_DEC_DIV */
1051:Generated_Source\PSoC5/Touch_ADC.c **** 
1052:Generated_Source\PSoC5/Touch_ADC.c ****     /* Subtract ADC offset */
1053:Generated_Source\PSoC5/Touch_ADC.c ****     adcCounts -= Touch_ADC_Offset;
1054:Generated_Source\PSoC5/Touch_ADC.c **** 
1055:Generated_Source\PSoC5/Touch_ADC.c ****     Volts = (float32)adcCounts / (float32)Touch_ADC_CountsPerVolt;
1056:Generated_Source\PSoC5/Touch_ADC.c **** 
1057:Generated_Source\PSoC5/Touch_ADC.c ****     return( Volts );
ARM GAS  C:\Users\emman\AppData\Local\Temp\ccNpJWxM.s 			page 20


1058:Generated_Source\PSoC5/Touch_ADC.c **** }
1059:Generated_Source\PSoC5/Touch_ADC.c **** 
1060:Generated_Source\PSoC5/Touch_ADC.c **** 
1061:Generated_Source\PSoC5/Touch_ADC.c **** /*******************************************************************************
1062:Generated_Source\PSoC5/Touch_ADC.c **** * Function Name: Touch_ADC_CountsTo_uVolts
1063:Generated_Source\PSoC5/Touch_ADC.c **** ********************************************************************************
1064:Generated_Source\PSoC5/Touch_ADC.c **** *
1065:Generated_Source\PSoC5/Touch_ADC.c **** * Summary:
1066:Generated_Source\PSoC5/Touch_ADC.c **** *  Converts the ADC output to uVolts as a 32-bit integer. For example,
1067:Generated_Source\PSoC5/Touch_ADC.c **** *  if the ADC measured -0.02345 Volts, the return value would be -23450 uVolts.
1068:Generated_Source\PSoC5/Touch_ADC.c **** *
1069:Generated_Source\PSoC5/Touch_ADC.c **** * Parameters:
1070:Generated_Source\PSoC5/Touch_ADC.c **** *  int32 adcCounts: Result from the ADC conversion.
1071:Generated_Source\PSoC5/Touch_ADC.c **** *
1072:Generated_Source\PSoC5/Touch_ADC.c **** * Return:
1073:Generated_Source\PSoC5/Touch_ADC.c **** *  int32:  Result in uVolts
1074:Generated_Source\PSoC5/Touch_ADC.c **** *
1075:Generated_Source\PSoC5/Touch_ADC.c **** * Global variables:
1076:Generated_Source\PSoC5/Touch_ADC.c **** *  Touch_ADC_CountsPerVolt:  used to convert ADC counts to mVolts.
1077:Generated_Source\PSoC5/Touch_ADC.c **** *  Touch_ADC_Offset:  Used as the offset while converting ADC counts
1078:Generated_Source\PSoC5/Touch_ADC.c **** *   to mVolts.
1079:Generated_Source\PSoC5/Touch_ADC.c **** *
1080:Generated_Source\PSoC5/Touch_ADC.c **** * Theory:
1081:Generated_Source\PSoC5/Touch_ADC.c **** *  Care must be taken to not exceed the maximum value for a 31 bit signed
1082:Generated_Source\PSoC5/Touch_ADC.c **** *  number in the conversion to uVolts and at the same time not lose resolution.
1083:Generated_Source\PSoC5/Touch_ADC.c **** *
1084:Generated_Source\PSoC5/Touch_ADC.c **** *  uVolts = ((A * adcCounts) / ((int32)Touch_ADC_CountsPerVolt / B));
1085:Generated_Source\PSoC5/Touch_ADC.c **** *
1086:Generated_Source\PSoC5/Touch_ADC.c **** *******************************************************************************/
1087:Generated_Source\PSoC5/Touch_ADC.c **** int32 Touch_ADC_CountsTo_uVolts(int32 adcCounts) 
1088:Generated_Source\PSoC5/Touch_ADC.c **** {
1089:Generated_Source\PSoC5/Touch_ADC.c **** 
1090:Generated_Source\PSoC5/Touch_ADC.c ****     int32 uVolts;
1091:Generated_Source\PSoC5/Touch_ADC.c ****     int32 coefA;
1092:Generated_Source\PSoC5/Touch_ADC.c ****     int32 coefB;
1093:Generated_Source\PSoC5/Touch_ADC.c ****     uint8 resolution;
1094:Generated_Source\PSoC5/Touch_ADC.c **** 
1095:Generated_Source\PSoC5/Touch_ADC.c ****     /* Set the resolution based on the configuration */
1096:Generated_Source\PSoC5/Touch_ADC.c ****     /* Convert adcCounts to the right align if left option selected */
1097:Generated_Source\PSoC5/Touch_ADC.c ****     if (Touch_ADC_Config == Touch_ADC_CFG1)
1098:Generated_Source\PSoC5/Touch_ADC.c ****     {
1099:Generated_Source\PSoC5/Touch_ADC.c ****         resolution = Touch_ADC_CFG1_RESOLUTION;
1100:Generated_Source\PSoC5/Touch_ADC.c ****         #if(Touch_ADC_CFG1_DEC_DIV != 0)
1101:Generated_Source\PSoC5/Touch_ADC.c ****             adcCounts /= Touch_ADC_CFG1_DEC_DIV;
1102:Generated_Source\PSoC5/Touch_ADC.c ****         #endif /* Touch_ADC_CFG1_DEC_DIV */
1103:Generated_Source\PSoC5/Touch_ADC.c ****     }
1104:Generated_Source\PSoC5/Touch_ADC.c ****     else if (Touch_ADC_Config == Touch_ADC_CFG2)
1105:Generated_Source\PSoC5/Touch_ADC.c ****     {
1106:Generated_Source\PSoC5/Touch_ADC.c ****         resolution = Touch_ADC_CFG2_RESOLUTION;
1107:Generated_Source\PSoC5/Touch_ADC.c ****         #if(Touch_ADC_CFG2_DEC_DIV != 0)
1108:Generated_Source\PSoC5/Touch_ADC.c ****             adcCounts /= Touch_ADC_CFG2_DEC_DIV;
1109:Generated_Source\PSoC5/Touch_ADC.c ****         #endif /* Touch_ADC_CFG2_DEC_DIV */
1110:Generated_Source\PSoC5/Touch_ADC.c ****     }
1111:Generated_Source\PSoC5/Touch_ADC.c ****     else if (Touch_ADC_Config == Touch_ADC_CFG3)
1112:Generated_Source\PSoC5/Touch_ADC.c ****     {
1113:Generated_Source\PSoC5/Touch_ADC.c ****         resolution = Touch_ADC_CFG3_RESOLUTION;
1114:Generated_Source\PSoC5/Touch_ADC.c ****         #if(Touch_ADC_CFG3_DEC_DIV != 0)
ARM GAS  C:\Users\emman\AppData\Local\Temp\ccNpJWxM.s 			page 21


1115:Generated_Source\PSoC5/Touch_ADC.c ****             adcCounts /= Touch_ADC_CFG3_DEC_DIV;
1116:Generated_Source\PSoC5/Touch_ADC.c ****         #endif /* Touch_ADC_CFG3_DEC_DIV */
1117:Generated_Source\PSoC5/Touch_ADC.c ****     }
1118:Generated_Source\PSoC5/Touch_ADC.c ****     else
1119:Generated_Source\PSoC5/Touch_ADC.c ****     {
1120:Generated_Source\PSoC5/Touch_ADC.c ****         resolution = Touch_ADC_CFG4_RESOLUTION;
1121:Generated_Source\PSoC5/Touch_ADC.c ****         #if(Touch_ADC_CFG4_DEC_DIV != 0)
1122:Generated_Source\PSoC5/Touch_ADC.c ****             adcCounts /= Touch_ADC_CFG4_DEC_DIV;
1123:Generated_Source\PSoC5/Touch_ADC.c ****         #endif /* Touch_ADC_CFG4_DEC_DIV */
1124:Generated_Source\PSoC5/Touch_ADC.c ****     }
1125:Generated_Source\PSoC5/Touch_ADC.c **** 
1126:Generated_Source\PSoC5/Touch_ADC.c ****     switch (resolution)
1127:Generated_Source\PSoC5/Touch_ADC.c ****     {
1128:Generated_Source\PSoC5/Touch_ADC.c ****         #if( (Touch_ADC_CFG1_RESOLUTION == Touch_ADC__BITS_12) || \
1129:Generated_Source\PSoC5/Touch_ADC.c ****              (Touch_ADC_CFG2_RESOLUTION == Touch_ADC__BITS_12) || \
1130:Generated_Source\PSoC5/Touch_ADC.c ****              (Touch_ADC_CFG3_RESOLUTION == Touch_ADC__BITS_12) || \
1131:Generated_Source\PSoC5/Touch_ADC.c ****              (Touch_ADC_CFG4_RESOLUTION == Touch_ADC__BITS_12) )
1132:Generated_Source\PSoC5/Touch_ADC.c ****             case (uint8)Touch_ADC__BITS_12:
1133:Generated_Source\PSoC5/Touch_ADC.c ****                 coefA = Touch_ADC_1UV_COUNTS / Touch_ADC_DIVISOR_2;
1134:Generated_Source\PSoC5/Touch_ADC.c ****                 coefB = Touch_ADC_DIVISOR_2;
1135:Generated_Source\PSoC5/Touch_ADC.c ****                 break;
1136:Generated_Source\PSoC5/Touch_ADC.c ****         #endif /* Touch_ADC__BITS_12 */    
1137:Generated_Source\PSoC5/Touch_ADC.c ****         #if( (Touch_ADC_CFG1_RESOLUTION == Touch_ADC__BITS_13) || \
1138:Generated_Source\PSoC5/Touch_ADC.c ****              (Touch_ADC_CFG2_RESOLUTION == Touch_ADC__BITS_13) || \
1139:Generated_Source\PSoC5/Touch_ADC.c ****              (Touch_ADC_CFG3_RESOLUTION == Touch_ADC__BITS_13) || \
1140:Generated_Source\PSoC5/Touch_ADC.c ****              (Touch_ADC_CFG4_RESOLUTION == Touch_ADC__BITS_13) )
1141:Generated_Source\PSoC5/Touch_ADC.c ****             case (uint8)Touch_ADC__BITS_13:
1142:Generated_Source\PSoC5/Touch_ADC.c ****                 coefA = Touch_ADC_1UV_COUNTS / Touch_ADC_DIVISOR_4;
1143:Generated_Source\PSoC5/Touch_ADC.c ****                 coefB = Touch_ADC_DIVISOR_4;
1144:Generated_Source\PSoC5/Touch_ADC.c ****                 break;
1145:Generated_Source\PSoC5/Touch_ADC.c ****         #endif /* Touch_ADC__BITS_13 */    
1146:Generated_Source\PSoC5/Touch_ADC.c ****         #if( (Touch_ADC_CFG1_RESOLUTION == Touch_ADC__BITS_14) || \
1147:Generated_Source\PSoC5/Touch_ADC.c ****              (Touch_ADC_CFG2_RESOLUTION == Touch_ADC__BITS_14) || \
1148:Generated_Source\PSoC5/Touch_ADC.c ****              (Touch_ADC_CFG3_RESOLUTION == Touch_ADC__BITS_14) || \
1149:Generated_Source\PSoC5/Touch_ADC.c ****              (Touch_ADC_CFG4_RESOLUTION == Touch_ADC__BITS_14) )
1150:Generated_Source\PSoC5/Touch_ADC.c ****             case (uint8)Touch_ADC__BITS_14:
1151:Generated_Source\PSoC5/Touch_ADC.c ****                 coefA = Touch_ADC_1UV_COUNTS / Touch_ADC_DIVISOR_8;
1152:Generated_Source\PSoC5/Touch_ADC.c ****                 coefB = Touch_ADC_DIVISOR_8;
1153:Generated_Source\PSoC5/Touch_ADC.c ****                 break;
1154:Generated_Source\PSoC5/Touch_ADC.c ****         #endif /* Touch_ADC__BITS_14 */    
1155:Generated_Source\PSoC5/Touch_ADC.c ****         #if( (Touch_ADC_CFG1_RESOLUTION == Touch_ADC__BITS_15) || \
1156:Generated_Source\PSoC5/Touch_ADC.c ****              (Touch_ADC_CFG2_RESOLUTION == Touch_ADC__BITS_15) || \
1157:Generated_Source\PSoC5/Touch_ADC.c ****              (Touch_ADC_CFG3_RESOLUTION == Touch_ADC__BITS_15) || \
1158:Generated_Source\PSoC5/Touch_ADC.c ****              (Touch_ADC_CFG4_RESOLUTION == Touch_ADC__BITS_15) )
1159:Generated_Source\PSoC5/Touch_ADC.c ****             case (uint8)Touch_ADC__BITS_15:
1160:Generated_Source\PSoC5/Touch_ADC.c ****                 coefA = Touch_ADC_1UV_COUNTS / Touch_ADC_DIVISOR_16;
1161:Generated_Source\PSoC5/Touch_ADC.c ****                 coefB = Touch_ADC_DIVISOR_16;
1162:Generated_Source\PSoC5/Touch_ADC.c ****                 break;
1163:Generated_Source\PSoC5/Touch_ADC.c ****         #endif /* Touch_ADC__BITS_15 */    
1164:Generated_Source\PSoC5/Touch_ADC.c ****         #if( (Touch_ADC_CFG1_RESOLUTION == Touch_ADC__BITS_16) || \
1165:Generated_Source\PSoC5/Touch_ADC.c ****              (Touch_ADC_CFG2_RESOLUTION == Touch_ADC__BITS_16) || \
1166:Generated_Source\PSoC5/Touch_ADC.c ****              (Touch_ADC_CFG3_RESOLUTION == Touch_ADC__BITS_16) || \
1167:Generated_Source\PSoC5/Touch_ADC.c ****              (Touch_ADC_CFG4_RESOLUTION == Touch_ADC__BITS_16) )
1168:Generated_Source\PSoC5/Touch_ADC.c ****             case (uint8)Touch_ADC__BITS_16:
1169:Generated_Source\PSoC5/Touch_ADC.c ****                 coefA = Touch_ADC_1UV_COUNTS / Touch_ADC_DIVISOR_32;
1170:Generated_Source\PSoC5/Touch_ADC.c ****                 coefB = Touch_ADC_DIVISOR_32;
1171:Generated_Source\PSoC5/Touch_ADC.c ****                 break;
ARM GAS  C:\Users\emman\AppData\Local\Temp\ccNpJWxM.s 			page 22


1172:Generated_Source\PSoC5/Touch_ADC.c ****         #endif /* Touch_ADC__BITS_16 */    
1173:Generated_Source\PSoC5/Touch_ADC.c ****         #if( (Touch_ADC_CFG1_RESOLUTION == Touch_ADC__BITS_17) || \
1174:Generated_Source\PSoC5/Touch_ADC.c ****              (Touch_ADC_CFG2_RESOLUTION == Touch_ADC__BITS_17) || \
1175:Generated_Source\PSoC5/Touch_ADC.c ****              (Touch_ADC_CFG3_RESOLUTION == Touch_ADC__BITS_17) || \
1176:Generated_Source\PSoC5/Touch_ADC.c ****              (Touch_ADC_CFG4_RESOLUTION == Touch_ADC__BITS_17) )
1177:Generated_Source\PSoC5/Touch_ADC.c ****             case (uint8)Touch_ADC__BITS_17:
1178:Generated_Source\PSoC5/Touch_ADC.c ****                 coefA = Touch_ADC_1UV_COUNTS / Touch_ADC_DIVISOR_64;
1179:Generated_Source\PSoC5/Touch_ADC.c ****                 coefB = Touch_ADC_DIVISOR_64;
1180:Generated_Source\PSoC5/Touch_ADC.c ****                 break;
1181:Generated_Source\PSoC5/Touch_ADC.c ****         #endif /* Touch_ADC__BITS_17 */    
1182:Generated_Source\PSoC5/Touch_ADC.c ****         #if( (Touch_ADC_CFG1_RESOLUTION == Touch_ADC__BITS_18) || \
1183:Generated_Source\PSoC5/Touch_ADC.c ****              (Touch_ADC_CFG2_RESOLUTION == Touch_ADC__BITS_18) || \
1184:Generated_Source\PSoC5/Touch_ADC.c ****              (Touch_ADC_CFG3_RESOLUTION == Touch_ADC__BITS_18) || \
1185:Generated_Source\PSoC5/Touch_ADC.c ****              (Touch_ADC_CFG4_RESOLUTION == Touch_ADC__BITS_18) )
1186:Generated_Source\PSoC5/Touch_ADC.c ****             case (uint8)Touch_ADC__BITS_18:
1187:Generated_Source\PSoC5/Touch_ADC.c ****                 coefA = Touch_ADC_1UV_COUNTS / Touch_ADC_DIVISOR_125;
1188:Generated_Source\PSoC5/Touch_ADC.c ****                 coefB = Touch_ADC_DIVISOR_125;
1189:Generated_Source\PSoC5/Touch_ADC.c ****                 break;
1190:Generated_Source\PSoC5/Touch_ADC.c ****         #endif /* Touch_ADC__BITS_18 */    
1191:Generated_Source\PSoC5/Touch_ADC.c ****         #if( (Touch_ADC_CFG1_RESOLUTION == Touch_ADC__BITS_19) || \
1192:Generated_Source\PSoC5/Touch_ADC.c ****              (Touch_ADC_CFG2_RESOLUTION == Touch_ADC__BITS_19) || \
1193:Generated_Source\PSoC5/Touch_ADC.c ****              (Touch_ADC_CFG3_RESOLUTION == Touch_ADC__BITS_19) || \
1194:Generated_Source\PSoC5/Touch_ADC.c ****              (Touch_ADC_CFG4_RESOLUTION == Touch_ADC__BITS_19) )
1195:Generated_Source\PSoC5/Touch_ADC.c ****             case (uint8)Touch_ADC__BITS_19:
1196:Generated_Source\PSoC5/Touch_ADC.c ****                 coefA = Touch_ADC_1UV_COUNTS / Touch_ADC_DIVISOR_250;
1197:Generated_Source\PSoC5/Touch_ADC.c ****                 coefB = Touch_ADC_DIVISOR_250;
1198:Generated_Source\PSoC5/Touch_ADC.c ****                 break;
1199:Generated_Source\PSoC5/Touch_ADC.c ****         #endif /* Touch_ADC__BITS_19 */    
1200:Generated_Source\PSoC5/Touch_ADC.c ****         #if( (Touch_ADC_CFG1_RESOLUTION == Touch_ADC__BITS_20) || \
1201:Generated_Source\PSoC5/Touch_ADC.c ****              (Touch_ADC_CFG2_RESOLUTION == Touch_ADC__BITS_20) || \
1202:Generated_Source\PSoC5/Touch_ADC.c ****              (Touch_ADC_CFG3_RESOLUTION == Touch_ADC__BITS_20) || \
1203:Generated_Source\PSoC5/Touch_ADC.c ****              (Touch_ADC_CFG4_RESOLUTION == Touch_ADC__BITS_20) )
1204:Generated_Source\PSoC5/Touch_ADC.c ****             case (uint8)Touch_ADC__BITS_20:
1205:Generated_Source\PSoC5/Touch_ADC.c ****                 coefA = Touch_ADC_1UV_COUNTS / Touch_ADC_DIVISOR_500;
1206:Generated_Source\PSoC5/Touch_ADC.c ****                 coefB = Touch_ADC_DIVISOR_500;
1207:Generated_Source\PSoC5/Touch_ADC.c ****                 break;
1208:Generated_Source\PSoC5/Touch_ADC.c ****         #endif /* Touch_ADC__BITS_20 */    
1209:Generated_Source\PSoC5/Touch_ADC.c ****         default:    /* resolution < 12 */
1210:Generated_Source\PSoC5/Touch_ADC.c ****             /* 11 bits ADC + 2^20(1048576) = 31 bits */
1211:Generated_Source\PSoC5/Touch_ADC.c ****             coefA = Touch_ADC_1UV_COUNTS;
1212:Generated_Source\PSoC5/Touch_ADC.c ****             coefB = Touch_ADC_DIVISOR_1;
1213:Generated_Source\PSoC5/Touch_ADC.c ****             break;
1214:Generated_Source\PSoC5/Touch_ADC.c ****     }
1215:Generated_Source\PSoC5/Touch_ADC.c ****     coefB = Touch_ADC_CountsPerVolt / coefB;
1216:Generated_Source\PSoC5/Touch_ADC.c ****     uVolts = ((coefA * adcCounts) / coefB) - ((coefA * Touch_ADC_Offset) / coefB);
1217:Generated_Source\PSoC5/Touch_ADC.c **** 
1218:Generated_Source\PSoC5/Touch_ADC.c ****     return( uVolts );
1219:Generated_Source\PSoC5/Touch_ADC.c **** }
1220:Generated_Source\PSoC5/Touch_ADC.c **** 
1221:Generated_Source\PSoC5/Touch_ADC.c **** 
1222:Generated_Source\PSoC5/Touch_ADC.c **** /*******************************************************************************
1223:Generated_Source\PSoC5/Touch_ADC.c **** * Function Name: Touch_ADC_InitConfig(uint8 config)
1224:Generated_Source\PSoC5/Touch_ADC.c **** ********************************************************************************
1225:Generated_Source\PSoC5/Touch_ADC.c **** *
1226:Generated_Source\PSoC5/Touch_ADC.c **** * Summary:
1227:Generated_Source\PSoC5/Touch_ADC.c **** *  Initializes all registers based on customizer settings
1228:Generated_Source\PSoC5/Touch_ADC.c **** *
ARM GAS  C:\Users\emman\AppData\Local\Temp\ccNpJWxM.s 			page 23


1229:Generated_Source\PSoC5/Touch_ADC.c **** * Parameters:
1230:Generated_Source\PSoC5/Touch_ADC.c **** *   void
1231:Generated_Source\PSoC5/Touch_ADC.c **** *
1232:Generated_Source\PSoC5/Touch_ADC.c **** * Return:
1233:Generated_Source\PSoC5/Touch_ADC.c **** *  None
1234:Generated_Source\PSoC5/Touch_ADC.c **** *
1235:Generated_Source\PSoC5/Touch_ADC.c **** * Global variables:
1236:Generated_Source\PSoC5/Touch_ADC.c **** *  Touch_ADC_CountsPerVolt:  Used to set the default counts per volt.
1237:Generated_Source\PSoC5/Touch_ADC.c **** *
1238:Generated_Source\PSoC5/Touch_ADC.c **** * Side Effects: Rewrites the coherency set by Touch_ADC_SetCoherency()
1239:Generated_Source\PSoC5/Touch_ADC.c **** *   API to the default value.
1240:Generated_Source\PSoC5/Touch_ADC.c **** *
1241:Generated_Source\PSoC5/Touch_ADC.c **** *******************************************************************************/
1242:Generated_Source\PSoC5/Touch_ADC.c **** static void Touch_ADC_InitConfig(uint8 config) 
  27              		.loc 1 1242 0
  28              		.cfi_startproc
  29              		@ args = 0, pretend = 0, frame = 0
  30              		@ frame_needed = 0, uses_anonymous_args = 0
  31              	.LVL0:
1243:Generated_Source\PSoC5/Touch_ADC.c **** {
1244:Generated_Source\PSoC5/Touch_ADC.c ****     Touch_ADC_stopConversion = 0u;
1245:Generated_Source\PSoC5/Touch_ADC.c **** 
1246:Generated_Source\PSoC5/Touch_ADC.c ****     if (config == 1u)
1247:Generated_Source\PSoC5/Touch_ADC.c ****     {
1248:Generated_Source\PSoC5/Touch_ADC.c ****         /* Default Config */
1249:Generated_Source\PSoC5/Touch_ADC.c ****         Touch_ADC_DEC_CR_REG      = Touch_ADC_CFG1_DEC_CR;
  32              		.loc 1 1249 0
  33 0000 384B     		ldr	r3, .L2
  34 0002 3022     		movs	r2, #48
1242:Generated_Source\PSoC5/Touch_ADC.c **** {
  35              		.loc 1 1242 0
  36 0004 2DE9F047 		push	{r4, r5, r6, r7, r8, r9, r10, lr}
  37              		.cfi_def_cfa_offset 32
  38              		.cfi_offset 4, -32
  39              		.cfi_offset 5, -28
  40              		.cfi_offset 6, -24
  41              		.cfi_offset 7, -20
  42              		.cfi_offset 8, -16
  43              		.cfi_offset 9, -12
  44              		.cfi_offset 10, -8
  45              		.cfi_offset 14, -4
  46              		.loc 1 1249 0
  47 0008 1A70     		strb	r2, [r3]
1250:Generated_Source\PSoC5/Touch_ADC.c ****         Touch_ADC_DEC_SHIFT1_REG  = Touch_ADC_CFG1_DEC_SHIFT1;
  48              		.loc 1 1250 0
  49 000a 0622     		movs	r2, #6
  50 000c 9A70     		strb	r2, [r3, #2]
1251:Generated_Source\PSoC5/Touch_ADC.c ****         Touch_ADC_DEC_SHIFT2_REG  = Touch_ADC_CFG1_DEC_SHIFT2;
1252:Generated_Source\PSoC5/Touch_ADC.c ****         Touch_ADC_DEC_DR2_REG     = Touch_ADC_CFG1_DEC_DR2;
  51              		.loc 1 1252 0
  52 000e 0024     		movs	r4, #0
1251:Generated_Source\PSoC5/Touch_ADC.c ****         Touch_ADC_DEC_SHIFT2_REG  = Touch_ADC_CFG1_DEC_SHIFT2;
  53              		.loc 1 1251 0
  54 0010 0822     		movs	r2, #8
  55 0012 DA70     		strb	r2, [r3, #3]
  56              		.loc 1 1252 0
  57 0014 1C71     		strb	r4, [r3, #4]
ARM GAS  C:\Users\emman\AppData\Local\Temp\ccNpJWxM.s 			page 24


1253:Generated_Source\PSoC5/Touch_ADC.c ****         Touch_ADC_DEC_DR2H_REG    = Touch_ADC_CFG1_DEC_DR2H;
1254:Generated_Source\PSoC5/Touch_ADC.c ****         Touch_ADC_DEC_DR1_REG     = Touch_ADC_CFG1_DEC_DR1;
  58              		.loc 1 1254 0
  59 0016 1F22     		movs	r2, #31
1253:Generated_Source\PSoC5/Touch_ADC.c ****         Touch_ADC_DEC_DR2H_REG    = Touch_ADC_CFG1_DEC_DR2H;
  60              		.loc 1 1253 0
  61 0018 5C71     		strb	r4, [r3, #5]
  62              		.loc 1 1254 0
  63 001a 0633     		adds	r3, r3, #6
  64 001c 1A70     		strb	r2, [r3]
1255:Generated_Source\PSoC5/Touch_ADC.c ****         Touch_ADC_DEC_OCOR_REG    = Touch_ADC_CFG1_DEC_OCOR;
1256:Generated_Source\PSoC5/Touch_ADC.c ****         Touch_ADC_DEC_OCORM_REG   = Touch_ADC_CFG1_DEC_OCORM;
1257:Generated_Source\PSoC5/Touch_ADC.c ****         Touch_ADC_DEC_OCORH_REG   = Touch_ADC_CFG1_DEC_OCORH;
1258:Generated_Source\PSoC5/Touch_ADC.c ****         Touch_ADC_DEC_COHER_REG   = Touch_ADC_CFG1_DEC_COHER;
  65              		.loc 1 1258 0
  66 001e 0125     		movs	r5, #1
1259:Generated_Source\PSoC5/Touch_ADC.c **** 
1260:Generated_Source\PSoC5/Touch_ADC.c ****         Touch_ADC_DSM_CR4_REG     = Touch_ADC_CFG1_DSM_CR4;
  67              		.loc 1 1260 0
  68 0020 1422     		movs	r2, #20
1255:Generated_Source\PSoC5/Touch_ADC.c ****         Touch_ADC_DEC_OCOR_REG    = Touch_ADC_CFG1_DEC_OCOR;
  69              		.loc 1 1255 0
  70 0022 9C70     		strb	r4, [r3, #2]
1261:Generated_Source\PSoC5/Touch_ADC.c ****         Touch_ADC_DSM_CR5_REG     = Touch_ADC_CFG1_DSM_CR5;
  71              		.loc 1 1261 0
  72 0024 4FF00509 		mov	r9, #5
1256:Generated_Source\PSoC5/Touch_ADC.c ****         Touch_ADC_DEC_OCORH_REG   = Touch_ADC_CFG1_DEC_OCORH;
  73              		.loc 1 1256 0
  74 0028 DC70     		strb	r4, [r3, #3]
1257:Generated_Source\PSoC5/Touch_ADC.c ****         Touch_ADC_DEC_COHER_REG   = Touch_ADC_CFG1_DEC_COHER;
  75              		.loc 1 1257 0
  76 002a 1C71     		strb	r4, [r3, #4]
1258:Generated_Source\PSoC5/Touch_ADC.c **** 
  77              		.loc 1 1258 0
  78 002c 9D73     		strb	r5, [r3, #14]
1260:Generated_Source\PSoC5/Touch_ADC.c ****         Touch_ADC_DSM_CR5_REG     = Touch_ADC_CFG1_DSM_CR5;
  79              		.loc 1 1260 0
  80 002e 83F87E2A 		strb	r2, [r3, #2686]
1262:Generated_Source\PSoC5/Touch_ADC.c ****         Touch_ADC_DSM_CR6_REG     = Touch_ADC_CFG1_DSM_CR6;
  81              		.loc 1 1262 0
  82 0032 1622     		movs	r2, #22
1261:Generated_Source\PSoC5/Touch_ADC.c ****         Touch_ADC_DSM_CR6_REG     = Touch_ADC_CFG1_DSM_CR6;
  83              		.loc 1 1261 0
  84 0034 83F87F9A 		strb	r9, [r3, #2687]
  85              		.loc 1 1262 0
  86 0038 83F8802A 		strb	r2, [r3, #2688]
1263:Generated_Source\PSoC5/Touch_ADC.c ****         Touch_ADC_DSM_CR7_REG     = Touch_ADC_CFG1_DSM_CR7;
1264:Generated_Source\PSoC5/Touch_ADC.c ****         Touch_ADC_DSM_CR10_REG    = Touch_ADC_CFG1_DSM_CR10;
  87              		.loc 1 1264 0
  88 003c 4422     		movs	r2, #68
1263:Generated_Source\PSoC5/Touch_ADC.c ****         Touch_ADC_DSM_CR7_REG     = Touch_ADC_CFG1_DSM_CR7;
  89              		.loc 1 1263 0
  90 003e 83F8814A 		strb	r4, [r3, #2689]
  91              		.loc 1 1264 0
  92 0042 83F8842A 		strb	r2, [r3, #2692]
1265:Generated_Source\PSoC5/Touch_ADC.c ****         Touch_ADC_DSM_CR11_REG    = Touch_ADC_CFG1_DSM_CR11;
  93              		.loc 1 1265 0
ARM GAS  C:\Users\emman\AppData\Local\Temp\ccNpJWxM.s 			page 25


  94 0046 4822     		movs	r2, #72
  95 0048 83F8852A 		strb	r2, [r3, #2693]
1266:Generated_Source\PSoC5/Touch_ADC.c ****         Touch_ADC_DSM_CR12_REG    = Touch_ADC_CFG1_DSM_CR12;
1267:Generated_Source\PSoC5/Touch_ADC.c ****         Touch_ADC_DSM_CR14_REG    = Touch_ADC_CFG1_DSM_CR14;
  96              		.loc 1 1267 0
  97 004c 4FF00208 		mov	r8, #2
1268:Generated_Source\PSoC5/Touch_ADC.c ****         Touch_ADC_DSM_CR15_REG    = Touch_ADC_CFG1_DSM_CR15;
  98              		.loc 1 1268 0
  99 0050 2222     		movs	r2, #34
1266:Generated_Source\PSoC5/Touch_ADC.c ****         Touch_ADC_DSM_CR12_REG    = Touch_ADC_CFG1_DSM_CR12;
 100              		.loc 1 1266 0
 101 0052 83F8865A 		strb	r5, [r3, #2694]
1267:Generated_Source\PSoC5/Touch_ADC.c ****         Touch_ADC_DSM_CR15_REG    = Touch_ADC_CFG1_DSM_CR15;
 102              		.loc 1 1267 0
 103 0056 83F8888A 		strb	r8, [r3, #2696]
 104              		.loc 1 1268 0
 105 005a 83F8892A 		strb	r2, [r3, #2697]
1269:Generated_Source\PSoC5/Touch_ADC.c ****         Touch_ADC_DSM_CR16_REG    = Touch_ADC_CFG1_DSM_CR16;
 106              		.loc 1 1269 0
 107 005e 2822     		movs	r2, #40
 108 0060 83F88A2A 		strb	r2, [r3, #2698]
1270:Generated_Source\PSoC5/Touch_ADC.c ****         Touch_ADC_DSM_CR17_REG    = Touch_ADC_CFG1_DSM_CR17;
 109              		.loc 1 1270 0
 110 0064 EB22     		movs	r2, #235
 111 0066 83F88B2A 		strb	r2, [r3, #2699]
 112              	.LVL1:
 113              	.LBB4:
 114              	.LBB5:
1271:Generated_Source\PSoC5/Touch_ADC.c ****         /* Set DSM_REF0_REG by disabling and enabling the PRESS circuit */
1272:Generated_Source\PSoC5/Touch_ADC.c ****         Touch_ADC_SetDSMRef0Reg(Touch_ADC_CFG1_DSM_REF0);
1273:Generated_Source\PSoC5/Touch_ADC.c ****         Touch_ADC_DSM_REF2_REG    = Touch_ADC_CFG1_DSM_REF2;
1274:Generated_Source\PSoC5/Touch_ADC.c ****         Touch_ADC_DSM_REF3_REG    = Touch_ADC_CFG1_DSM_REF3;
1275:Generated_Source\PSoC5/Touch_ADC.c **** 
1276:Generated_Source\PSoC5/Touch_ADC.c ****         Touch_ADC_DSM_BUF0_REG    = Touch_ADC_CFG1_DSM_BUF0;
1277:Generated_Source\PSoC5/Touch_ADC.c ****         Touch_ADC_DSM_BUF1_REG    = Touch_ADC_CFG1_DSM_BUF1;
1278:Generated_Source\PSoC5/Touch_ADC.c ****         Touch_ADC_DSM_BUF2_REG    = Touch_ADC_CFG1_DSM_BUF2;
1279:Generated_Source\PSoC5/Touch_ADC.c ****         Touch_ADC_DSM_BUF3_REG    = Touch_ADC_CFG1_DSM_BUF3;
1280:Generated_Source\PSoC5/Touch_ADC.c **** 
1281:Generated_Source\PSoC5/Touch_ADC.c ****         /* To select either Vssa or Vref to -ve input of DSM depending on
1282:Generated_Source\PSoC5/Touch_ADC.c ****         *  the input  range selected.
1283:Generated_Source\PSoC5/Touch_ADC.c ****         */
1284:Generated_Source\PSoC5/Touch_ADC.c ****         #if(Touch_ADC_DEFAULT_INPUT_MODE)
1285:Generated_Source\PSoC5/Touch_ADC.c ****             #if (Touch_ADC_CFG1_INPUT_RANGE == Touch_ADC_IR_VSSA_TO_2VREF)
1286:Generated_Source\PSoC5/Touch_ADC.c ****                 Touch_ADC_AMux_Select(1u);
1287:Generated_Source\PSoC5/Touch_ADC.c ****             #else
1288:Generated_Source\PSoC5/Touch_ADC.c ****                 Touch_ADC_AMux_Select(0u);
1289:Generated_Source\PSoC5/Touch_ADC.c ****             #endif /* Touch_ADC_IR_VSSA_TO_2VREF) */
1290:Generated_Source\PSoC5/Touch_ADC.c ****         #endif /* Touch_ADC_DEFAULT_INPUT_MODE */
1291:Generated_Source\PSoC5/Touch_ADC.c **** 
1292:Generated_Source\PSoC5/Touch_ADC.c ****         /* Set the Conversion stop if resolution is above 16 bit and conversion
1293:Generated_Source\PSoC5/Touch_ADC.c ****         *   mode is Single sample
1294:Generated_Source\PSoC5/Touch_ADC.c ****         */
1295:Generated_Source\PSoC5/Touch_ADC.c ****         #if(Touch_ADC_CFG1_RESOLUTION > 16 && \
1296:Generated_Source\PSoC5/Touch_ADC.c ****             Touch_ADC_CFG1_CONV_MODE == Touch_ADC_MODE_SINGLE_SAMPLE)
1297:Generated_Source\PSoC5/Touch_ADC.c ****             Touch_ADC_stopConversion = 1u;
1298:Generated_Source\PSoC5/Touch_ADC.c ****         #endif /* Single sample with resolution above 16 bits. */
1299:Generated_Source\PSoC5/Touch_ADC.c **** 
ARM GAS  C:\Users\emman\AppData\Local\Temp\ccNpJWxM.s 			page 26


1300:Generated_Source\PSoC5/Touch_ADC.c ****         Touch_ADC_CountsPerVolt = (int32)Touch_ADC_CFG1_COUNTS_PER_VOLT;
1301:Generated_Source\PSoC5/Touch_ADC.c **** 
1302:Generated_Source\PSoC5/Touch_ADC.c ****         Touch_ADC_Ext_CP_Clk_SetDividerRegister(Touch_ADC_CFG1_CP_CLK_DIVIDER, 1u);
1303:Generated_Source\PSoC5/Touch_ADC.c **** 
1304:Generated_Source\PSoC5/Touch_ADC.c ****         /* This is only valid if there is an internal clock */
1305:Generated_Source\PSoC5/Touch_ADC.c ****         #if(Touch_ADC_DEFAULT_INTERNAL_CLK)
1306:Generated_Source\PSoC5/Touch_ADC.c ****             Touch_ADC_theACLK_SetDividerRegister(Touch_ADC_CFG1_ADC_CLK_DIVIDER, 1u);
1307:Generated_Source\PSoC5/Touch_ADC.c ****         #endif /* Touch_ADC_DEFAULT_INTERNAL_CLK */
1308:Generated_Source\PSoC5/Touch_ADC.c **** 
1309:Generated_Source\PSoC5/Touch_ADC.c ****         #if(Touch_ADC_IRQ_REMOVE == 0u)
1310:Generated_Source\PSoC5/Touch_ADC.c ****             /* Set interrupt vector */
1311:Generated_Source\PSoC5/Touch_ADC.c ****             (void)CyIntSetVector(Touch_ADC_INTC_NUMBER, &Touch_ADC_ISR1);
1312:Generated_Source\PSoC5/Touch_ADC.c ****         #endif   /* End Touch_ADC_IRQ_REMOVE */
1313:Generated_Source\PSoC5/Touch_ADC.c ****     }
1314:Generated_Source\PSoC5/Touch_ADC.c **** 
1315:Generated_Source\PSoC5/Touch_ADC.c ****     #if(Touch_ADC_DEFAULT_NUM_CONFIGS > 1)
1316:Generated_Source\PSoC5/Touch_ADC.c ****         if(config == 2u)
1317:Generated_Source\PSoC5/Touch_ADC.c ****         {
1318:Generated_Source\PSoC5/Touch_ADC.c ****             /* Second Config */
1319:Generated_Source\PSoC5/Touch_ADC.c ****             Touch_ADC_DEC_CR_REG      = Touch_ADC_CFG2_DEC_CR;
1320:Generated_Source\PSoC5/Touch_ADC.c ****             Touch_ADC_DEC_SHIFT1_REG  = Touch_ADC_CFG2_DEC_SHIFT1;
1321:Generated_Source\PSoC5/Touch_ADC.c ****             Touch_ADC_DEC_SHIFT2_REG  = Touch_ADC_CFG2_DEC_SHIFT2;
1322:Generated_Source\PSoC5/Touch_ADC.c ****             Touch_ADC_DEC_DR2_REG     = Touch_ADC_CFG2_DEC_DR2;
1323:Generated_Source\PSoC5/Touch_ADC.c ****             Touch_ADC_DEC_DR2H_REG    = Touch_ADC_CFG2_DEC_DR2H;
1324:Generated_Source\PSoC5/Touch_ADC.c ****             Touch_ADC_DEC_DR1_REG     = Touch_ADC_CFG2_DEC_DR1;
1325:Generated_Source\PSoC5/Touch_ADC.c ****             Touch_ADC_DEC_OCOR_REG    = Touch_ADC_CFG2_DEC_OCOR;
1326:Generated_Source\PSoC5/Touch_ADC.c ****             Touch_ADC_DEC_OCORM_REG   = Touch_ADC_CFG2_DEC_OCORM;
1327:Generated_Source\PSoC5/Touch_ADC.c ****             Touch_ADC_DEC_OCORH_REG   = Touch_ADC_CFG2_DEC_OCORH;
1328:Generated_Source\PSoC5/Touch_ADC.c ****             Touch_ADC_DEC_COHER_REG   = Touch_ADC_CFG2_DEC_COHER;
1329:Generated_Source\PSoC5/Touch_ADC.c **** 
1330:Generated_Source\PSoC5/Touch_ADC.c ****             Touch_ADC_DSM_CR4_REG     = Touch_ADC_CFG2_DSM_CR4;
1331:Generated_Source\PSoC5/Touch_ADC.c ****             Touch_ADC_DSM_CR5_REG     = Touch_ADC_CFG2_DSM_CR5;
1332:Generated_Source\PSoC5/Touch_ADC.c ****             Touch_ADC_DSM_CR6_REG     = Touch_ADC_CFG2_DSM_CR6;
1333:Generated_Source\PSoC5/Touch_ADC.c ****             Touch_ADC_DSM_CR7_REG     = Touch_ADC_CFG2_DSM_CR7;
1334:Generated_Source\PSoC5/Touch_ADC.c ****             Touch_ADC_DSM_CR10_REG    = Touch_ADC_CFG2_DSM_CR10;
1335:Generated_Source\PSoC5/Touch_ADC.c ****             Touch_ADC_DSM_CR11_REG    = Touch_ADC_CFG2_DSM_CR11;
1336:Generated_Source\PSoC5/Touch_ADC.c ****             Touch_ADC_DSM_CR12_REG    = Touch_ADC_CFG2_DSM_CR12;
1337:Generated_Source\PSoC5/Touch_ADC.c ****             Touch_ADC_DSM_CR14_REG    = Touch_ADC_CFG2_DSM_CR14;
1338:Generated_Source\PSoC5/Touch_ADC.c ****             Touch_ADC_DSM_CR15_REG    = Touch_ADC_CFG2_DSM_CR15;
1339:Generated_Source\PSoC5/Touch_ADC.c ****             Touch_ADC_DSM_CR16_REG    = Touch_ADC_CFG2_DSM_CR16;
1340:Generated_Source\PSoC5/Touch_ADC.c ****             Touch_ADC_DSM_CR17_REG    = Touch_ADC_CFG2_DSM_CR17;
1341:Generated_Source\PSoC5/Touch_ADC.c ****             /* Set DSM_REF0_REG by disabling and enabling the PRESS cirucit */
1342:Generated_Source\PSoC5/Touch_ADC.c ****             Touch_ADC_SetDSMRef0Reg(Touch_ADC_CFG2_DSM_REF0);
1343:Generated_Source\PSoC5/Touch_ADC.c ****             Touch_ADC_DSM_REF2_REG    = Touch_ADC_CFG2_DSM_REF2;
1344:Generated_Source\PSoC5/Touch_ADC.c ****             Touch_ADC_DSM_REF3_REG    = Touch_ADC_CFG2_DSM_REF3;
1345:Generated_Source\PSoC5/Touch_ADC.c **** 
1346:Generated_Source\PSoC5/Touch_ADC.c ****             Touch_ADC_DSM_BUF0_REG    = Touch_ADC_CFG2_DSM_BUF0;
1347:Generated_Source\PSoC5/Touch_ADC.c ****             Touch_ADC_DSM_BUF1_REG    = Touch_ADC_CFG2_DSM_BUF1;
1348:Generated_Source\PSoC5/Touch_ADC.c ****             Touch_ADC_DSM_BUF2_REG    = Touch_ADC_CFG2_DSM_BUF2;
1349:Generated_Source\PSoC5/Touch_ADC.c ****             Touch_ADC_DSM_BUF3_REG    = Touch_ADC_CFG2_DSM_BUF3;
1350:Generated_Source\PSoC5/Touch_ADC.c **** 
1351:Generated_Source\PSoC5/Touch_ADC.c ****             /* To select either Vssa or Vref to -ve input of DSM depending on
1352:Generated_Source\PSoC5/Touch_ADC.c ****             *  the input range selected.
1353:Generated_Source\PSoC5/Touch_ADC.c ****             */
1354:Generated_Source\PSoC5/Touch_ADC.c **** 
1355:Generated_Source\PSoC5/Touch_ADC.c ****             #if(Touch_ADC_DEFAULT_INPUT_MODE)
1356:Generated_Source\PSoC5/Touch_ADC.c ****                 #if (Touch_ADC_CFG2_INPUT_RANGE == Touch_ADC_IR_VSSA_TO_2VREF)
ARM GAS  C:\Users\emman\AppData\Local\Temp\ccNpJWxM.s 			page 27


1357:Generated_Source\PSoC5/Touch_ADC.c ****                     Touch_ADC_AMux_Select(1u);
1358:Generated_Source\PSoC5/Touch_ADC.c ****                 #else
1359:Generated_Source\PSoC5/Touch_ADC.c ****                     Touch_ADC_AMux_Select(0u);
1360:Generated_Source\PSoC5/Touch_ADC.c ****                 #endif /* Touch_ADC_IR_VSSA_TO_2VREF) */
1361:Generated_Source\PSoC5/Touch_ADC.c ****             #endif /* Touch_ADC_DEFAULT_INPUT_MODE */
1362:Generated_Source\PSoC5/Touch_ADC.c **** 
1363:Generated_Source\PSoC5/Touch_ADC.c ****             /* Set the Conversion stop if resolution is above 16 bit and
1364:Generated_Source\PSoC5/Touch_ADC.c ****             *   conversion mode is Single sample
1365:Generated_Source\PSoC5/Touch_ADC.c ****             */
1366:Generated_Source\PSoC5/Touch_ADC.c ****             #if(Touch_ADC_CFG2_RESOLUTION > 16 && \
1367:Generated_Source\PSoC5/Touch_ADC.c ****                 Touch_ADC_CFG2_CONV_MODE == Touch_ADC_MODE_SINGLE_SAMPLE)
1368:Generated_Source\PSoC5/Touch_ADC.c ****                 Touch_ADC_stopConversion = 1u;
1369:Generated_Source\PSoC5/Touch_ADC.c ****             #endif /* Single sample with resolution above 16 bits. */
1370:Generated_Source\PSoC5/Touch_ADC.c **** 
1371:Generated_Source\PSoC5/Touch_ADC.c ****             Touch_ADC_CountsPerVolt = (int32)Touch_ADC_CFG2_COUNTS_PER_VOLT;
1372:Generated_Source\PSoC5/Touch_ADC.c **** 
1373:Generated_Source\PSoC5/Touch_ADC.c ****             Touch_ADC_Ext_CP_Clk_SetDividerRegister(Touch_ADC_CFG2_CP_CLK_DIVIDER, 1u);
1374:Generated_Source\PSoC5/Touch_ADC.c **** 
1375:Generated_Source\PSoC5/Touch_ADC.c ****             /* This is only valid if there is an internal clock */
1376:Generated_Source\PSoC5/Touch_ADC.c ****             #if(Touch_ADC_DEFAULT_INTERNAL_CLK)
1377:Generated_Source\PSoC5/Touch_ADC.c ****                 Touch_ADC_theACLK_SetDividerRegister(Touch_ADC_CFG2_ADC_CLK_DIVIDER, 1u);
1378:Generated_Source\PSoC5/Touch_ADC.c ****             #endif /* Touch_ADC_DEFAULT_INTERNAL_CLK */
1379:Generated_Source\PSoC5/Touch_ADC.c **** 
1380:Generated_Source\PSoC5/Touch_ADC.c ****             #if(Touch_ADC_IRQ_REMOVE == 0u)
1381:Generated_Source\PSoC5/Touch_ADC.c ****                 /* Set interrupt vector */
1382:Generated_Source\PSoC5/Touch_ADC.c ****                 (void)CyIntSetVector(Touch_ADC_INTC_NUMBER, &Touch_ADC_ISR2);
1383:Generated_Source\PSoC5/Touch_ADC.c ****             #endif   /* End Touch_ADC_IRQ_REMOVE */
1384:Generated_Source\PSoC5/Touch_ADC.c ****         }
1385:Generated_Source\PSoC5/Touch_ADC.c ****     #endif /* Touch_ADC_DEFAULT_NUM_CONFIGS > 1 */
1386:Generated_Source\PSoC5/Touch_ADC.c **** 
1387:Generated_Source\PSoC5/Touch_ADC.c ****     #if(Touch_ADC_DEFAULT_NUM_CONFIGS > 2)
1388:Generated_Source\PSoC5/Touch_ADC.c ****         if(config == 3u)
1389:Generated_Source\PSoC5/Touch_ADC.c ****         {
1390:Generated_Source\PSoC5/Touch_ADC.c ****             /* Third Config */
1391:Generated_Source\PSoC5/Touch_ADC.c ****             Touch_ADC_DEC_CR_REG      = Touch_ADC_CFG3_DEC_CR;
1392:Generated_Source\PSoC5/Touch_ADC.c ****             Touch_ADC_DEC_SHIFT1_REG  = Touch_ADC_CFG3_DEC_SHIFT1;
1393:Generated_Source\PSoC5/Touch_ADC.c ****             Touch_ADC_DEC_SHIFT2_REG  = Touch_ADC_CFG3_DEC_SHIFT2;
1394:Generated_Source\PSoC5/Touch_ADC.c ****             Touch_ADC_DEC_DR2_REG     = Touch_ADC_CFG3_DEC_DR2;
1395:Generated_Source\PSoC5/Touch_ADC.c ****             Touch_ADC_DEC_DR2H_REG    = Touch_ADC_CFG3_DEC_DR2H;
1396:Generated_Source\PSoC5/Touch_ADC.c ****             Touch_ADC_DEC_DR1_REG     = Touch_ADC_CFG3_DEC_DR1;
1397:Generated_Source\PSoC5/Touch_ADC.c ****             Touch_ADC_DEC_OCOR_REG    = Touch_ADC_CFG3_DEC_OCOR;
1398:Generated_Source\PSoC5/Touch_ADC.c ****             Touch_ADC_DEC_OCORM_REG   = Touch_ADC_CFG3_DEC_OCORM;
1399:Generated_Source\PSoC5/Touch_ADC.c ****             Touch_ADC_DEC_OCORH_REG   = Touch_ADC_CFG3_DEC_OCORH;
1400:Generated_Source\PSoC5/Touch_ADC.c ****             Touch_ADC_DEC_COHER_REG   = Touch_ADC_CFG3_DEC_COHER;
1401:Generated_Source\PSoC5/Touch_ADC.c **** 
1402:Generated_Source\PSoC5/Touch_ADC.c ****             Touch_ADC_DSM_CR4_REG     = Touch_ADC_CFG3_DSM_CR4;
1403:Generated_Source\PSoC5/Touch_ADC.c ****             Touch_ADC_DSM_CR5_REG     = Touch_ADC_CFG3_DSM_CR5;
1404:Generated_Source\PSoC5/Touch_ADC.c ****             Touch_ADC_DSM_CR6_REG     = Touch_ADC_CFG3_DSM_CR6;
1405:Generated_Source\PSoC5/Touch_ADC.c ****             Touch_ADC_DSM_CR7_REG     = Touch_ADC_CFG3_DSM_CR7;
1406:Generated_Source\PSoC5/Touch_ADC.c ****             Touch_ADC_DSM_CR10_REG    = Touch_ADC_CFG3_DSM_CR10;
1407:Generated_Source\PSoC5/Touch_ADC.c ****             Touch_ADC_DSM_CR11_REG    = Touch_ADC_CFG3_DSM_CR11;
1408:Generated_Source\PSoC5/Touch_ADC.c ****             Touch_ADC_DSM_CR12_REG    = Touch_ADC_CFG3_DSM_CR12;
1409:Generated_Source\PSoC5/Touch_ADC.c ****             Touch_ADC_DSM_CR14_REG    = Touch_ADC_CFG3_DSM_CR14;
1410:Generated_Source\PSoC5/Touch_ADC.c ****             Touch_ADC_DSM_CR15_REG    = Touch_ADC_CFG3_DSM_CR15;
1411:Generated_Source\PSoC5/Touch_ADC.c ****             Touch_ADC_DSM_CR16_REG    = Touch_ADC_CFG3_DSM_CR16;
1412:Generated_Source\PSoC5/Touch_ADC.c ****             Touch_ADC_DSM_CR17_REG    = Touch_ADC_CFG3_DSM_CR17;
1413:Generated_Source\PSoC5/Touch_ADC.c ****             /* Set DSM_REF0_REG by disabling and enabling the PRESS circuit */
ARM GAS  C:\Users\emman\AppData\Local\Temp\ccNpJWxM.s 			page 28


1414:Generated_Source\PSoC5/Touch_ADC.c ****             Touch_ADC_SetDSMRef0Reg(Touch_ADC_CFG3_DSM_REF0);
1415:Generated_Source\PSoC5/Touch_ADC.c ****             Touch_ADC_DSM_REF2_REG    = Touch_ADC_CFG3_DSM_REF2;
1416:Generated_Source\PSoC5/Touch_ADC.c ****             Touch_ADC_DSM_REF3_REG    = Touch_ADC_CFG3_DSM_REF3;
1417:Generated_Source\PSoC5/Touch_ADC.c **** 
1418:Generated_Source\PSoC5/Touch_ADC.c ****             Touch_ADC_DSM_BUF0_REG    = Touch_ADC_CFG3_DSM_BUF0;
1419:Generated_Source\PSoC5/Touch_ADC.c ****             Touch_ADC_DSM_BUF1_REG    = Touch_ADC_CFG3_DSM_BUF1;
1420:Generated_Source\PSoC5/Touch_ADC.c ****             Touch_ADC_DSM_BUF2_REG    = Touch_ADC_CFG3_DSM_BUF2;
1421:Generated_Source\PSoC5/Touch_ADC.c ****             Touch_ADC_DSM_BUF3_REG    = Touch_ADC_CFG3_DSM_BUF3;
1422:Generated_Source\PSoC5/Touch_ADC.c **** 
1423:Generated_Source\PSoC5/Touch_ADC.c ****             /* To select either Vssa or Vref to -ve input of DSM depending on
1424:Generated_Source\PSoC5/Touch_ADC.c ****             *  the input range selected.
1425:Generated_Source\PSoC5/Touch_ADC.c ****             */
1426:Generated_Source\PSoC5/Touch_ADC.c ****             #if(Touch_ADC_DEFAULT_INPUT_MODE)
1427:Generated_Source\PSoC5/Touch_ADC.c ****                 #if (Touch_ADC_CFG3_INPUT_RANGE == Touch_ADC_IR_VSSA_TO_2VREF)
1428:Generated_Source\PSoC5/Touch_ADC.c ****                     Touch_ADC_AMux_Select(1u);
1429:Generated_Source\PSoC5/Touch_ADC.c ****                 #else
1430:Generated_Source\PSoC5/Touch_ADC.c ****                     Touch_ADC_AMux_Select(0u);
1431:Generated_Source\PSoC5/Touch_ADC.c ****                 #endif /* Touch_ADC_IR_VSSA_TO_2VREF) */
1432:Generated_Source\PSoC5/Touch_ADC.c ****             #endif /* Touch_ADC_DEFAULT_INPUT_MODE */
1433:Generated_Source\PSoC5/Touch_ADC.c **** 
1434:Generated_Source\PSoC5/Touch_ADC.c ****             /* Set the Conversion stop if resolution is above 16 bit and
1435:Generated_Source\PSoC5/Touch_ADC.c ****                conversion  mode is Single sample */
1436:Generated_Source\PSoC5/Touch_ADC.c ****             #if(Touch_ADC_CFG3_RESOLUTION > 16 && \
1437:Generated_Source\PSoC5/Touch_ADC.c ****                 Touch_ADC_CFG3_CONV_MODE == Touch_ADC_MODE_SINGLE_SAMPLE)
1438:Generated_Source\PSoC5/Touch_ADC.c ****                 Touch_ADC_stopConversion = 1u;
1439:Generated_Source\PSoC5/Touch_ADC.c ****             #endif /* Single sample with resolution above 16 bits */
1440:Generated_Source\PSoC5/Touch_ADC.c **** 
1441:Generated_Source\PSoC5/Touch_ADC.c ****             Touch_ADC_CountsPerVolt = (int32)Touch_ADC_CFG3_COUNTS_PER_VOLT;
1442:Generated_Source\PSoC5/Touch_ADC.c **** 
1443:Generated_Source\PSoC5/Touch_ADC.c ****             Touch_ADC_Ext_CP_Clk_SetDividerRegister(Touch_ADC_CFG3_CP_CLK_DIVIDER, 1u);
1444:Generated_Source\PSoC5/Touch_ADC.c **** 
1445:Generated_Source\PSoC5/Touch_ADC.c ****             /* This is only valid if there is an internal clock */
1446:Generated_Source\PSoC5/Touch_ADC.c ****             #if(Touch_ADC_DEFAULT_INTERNAL_CLK)
1447:Generated_Source\PSoC5/Touch_ADC.c ****                 Touch_ADC_theACLK_SetDividerRegister(Touch_ADC_CFG3_ADC_CLK_DIVIDER, 1u);
1448:Generated_Source\PSoC5/Touch_ADC.c ****             #endif /* Touch_ADC_DEFAULT_INTERNAL_CLK */
1449:Generated_Source\PSoC5/Touch_ADC.c **** 
1450:Generated_Source\PSoC5/Touch_ADC.c ****             #if(Touch_ADC_IRQ_REMOVE == 0u)
1451:Generated_Source\PSoC5/Touch_ADC.c ****                 /* Set interrupt vector */
1452:Generated_Source\PSoC5/Touch_ADC.c ****                 (void)CyIntSetVector(Touch_ADC_INTC_NUMBER, &Touch_ADC_ISR3);
1453:Generated_Source\PSoC5/Touch_ADC.c ****             #endif   /* End Touch_ADC_IRQ_REMOVE */
1454:Generated_Source\PSoC5/Touch_ADC.c ****         }
1455:Generated_Source\PSoC5/Touch_ADC.c ****     #endif /* Touch_ADC_DEFAULT_NUM_CONFIGS > 2 */
1456:Generated_Source\PSoC5/Touch_ADC.c **** 
1457:Generated_Source\PSoC5/Touch_ADC.c ****     #if(Touch_ADC_DEFAULT_NUM_CONFIGS > 3)
1458:Generated_Source\PSoC5/Touch_ADC.c ****         if (config == 4u)
1459:Generated_Source\PSoC5/Touch_ADC.c ****         {
1460:Generated_Source\PSoC5/Touch_ADC.c ****             /* Fourth Config */
1461:Generated_Source\PSoC5/Touch_ADC.c ****             Touch_ADC_DEC_CR_REG      = Touch_ADC_CFG4_DEC_CR;
1462:Generated_Source\PSoC5/Touch_ADC.c ****             Touch_ADC_DEC_SHIFT1_REG  = Touch_ADC_CFG4_DEC_SHIFT1;
1463:Generated_Source\PSoC5/Touch_ADC.c ****             Touch_ADC_DEC_SHIFT2_REG  = Touch_ADC_CFG4_DEC_SHIFT2;
1464:Generated_Source\PSoC5/Touch_ADC.c ****             Touch_ADC_DEC_DR2_REG     = Touch_ADC_CFG4_DEC_DR2;
1465:Generated_Source\PSoC5/Touch_ADC.c ****             Touch_ADC_DEC_DR2H_REG    = Touch_ADC_CFG4_DEC_DR2H;
1466:Generated_Source\PSoC5/Touch_ADC.c ****             Touch_ADC_DEC_DR1_REG     = Touch_ADC_CFG4_DEC_DR1;
1467:Generated_Source\PSoC5/Touch_ADC.c ****             Touch_ADC_DEC_OCOR_REG    = Touch_ADC_CFG4_DEC_OCOR;
1468:Generated_Source\PSoC5/Touch_ADC.c ****             Touch_ADC_DEC_OCORM_REG   = Touch_ADC_CFG4_DEC_OCORM;
1469:Generated_Source\PSoC5/Touch_ADC.c ****             Touch_ADC_DEC_OCORH_REG   = Touch_ADC_CFG4_DEC_OCORH;
1470:Generated_Source\PSoC5/Touch_ADC.c ****             Touch_ADC_DEC_COHER_REG   = Touch_ADC_CFG4_DEC_COHER;
ARM GAS  C:\Users\emman\AppData\Local\Temp\ccNpJWxM.s 			page 29


1471:Generated_Source\PSoC5/Touch_ADC.c **** 
1472:Generated_Source\PSoC5/Touch_ADC.c ****             Touch_ADC_DSM_CR4_REG     = Touch_ADC_CFG4_DSM_CR4;
1473:Generated_Source\PSoC5/Touch_ADC.c ****             Touch_ADC_DSM_CR5_REG     = Touch_ADC_CFG4_DSM_CR5;
1474:Generated_Source\PSoC5/Touch_ADC.c ****             Touch_ADC_DSM_CR6_REG     = Touch_ADC_CFG4_DSM_CR6;
1475:Generated_Source\PSoC5/Touch_ADC.c ****             Touch_ADC_DSM_CR7_REG     = Touch_ADC_CFG4_DSM_CR7;
1476:Generated_Source\PSoC5/Touch_ADC.c ****             Touch_ADC_DSM_CR10_REG    = Touch_ADC_CFG4_DSM_CR10;
1477:Generated_Source\PSoC5/Touch_ADC.c ****             Touch_ADC_DSM_CR11_REG    = Touch_ADC_CFG4_DSM_CR11;
1478:Generated_Source\PSoC5/Touch_ADC.c ****             Touch_ADC_DSM_CR12_REG    = Touch_ADC_CFG4_DSM_CR12;
1479:Generated_Source\PSoC5/Touch_ADC.c ****             Touch_ADC_DSM_CR14_REG    = Touch_ADC_CFG4_DSM_CR14;
1480:Generated_Source\PSoC5/Touch_ADC.c ****             Touch_ADC_DSM_CR15_REG    = Touch_ADC_CFG4_DSM_CR15;
1481:Generated_Source\PSoC5/Touch_ADC.c ****             Touch_ADC_DSM_CR16_REG    = Touch_ADC_CFG4_DSM_CR16;
1482:Generated_Source\PSoC5/Touch_ADC.c ****             Touch_ADC_DSM_CR17_REG    = Touch_ADC_CFG4_DSM_CR17;
1483:Generated_Source\PSoC5/Touch_ADC.c ****             /* Set DSM_REF0_REG by disabling and enabling the PRESS circuit */
1484:Generated_Source\PSoC5/Touch_ADC.c ****             Touch_ADC_SetDSMRef0Reg(Touch_ADC_CFG4_DSM_REF0);
1485:Generated_Source\PSoC5/Touch_ADC.c ****             Touch_ADC_DSM_REF2_REG    = Touch_ADC_CFG4_DSM_REF2;
1486:Generated_Source\PSoC5/Touch_ADC.c ****             Touch_ADC_DSM_REF3_REG    = Touch_ADC_CFG4_DSM_REF3;
1487:Generated_Source\PSoC5/Touch_ADC.c **** 
1488:Generated_Source\PSoC5/Touch_ADC.c ****             Touch_ADC_DSM_BUF0_REG    = Touch_ADC_CFG4_DSM_BUF0;
1489:Generated_Source\PSoC5/Touch_ADC.c ****             Touch_ADC_DSM_BUF1_REG    = Touch_ADC_CFG4_DSM_BUF1;
1490:Generated_Source\PSoC5/Touch_ADC.c ****             Touch_ADC_DSM_BUF2_REG    = Touch_ADC_CFG4_DSM_BUF2;
1491:Generated_Source\PSoC5/Touch_ADC.c ****             Touch_ADC_DSM_BUF3_REG    = Touch_ADC_CFG4_DSM_BUF3;
1492:Generated_Source\PSoC5/Touch_ADC.c **** 
1493:Generated_Source\PSoC5/Touch_ADC.c ****             /* To select either Vssa or Vref to -ve input of DSM depending on
1494:Generated_Source\PSoC5/Touch_ADC.c ****             *  the input range selected.
1495:Generated_Source\PSoC5/Touch_ADC.c ****             */
1496:Generated_Source\PSoC5/Touch_ADC.c ****             #if(Touch_ADC_DEFAULT_INPUT_MODE)
1497:Generated_Source\PSoC5/Touch_ADC.c ****                 #if (Touch_ADC_CFG4_INPUT_RANGE == Touch_ADC_IR_VSSA_TO_2VREF)
1498:Generated_Source\PSoC5/Touch_ADC.c ****                     Touch_ADC_AMux_Select(1u);
1499:Generated_Source\PSoC5/Touch_ADC.c ****                 #else
1500:Generated_Source\PSoC5/Touch_ADC.c ****                     Touch_ADC_AMux_Select(0u);
1501:Generated_Source\PSoC5/Touch_ADC.c ****                 #endif /* Touch_ADC_IR_VSSA_TO_2VREF) */
1502:Generated_Source\PSoC5/Touch_ADC.c ****             #endif /* Touch_ADC_DEFAULT_INPUT_MODE */
1503:Generated_Source\PSoC5/Touch_ADC.c **** 
1504:Generated_Source\PSoC5/Touch_ADC.c ****             /* Set the Conversion stop if resolution is above 16 bit and
1505:Generated_Source\PSoC5/Touch_ADC.c ****                conversion mode is Single sample */
1506:Generated_Source\PSoC5/Touch_ADC.c ****             #if(Touch_ADC_CFG4_RESOLUTION > 16 && \
1507:Generated_Source\PSoC5/Touch_ADC.c ****                 Touch_ADC_CFG4_CONV_MODE == Touch_ADC_MODE_SINGLE_SAMPLE)
1508:Generated_Source\PSoC5/Touch_ADC.c ****                 Touch_ADC_stopConversion = 1u;
1509:Generated_Source\PSoC5/Touch_ADC.c ****             #endif /* Single sample with resolution above 16 bits */
1510:Generated_Source\PSoC5/Touch_ADC.c **** 
1511:Generated_Source\PSoC5/Touch_ADC.c ****             Touch_ADC_CountsPerVolt = (int32)Touch_ADC_CFG4_COUNTS_PER_VOLT;
1512:Generated_Source\PSoC5/Touch_ADC.c **** 
1513:Generated_Source\PSoC5/Touch_ADC.c ****             Touch_ADC_Ext_CP_Clk_SetDividerRegister(Touch_ADC_CFG4_CP_CLK_DIVIDER, 1u);
1514:Generated_Source\PSoC5/Touch_ADC.c **** 
1515:Generated_Source\PSoC5/Touch_ADC.c ****             /* This is only valid if there is an internal clock */
1516:Generated_Source\PSoC5/Touch_ADC.c ****             #if(Touch_ADC_DEFAULT_INTERNAL_CLK)
1517:Generated_Source\PSoC5/Touch_ADC.c ****                 Touch_ADC_theACLK_SetDividerRegister(Touch_ADC_CFG4_ADC_CLK_DIVIDER, 1u);
1518:Generated_Source\PSoC5/Touch_ADC.c ****             #endif /* Touch_ADC_DEFAULT_INTERNAL_CLK */
1519:Generated_Source\PSoC5/Touch_ADC.c **** 
1520:Generated_Source\PSoC5/Touch_ADC.c ****             #if(Touch_ADC_IRQ_REMOVE == 0u)
1521:Generated_Source\PSoC5/Touch_ADC.c ****                 /* Set interrupt vector */
1522:Generated_Source\PSoC5/Touch_ADC.c ****                 (void)CyIntSetVector(Touch_ADC_INTC_NUMBER, &Touch_ADC_ISR4);
1523:Generated_Source\PSoC5/Touch_ADC.c ****             #endif   /* End Touch_ADC_IRQ_REMOVE */
1524:Generated_Source\PSoC5/Touch_ADC.c ****         }
1525:Generated_Source\PSoC5/Touch_ADC.c ****     #endif /* Touch_ADC_DEFAULT_NUM_CONFIGS > 3 */
1526:Generated_Source\PSoC5/Touch_ADC.c **** }
1527:Generated_Source\PSoC5/Touch_ADC.c **** 
ARM GAS  C:\Users\emman\AppData\Local\Temp\ccNpJWxM.s 			page 30


1528:Generated_Source\PSoC5/Touch_ADC.c **** 
1529:Generated_Source\PSoC5/Touch_ADC.c **** /*******************************************************************************
1530:Generated_Source\PSoC5/Touch_ADC.c **** * Function Name: Touch_ADC_SelectCofiguration
1531:Generated_Source\PSoC5/Touch_ADC.c **** ********************************************************************************
1532:Generated_Source\PSoC5/Touch_ADC.c **** *
1533:Generated_Source\PSoC5/Touch_ADC.c **** * Summary:
1534:Generated_Source\PSoC5/Touch_ADC.c **** *  Sets one of up to four ADC configurations. Before setting the new
1535:Generated_Source\PSoC5/Touch_ADC.c **** *  configuration, the ADC is stopped and powered down. After setting
1536:Generated_Source\PSoC5/Touch_ADC.c **** *  the new configuration, the ADC can be powered and conversion
1537:Generated_Source\PSoC5/Touch_ADC.c **** *  can be restarted depending up on the value of second parameter
1538:Generated_Source\PSoC5/Touch_ADC.c **** *  restart. If the value of this parameter is 1, then ADC will be
1539:Generated_Source\PSoC5/Touch_ADC.c **** *  restarted. If this value is zero, then user must call Touch_ADC_Start
1540:Generated_Source\PSoC5/Touch_ADC.c **** *  and Touch_ADC_StartConvert() to restart the conversion.
1541:Generated_Source\PSoC5/Touch_ADC.c **** *
1542:Generated_Source\PSoC5/Touch_ADC.c **** * Parameters:
1543:Generated_Source\PSoC5/Touch_ADC.c **** *  config:  configuration user wants to select.
1544:Generated_Source\PSoC5/Touch_ADC.c **** *           Valid range: 1..4
1545:Generated_Source\PSoC5/Touch_ADC.c **** *  restart:  Restart option. 1 means start the ADC and restart the conversion.
1546:Generated_Source\PSoC5/Touch_ADC.c **** *                            0 means do not start the ADC and conversion.
1547:Generated_Source\PSoC5/Touch_ADC.c **** *
1548:Generated_Source\PSoC5/Touch_ADC.c **** * Return:
1549:Generated_Source\PSoC5/Touch_ADC.c **** *  None
1550:Generated_Source\PSoC5/Touch_ADC.c **** *
1551:Generated_Source\PSoC5/Touch_ADC.c **** *******************************************************************************/
1552:Generated_Source\PSoC5/Touch_ADC.c **** void Touch_ADC_SelectConfiguration(uint8 config, uint8 restart)
1553:Generated_Source\PSoC5/Touch_ADC.c ****                                               
1554:Generated_Source\PSoC5/Touch_ADC.c **** {
1555:Generated_Source\PSoC5/Touch_ADC.c ****     /* Check whether the configuration number is valid or not */
1556:Generated_Source\PSoC5/Touch_ADC.c ****     if((config > 0u) && (config <= Touch_ADC_DEFAULT_NUM_CONFIGS))
1557:Generated_Source\PSoC5/Touch_ADC.c ****     {
1558:Generated_Source\PSoC5/Touch_ADC.c ****         /* Set the flag to ensure Start() API doesn't override the 
1559:Generated_Source\PSoC5/Touch_ADC.c **** 		*  selected configuration
1560:Generated_Source\PSoC5/Touch_ADC.c **** 		*/
1561:Generated_Source\PSoC5/Touch_ADC.c ****         if(Touch_ADC_initVar == 0u)
1562:Generated_Source\PSoC5/Touch_ADC.c ****         {
1563:Generated_Source\PSoC5/Touch_ADC.c ****             Touch_ADC_started = 1u;
1564:Generated_Source\PSoC5/Touch_ADC.c ****         }
1565:Generated_Source\PSoC5/Touch_ADC.c **** 
1566:Generated_Source\PSoC5/Touch_ADC.c ****         /* Update the config flag */
1567:Generated_Source\PSoC5/Touch_ADC.c ****         Touch_ADC_Config = config;
1568:Generated_Source\PSoC5/Touch_ADC.c **** 
1569:Generated_Source\PSoC5/Touch_ADC.c ****         /* Stop the ADC  */
1570:Generated_Source\PSoC5/Touch_ADC.c ****         Touch_ADC_Stop();
1571:Generated_Source\PSoC5/Touch_ADC.c **** 
1572:Generated_Source\PSoC5/Touch_ADC.c ****         /* Set the  ADC registers based on the configuration */
1573:Generated_Source\PSoC5/Touch_ADC.c ****         Touch_ADC_InitConfig(config);
1574:Generated_Source\PSoC5/Touch_ADC.c **** 
1575:Generated_Source\PSoC5/Touch_ADC.c ****         /* Compensate the gain */
1576:Generated_Source\PSoC5/Touch_ADC.c ****         Touch_ADC_DEC_GVAL_REG = Touch_ADC_gcor[config - 1u].gval;
1577:Generated_Source\PSoC5/Touch_ADC.c ****         CY_SET_REG16(Touch_ADC_DEC_GCOR_16B_PTR, Touch_ADC_gcor[config - 1u].gcor);
1578:Generated_Source\PSoC5/Touch_ADC.c **** 
1579:Generated_Source\PSoC5/Touch_ADC.c ****         if(restart == 1u)
1580:Generated_Source\PSoC5/Touch_ADC.c ****         {
1581:Generated_Source\PSoC5/Touch_ADC.c ****             /* Restart the ADC */
1582:Generated_Source\PSoC5/Touch_ADC.c ****             Touch_ADC_Start();
1583:Generated_Source\PSoC5/Touch_ADC.c **** 
1584:Generated_Source\PSoC5/Touch_ADC.c ****             /* Restart the ADC conversion */
ARM GAS  C:\Users\emman\AppData\Local\Temp\ccNpJWxM.s 			page 31


1585:Generated_Source\PSoC5/Touch_ADC.c ****             Touch_ADC_StartConvert();
1586:Generated_Source\PSoC5/Touch_ADC.c ****         }
1587:Generated_Source\PSoC5/Touch_ADC.c ****     }
1588:Generated_Source\PSoC5/Touch_ADC.c ****     else
1589:Generated_Source\PSoC5/Touch_ADC.c ****     {
1590:Generated_Source\PSoC5/Touch_ADC.c ****         /* Halt CPU in debug mode if config is out of valid range */
1591:Generated_Source\PSoC5/Touch_ADC.c ****         CYASSERT(0u != 0u);
1592:Generated_Source\PSoC5/Touch_ADC.c ****     }
1593:Generated_Source\PSoC5/Touch_ADC.c **** }
1594:Generated_Source\PSoC5/Touch_ADC.c **** 
1595:Generated_Source\PSoC5/Touch_ADC.c **** 
1596:Generated_Source\PSoC5/Touch_ADC.c **** /*******************************************************************************
1597:Generated_Source\PSoC5/Touch_ADC.c **** * Function Name: Touch_ADC_GainCompensation
1598:Generated_Source\PSoC5/Touch_ADC.c **** ********************************************************************************
1599:Generated_Source\PSoC5/Touch_ADC.c **** *
1600:Generated_Source\PSoC5/Touch_ADC.c **** * Summary:
1601:Generated_Source\PSoC5/Touch_ADC.c **** *  This API calculates the trim value and then store this to gcor structure.
1602:Generated_Source\PSoC5/Touch_ADC.c **** *
1603:Generated_Source\PSoC5/Touch_ADC.c **** * Parameters:
1604:Generated_Source\PSoC5/Touch_ADC.c **** *  inputRange:  input range for which trim value is to be calculated.
1605:Generated_Source\PSoC5/Touch_ADC.c **** *  IdealDecGain:  Ideal Decimator gain for the selected resolution and
1606:Generated_Source\PSoC5/Touch_ADC.c **** *                 conversion  mode.
1607:Generated_Source\PSoC5/Touch_ADC.c **** *  IdealOddDecGain:  Ideal odd decimation gain for the selected resolution and
1608:Generated_Source\PSoC5/Touch_ADC.c ****                      conversion mode.
1609:Generated_Source\PSoC5/Touch_ADC.c **** *  resolution:  Resolution to select the proper flash location for trim value.
1610:Generated_Source\PSoC5/Touch_ADC.c **** *  config:      Specifies the configuration number
1611:Generated_Source\PSoC5/Touch_ADC.c **** *               Valid range: 1..4
1612:Generated_Source\PSoC5/Touch_ADC.c **** *
1613:Generated_Source\PSoC5/Touch_ADC.c **** * Return:
1614:Generated_Source\PSoC5/Touch_ADC.c **** *  None
1615:Generated_Source\PSoC5/Touch_ADC.c **** *
1616:Generated_Source\PSoC5/Touch_ADC.c **** *******************************************************************************/
1617:Generated_Source\PSoC5/Touch_ADC.c **** static void Touch_ADC_GainCompensation(uint8 inputRange, uint16 idealDecGain, uint16 idealOddDecGai
1618:Generated_Source\PSoC5/Touch_ADC.c ****                               uint8 resolution, uint8 config) 
1619:Generated_Source\PSoC5/Touch_ADC.c **** {
1620:Generated_Source\PSoC5/Touch_ADC.c ****     int8 flash;
1621:Generated_Source\PSoC5/Touch_ADC.c **** 	int32 normalised;
1622:Generated_Source\PSoC5/Touch_ADC.c **** 	uint16 gcorValue;
1623:Generated_Source\PSoC5/Touch_ADC.c ****     uint32 gcorTmp;
1624:Generated_Source\PSoC5/Touch_ADC.c **** 
1625:Generated_Source\PSoC5/Touch_ADC.c ****     if((config > 0u) && (config <= Touch_ADC_DEFAULT_NUM_CONFIGS))
1626:Generated_Source\PSoC5/Touch_ADC.c ****     {
1627:Generated_Source\PSoC5/Touch_ADC.c ****         switch(inputRange)
1628:Generated_Source\PSoC5/Touch_ADC.c ****         {
1629:Generated_Source\PSoC5/Touch_ADC.c ****             case Touch_ADC_IR_VNEG_VREF_DIFF:
1630:Generated_Source\PSoC5/Touch_ADC.c ****             case Touch_ADC_IR_VSSA_TO_2VREF:
1631:Generated_Source\PSoC5/Touch_ADC.c ****                 /* Normalize the flash Value */
1632:Generated_Source\PSoC5/Touch_ADC.c ****                 if(resolution > 15u)
1633:Generated_Source\PSoC5/Touch_ADC.c ****                 {
1634:Generated_Source\PSoC5/Touch_ADC.c ****                     flash = Touch_ADC_DEC_TRIM_VREF_DIFF_16_20;
1635:Generated_Source\PSoC5/Touch_ADC.c ****                 }
1636:Generated_Source\PSoC5/Touch_ADC.c ****                 else
1637:Generated_Source\PSoC5/Touch_ADC.c ****                 {
1638:Generated_Source\PSoC5/Touch_ADC.c ****                     flash = Touch_ADC_DEC_TRIM_VREF_DIFF_8_15;
1639:Generated_Source\PSoC5/Touch_ADC.c ****                 }
1640:Generated_Source\PSoC5/Touch_ADC.c ****                 break;
1641:Generated_Source\PSoC5/Touch_ADC.c **** 
ARM GAS  C:\Users\emman\AppData\Local\Temp\ccNpJWxM.s 			page 32


1642:Generated_Source\PSoC5/Touch_ADC.c ****             case Touch_ADC_IR_VNEG_VREF_2_DIFF:
1643:Generated_Source\PSoC5/Touch_ADC.c ****                 /* Normalize the flash Value */
1644:Generated_Source\PSoC5/Touch_ADC.c ****                 if(resolution > 15u)
1645:Generated_Source\PSoC5/Touch_ADC.c ****                 {
1646:Generated_Source\PSoC5/Touch_ADC.c ****                     flash = Touch_ADC_DEC_TRIM_VREF_2_DIFF_16_20;
1647:Generated_Source\PSoC5/Touch_ADC.c ****                 }
1648:Generated_Source\PSoC5/Touch_ADC.c ****                 else
1649:Generated_Source\PSoC5/Touch_ADC.c ****                 {
1650:Generated_Source\PSoC5/Touch_ADC.c ****                     flash = Touch_ADC_DEC_TRIM_VREF_2_DIFF_8_15;
1651:Generated_Source\PSoC5/Touch_ADC.c ****                 }
1652:Generated_Source\PSoC5/Touch_ADC.c ****                 break;
1653:Generated_Source\PSoC5/Touch_ADC.c **** 
1654:Generated_Source\PSoC5/Touch_ADC.c ****             case Touch_ADC_IR_VNEG_VREF_4_DIFF:
1655:Generated_Source\PSoC5/Touch_ADC.c ****                 /* Normalize the flash Value */
1656:Generated_Source\PSoC5/Touch_ADC.c ****                 if(resolution > 15u)
1657:Generated_Source\PSoC5/Touch_ADC.c ****                 {
1658:Generated_Source\PSoC5/Touch_ADC.c ****                     flash = Touch_ADC_DEC_TRIM_VREF_4_DIFF_16_20;
1659:Generated_Source\PSoC5/Touch_ADC.c ****                 }
1660:Generated_Source\PSoC5/Touch_ADC.c ****                 else
1661:Generated_Source\PSoC5/Touch_ADC.c ****                 {
1662:Generated_Source\PSoC5/Touch_ADC.c ****                     flash = Touch_ADC_DEC_TRIM_VREF_4_DIFF_8_15;
1663:Generated_Source\PSoC5/Touch_ADC.c ****                 }
1664:Generated_Source\PSoC5/Touch_ADC.c ****                 break;
1665:Generated_Source\PSoC5/Touch_ADC.c **** 
1666:Generated_Source\PSoC5/Touch_ADC.c ****             case Touch_ADC_IR_VNEG_VREF_16_DIFF:
1667:Generated_Source\PSoC5/Touch_ADC.c ****                 /* Normalize the flash Value */
1668:Generated_Source\PSoC5/Touch_ADC.c ****                 if(resolution > 15u)
1669:Generated_Source\PSoC5/Touch_ADC.c ****                 {
1670:Generated_Source\PSoC5/Touch_ADC.c ****                     flash = Touch_ADC_DEC_TRIM_VREF_16_DIFF_16_20;
1671:Generated_Source\PSoC5/Touch_ADC.c ****                 }
1672:Generated_Source\PSoC5/Touch_ADC.c ****                 else
1673:Generated_Source\PSoC5/Touch_ADC.c ****                 {
1674:Generated_Source\PSoC5/Touch_ADC.c ****                     flash = Touch_ADC_DEC_TRIM_VREF_16_DIFF_8_15;
1675:Generated_Source\PSoC5/Touch_ADC.c ****                 }
1676:Generated_Source\PSoC5/Touch_ADC.c ****                 break;
1677:Generated_Source\PSoC5/Touch_ADC.c **** 
1678:Generated_Source\PSoC5/Touch_ADC.c ****             default:
1679:Generated_Source\PSoC5/Touch_ADC.c ****                 flash = 0;
1680:Generated_Source\PSoC5/Touch_ADC.c ****                 break;
1681:Generated_Source\PSoC5/Touch_ADC.c ****         }
1682:Generated_Source\PSoC5/Touch_ADC.c **** 
1683:Generated_Source\PSoC5/Touch_ADC.c ****         /* Add two values */
1684:Generated_Source\PSoC5/Touch_ADC.c **** 		normalised = (int32)idealDecGain + ((int32)flash * 32);
1685:Generated_Source\PSoC5/Touch_ADC.c ****         gcorTmp = (uint32)normalised * (uint32)idealOddDecGain;
1686:Generated_Source\PSoC5/Touch_ADC.c ****         gcorValue = (uint16)(gcorTmp / Touch_ADC_IDEAL_GAIN_CONST);
1687:Generated_Source\PSoC5/Touch_ADC.c **** 
1688:Generated_Source\PSoC5/Touch_ADC.c ****         if (resolution < (Touch_ADC_MAX_GVAL - 1u))
1689:Generated_Source\PSoC5/Touch_ADC.c ****         {
1690:Generated_Source\PSoC5/Touch_ADC.c ****             gcorValue = (gcorValue >> (Touch_ADC_MAX_GVAL - (resolution + 1u)));
1691:Generated_Source\PSoC5/Touch_ADC.c ****             Touch_ADC_gcor[config - 1u].gval = (resolution + 1u);
1692:Generated_Source\PSoC5/Touch_ADC.c ****         }
1693:Generated_Source\PSoC5/Touch_ADC.c ****         else
1694:Generated_Source\PSoC5/Touch_ADC.c ****         {
1695:Generated_Source\PSoC5/Touch_ADC.c ****             /* Use all 16 bits */
1696:Generated_Source\PSoC5/Touch_ADC.c ****             Touch_ADC_gcor[config - 1u].gval = Touch_ADC_MAX_GVAL;
1697:Generated_Source\PSoC5/Touch_ADC.c ****         }
1698:Generated_Source\PSoC5/Touch_ADC.c **** 
ARM GAS  C:\Users\emman\AppData\Local\Temp\ccNpJWxM.s 			page 33


1699:Generated_Source\PSoC5/Touch_ADC.c ****         /* Save the gain correction register value */
1700:Generated_Source\PSoC5/Touch_ADC.c ****         Touch_ADC_gcor[config - 1u].gcor = gcorValue;
1701:Generated_Source\PSoC5/Touch_ADC.c ****     }
1702:Generated_Source\PSoC5/Touch_ADC.c ****     else
1703:Generated_Source\PSoC5/Touch_ADC.c ****     {
1704:Generated_Source\PSoC5/Touch_ADC.c ****         /* Halt CPU in debug mode if config is out of valid range */
1705:Generated_Source\PSoC5/Touch_ADC.c ****         CYASSERT(0u != 0u);
1706:Generated_Source\PSoC5/Touch_ADC.c ****     }
1707:Generated_Source\PSoC5/Touch_ADC.c **** }
1708:Generated_Source\PSoC5/Touch_ADC.c **** 
1709:Generated_Source\PSoC5/Touch_ADC.c **** 
1710:Generated_Source\PSoC5/Touch_ADC.c **** /******************************************************************************
1711:Generated_Source\PSoC5/Touch_ADC.c **** * Function Name: Touch_ADC_SetDSMRef0Reg(uint8)
1712:Generated_Source\PSoC5/Touch_ADC.c **** ******************************************************************************
1713:Generated_Source\PSoC5/Touch_ADC.c **** *
1714:Generated_Source\PSoC5/Touch_ADC.c **** * Summary:
1715:Generated_Source\PSoC5/Touch_ADC.c **** *  This API sets the DSM_REF0 register. This is written for internal use.
1716:Generated_Source\PSoC5/Touch_ADC.c **** *
1717:Generated_Source\PSoC5/Touch_ADC.c **** * Parameters:
1718:Generated_Source\PSoC5/Touch_ADC.c **** *  value:  Value to be written to DSM_REF0 register.
1719:Generated_Source\PSoC5/Touch_ADC.c **** *
1720:Generated_Source\PSoC5/Touch_ADC.c **** * Return:
1721:Generated_Source\PSoC5/Touch_ADC.c **** *  None
1722:Generated_Source\PSoC5/Touch_ADC.c **** *
1723:Generated_Source\PSoC5/Touch_ADC.c **** ******************************************************************************/
1724:Generated_Source\PSoC5/Touch_ADC.c **** static void Touch_ADC_SetDSMRef0Reg(uint8 value) 
1725:Generated_Source\PSoC5/Touch_ADC.c **** {
1726:Generated_Source\PSoC5/Touch_ADC.c ****     uint8 enableInterrupts;
1727:Generated_Source\PSoC5/Touch_ADC.c ****     enableInterrupts = CyEnterCriticalSection();
 115              		.loc 1 1727 0
 116 006a FFF7FEFF 		bl	CyEnterCriticalSection
 117              	.LVL2:
 118 006e 8246     		mov	r10, r0
 119              	.LVL3:
1728:Generated_Source\PSoC5/Touch_ADC.c **** 
1729:Generated_Source\PSoC5/Touch_ADC.c ****     /* Disable PRES, Enable power to VCMBUF0, REFBUF0 and REFBUF1, enable PRES */
1730:Generated_Source\PSoC5/Touch_ADC.c ****     Touch_ADC_RESET_CR4_REG |= (Touch_ADC_IGNORE_PRESA1 | Touch_ADC_IGNORE_PRESD1);
 120              		.loc 1 1730 0
 121 0070 1D4F     		ldr	r7, .L2+4
1731:Generated_Source\PSoC5/Touch_ADC.c ****     Touch_ADC_RESET_CR5_REG |= (Touch_ADC_IGNORE_PRESA2 | Touch_ADC_IGNORE_PRESD2);
 122              		.loc 1 1731 0
 123 0072 1E4E     		ldr	r6, .L2+8
1730:Generated_Source\PSoC5/Touch_ADC.c ****     Touch_ADC_RESET_CR5_REG |= (Touch_ADC_IGNORE_PRESA2 | Touch_ADC_IGNORE_PRESD2);
 124              		.loc 1 1730 0
 125 0074 3B78     		ldrb	r3, [r7]	@ zero_extendqisi2
1732:Generated_Source\PSoC5/Touch_ADC.c ****     Touch_ADC_DSM_REF0_REG = value;
 126              		.loc 1 1732 0
 127 0076 5222     		movs	r2, #82
1730:Generated_Source\PSoC5/Touch_ADC.c ****     Touch_ADC_RESET_CR5_REG |= (Touch_ADC_IGNORE_PRESA2 | Touch_ADC_IGNORE_PRESD2);
 128              		.loc 1 1730 0
 129 0078 43F00303 		orr	r3, r3, #3
 130 007c 3B70     		strb	r3, [r7]
1731:Generated_Source\PSoC5/Touch_ADC.c ****     Touch_ADC_RESET_CR5_REG |= (Touch_ADC_IGNORE_PRESA2 | Touch_ADC_IGNORE_PRESD2);
 131              		.loc 1 1731 0
 132 007e 3378     		ldrb	r3, [r6]	@ zero_extendqisi2
1733:Generated_Source\PSoC5/Touch_ADC.c **** 
1734:Generated_Source\PSoC5/Touch_ADC.c ****     /* Wait for 3 microseconds */
ARM GAS  C:\Users\emman\AppData\Local\Temp\ccNpJWxM.s 			page 34


1735:Generated_Source\PSoC5/Touch_ADC.c ****     CyDelayUs(Touch_ADC_PRES_DELAY_TIME);
 133              		.loc 1 1735 0
 134 0080 0320     		movs	r0, #3
1731:Generated_Source\PSoC5/Touch_ADC.c ****     Touch_ADC_DSM_REF0_REG = value;
 135              		.loc 1 1731 0
 136 0082 43F00303 		orr	r3, r3, #3
 137 0086 3370     		strb	r3, [r6]
1732:Generated_Source\PSoC5/Touch_ADC.c ****     Touch_ADC_DSM_REF0_REG = value;
 138              		.loc 1 1732 0
 139 0088 194B     		ldr	r3, .L2+12
 140 008a 1A70     		strb	r2, [r3]
 141              		.loc 1 1735 0
 142 008c FFF7FEFF 		bl	CyDelayUs
 143              	.LVL4:
1736:Generated_Source\PSoC5/Touch_ADC.c ****     /* Enable the press circuit */
1737:Generated_Source\PSoC5/Touch_ADC.c ****     Touch_ADC_RESET_CR4_REG &= (uint8)~(Touch_ADC_IGNORE_PRESA1 | Touch_ADC_IGNORE_PRESD1);
 144              		.loc 1 1737 0
 145 0090 3B78     		ldrb	r3, [r7]	@ zero_extendqisi2
1738:Generated_Source\PSoC5/Touch_ADC.c ****     Touch_ADC_RESET_CR5_REG &= (uint8)~(Touch_ADC_IGNORE_PRESA2 | Touch_ADC_IGNORE_PRESD2);
1739:Generated_Source\PSoC5/Touch_ADC.c **** 
1740:Generated_Source\PSoC5/Touch_ADC.c ****     CyExitCriticalSection(enableInterrupts);
 146              		.loc 1 1740 0
 147 0092 5046     		mov	r0, r10
1737:Generated_Source\PSoC5/Touch_ADC.c ****     Touch_ADC_RESET_CR5_REG &= (uint8)~(Touch_ADC_IGNORE_PRESA2 | Touch_ADC_IGNORE_PRESD2);
 148              		.loc 1 1737 0
 149 0094 03F0FC03 		and	r3, r3, #252
 150 0098 3B70     		strb	r3, [r7]
1738:Generated_Source\PSoC5/Touch_ADC.c ****     Touch_ADC_RESET_CR5_REG &= (uint8)~(Touch_ADC_IGNORE_PRESA2 | Touch_ADC_IGNORE_PRESD2);
 151              		.loc 1 1738 0
 152 009a 3378     		ldrb	r3, [r6]	@ zero_extendqisi2
 153 009c 03F0FC03 		and	r3, r3, #252
 154 00a0 3370     		strb	r3, [r6]
 155              		.loc 1 1740 0
 156 00a2 FFF7FEFF 		bl	CyExitCriticalSection
 157              	.LVL5:
 158              	.LBE5:
 159              	.LBE4:
1273:Generated_Source\PSoC5/Touch_ADC.c ****         Touch_ADC_DSM_REF3_REG    = Touch_ADC_CFG1_DSM_REF3;
 160              		.loc 1 1273 0
 161 00a6 134B     		ldr	r3, .L2+16
 162 00a8 5822     		movs	r2, #88
 163 00aa 1A70     		strb	r2, [r3]
1288:Generated_Source\PSoC5/Touch_ADC.c ****             #endif /* Touch_ADC_IR_VSSA_TO_2VREF) */
 164              		.loc 1 1288 0
 165 00ac 2046     		mov	r0, r4
1274:Generated_Source\PSoC5/Touch_ADC.c **** 
 166              		.loc 1 1274 0
 167 00ae 5C70     		strb	r4, [r3, #1]
1276:Generated_Source\PSoC5/Touch_ADC.c ****         Touch_ADC_DSM_BUF1_REG    = Touch_ADC_CFG1_DSM_BUF1;
 168              		.loc 1 1276 0
 169 00b0 83F80690 		strb	r9, [r3, #6]
1277:Generated_Source\PSoC5/Touch_ADC.c ****         Touch_ADC_DSM_BUF2_REG    = Touch_ADC_CFG1_DSM_BUF2;
 170              		.loc 1 1277 0
 171 00b4 83F80780 		strb	r8, [r3, #7]
1278:Generated_Source\PSoC5/Touch_ADC.c ****         Touch_ADC_DSM_BUF3_REG    = Touch_ADC_CFG1_DSM_BUF3;
 172              		.loc 1 1278 0
 173 00b8 1C72     		strb	r4, [r3, #8]
ARM GAS  C:\Users\emman\AppData\Local\Temp\ccNpJWxM.s 			page 35


1279:Generated_Source\PSoC5/Touch_ADC.c **** 
 174              		.loc 1 1279 0
 175 00ba 5C72     		strb	r4, [r3, #9]
1288:Generated_Source\PSoC5/Touch_ADC.c ****             #endif /* Touch_ADC_IR_VSSA_TO_2VREF) */
 176              		.loc 1 1288 0
 177 00bc FFF7FEFF 		bl	Touch_ADC_AMux_Select
 178              	.LVL6:
1300:Generated_Source\PSoC5/Touch_ADC.c **** 
 179              		.loc 1 1300 0
 180 00c0 40F23332 		movw	r2, #819
 181 00c4 0C4B     		ldr	r3, .L2+20
1302:Generated_Source\PSoC5/Touch_ADC.c **** 
 182              		.loc 1 1302 0
 183 00c6 2946     		mov	r1, r5
 184 00c8 4046     		mov	r0, r8
1300:Generated_Source\PSoC5/Touch_ADC.c **** 
 185              		.loc 1 1300 0
 186 00ca 1A60     		str	r2, [r3]
1302:Generated_Source\PSoC5/Touch_ADC.c **** 
 187              		.loc 1 1302 0
 188 00cc FFF7FEFF 		bl	Touch_ADC_Ext_CP_Clk_SetDividerRegister
 189              	.LVL7:
1306:Generated_Source\PSoC5/Touch_ADC.c ****         #endif /* Touch_ADC_DEFAULT_INTERNAL_CLK */
 190              		.loc 1 1306 0
 191 00d0 2946     		mov	r1, r5
 192 00d2 0A20     		movs	r0, #10
 193 00d4 FFF7FEFF 		bl	Touch_ADC_theACLK_SetDividerRegister
 194              	.LVL8:
1526:Generated_Source\PSoC5/Touch_ADC.c **** 
 195              		.loc 1 1526 0
 196 00d8 BDE8F047 		pop	{r4, r5, r6, r7, r8, r9, r10, lr}
 197              		.cfi_restore 14
 198              		.cfi_restore 10
 199              		.cfi_restore 9
 200              		.cfi_restore 8
 201              		.cfi_restore 7
 202              		.cfi_restore 6
 203              		.cfi_restore 5
 204              		.cfi_restore 4
 205              		.cfi_def_cfa_offset 0
1311:Generated_Source\PSoC5/Touch_ADC.c ****         #endif   /* End Touch_ADC_IRQ_REMOVE */
 206              		.loc 1 1311 0
 207 00dc 0749     		ldr	r1, .L2+24
 208 00de 1D20     		movs	r0, #29
 209 00e0 FFF7FEBF 		b	CyIntSetVector
 210              	.LVL9:
 211              	.L3:
 212              		.align	2
 213              	.L2:
 214 00e4 004E0040 		.word	1073761792
 215 00e8 F8460040 		.word	1073759992
 216 00ec F9460040 		.word	1073759993
 217 00f0 92580040 		.word	1073764498
 218 00f4 94580040 		.word	1073764500
 219 00f8 00000000 		.word	Touch_ADC_CountsPerVolt
 220 00fc 00000000 		.word	Touch_ADC_ISR1
 221              		.cfi_endproc
ARM GAS  C:\Users\emman\AppData\Local\Temp\ccNpJWxM.s 			page 36


 222              	.LFE26:
 223              		.size	Touch_ADC_InitConfig.part.0, .-Touch_ADC_InitConfig.part.0
 224              		.section	.text.Touch_ADC_Init,"ax",%progbits
 225              		.align	1
 226              		.global	Touch_ADC_Init
 227              		.thumb
 228              		.thumb_func
 229              		.type	Touch_ADC_Init, %function
 230              	Touch_ADC_Init:
 231              	.LFB0:
  92:Generated_Source\PSoC5/Touch_ADC.c **** 
 232              		.loc 1 92 0
 233              		.cfi_startproc
 234              		@ args = 0, pretend = 0, frame = 0
 235              		@ frame_needed = 0, uses_anonymous_args = 0
 236 0000 70B5     		push	{r4, r5, r6, lr}
 237              		.cfi_def_cfa_offset 16
 238              		.cfi_offset 4, -16
 239              		.cfi_offset 5, -12
 240              		.cfi_offset 6, -8
 241              		.cfi_offset 14, -4
  95:Generated_Source\PSoC5/Touch_ADC.c **** 
 242              		.loc 1 95 0
 243 0002 244D     		ldr	r5, .L7
  94:Generated_Source\PSoC5/Touch_ADC.c ****     Touch_ADC_convDone = 0u;
 244              		.loc 1 94 0
 245 0004 244E     		ldr	r6, .L7+4
  95:Generated_Source\PSoC5/Touch_ADC.c **** 
 246              		.loc 1 95 0
 247 0006 0024     		movs	r4, #0
  94:Generated_Source\PSoC5/Touch_ADC.c ****     Touch_ADC_convDone = 0u;
 248              		.loc 1 94 0
 249 0008 0123     		movs	r3, #1
  97:Generated_Source\PSoC5/Touch_ADC.c **** 
 250              		.loc 1 97 0
 251 000a 1020     		movs	r0, #16
  94:Generated_Source\PSoC5/Touch_ADC.c ****     Touch_ADC_convDone = 0u;
 252              		.loc 1 94 0
 253 000c 3370     		strb	r3, [r6]
  95:Generated_Source\PSoC5/Touch_ADC.c **** 
 254              		.loc 1 95 0
 255 000e 2C70     		strb	r4, [r5]
  97:Generated_Source\PSoC5/Touch_ADC.c **** 
 256              		.loc 1 97 0
 257 0010 FFF7FEFF 		bl	Touch_ADC_Ext_CP_Clk_SetModeRegister
 258              	.LVL10:
 101:Generated_Source\PSoC5/Touch_ADC.c ****     #endif /* Touch_ADC_DEFAULT_INTERNAL_CLK */
 259              		.loc 1 101 0
 260 0014 1020     		movs	r0, #16
 261 0016 FFF7FEFF 		bl	Touch_ADC_theACLK_SetModeRegister
 262              	.LVL11:
 106:Generated_Source\PSoC5/Touch_ADC.c ****     #endif   /* End Touch_ADC_IRQ_REMOVE */
 263              		.loc 1 106 0
 264 001a 0721     		movs	r1, #7
 265 001c 1D20     		movs	r0, #29
 266 001e FFF7FEFF 		bl	CyIntSetPriority
 267              	.LVL12:
ARM GAS  C:\Users\emman\AppData\Local\Temp\ccNpJWxM.s 			page 37


 110:Generated_Source\PSoC5/Touch_ADC.c ****     Touch_ADC_DSM_DEM1_REG    = Touch_ADC_CFG1_DSM_DEM1;
 268              		.loc 1 110 0
 269 0022 1E4B     		ldr	r3, .L7+8
 270 0024 0422     		movs	r2, #4
 271 0026 1A70     		strb	r2, [r3]
 113:Generated_Source\PSoC5/Touch_ADC.c ****     Touch_ADC_DSM_REF1_REG    = Touch_ADC_CFG1_DSM_REF1;
 272              		.loc 1 113 0
 273 0028 1D4A     		ldr	r2, .L7+12
 111:Generated_Source\PSoC5/Touch_ADC.c ****     Touch_ADC_DSM_MISC_REG    = Touch_ADC_CFG1_DSM_MISC;
 274              		.loc 1 111 0
 275 002a 5C70     		strb	r4, [r3, #1]
 112:Generated_Source\PSoC5/Touch_ADC.c ****     Touch_ADC_DSM_CLK_REG    |= Touch_ADC_CFG1_DSM_CLK;
 276              		.loc 1 112 0
 277 002c 1C72     		strb	r4, [r3, #8]
 113:Generated_Source\PSoC5/Touch_ADC.c ****     Touch_ADC_DSM_REF1_REG    = Touch_ADC_CFG1_DSM_REF1;
 278              		.loc 1 113 0
 279 002e 1378     		ldrb	r3, [r2]	@ zero_extendqisi2
 280 0030 43F01803 		orr	r3, r3, #24
 281 0034 1370     		strb	r3, [r2]
 114:Generated_Source\PSoC5/Touch_ADC.c **** 
 282              		.loc 1 114 0
 283 0036 1B4B     		ldr	r3, .L7+16
 119:Generated_Source\PSoC5/Touch_ADC.c ****     Touch_ADC_DSM_CR1_REG     = Touch_ADC_CFG1_DSM_CR1;
 284              		.loc 1 119 0
 285 0038 0A22     		movs	r2, #10
 114:Generated_Source\PSoC5/Touch_ADC.c **** 
 286              		.loc 1 114 0
 287 003a 1C70     		strb	r4, [r3]
 116:Generated_Source\PSoC5/Touch_ADC.c ****     Touch_ADC_DSM_OUT1_REG    = Touch_ADC_CFG1_DSM_OUT1;
 288              		.loc 1 116 0
 289 003c 83F8F542 		strb	r4, [r3, #757]
 117:Generated_Source\PSoC5/Touch_ADC.c **** 
 290              		.loc 1 117 0
 291 0040 83F8F642 		strb	r4, [r3, #758]
 119:Generated_Source\PSoC5/Touch_ADC.c ****     Touch_ADC_DSM_CR1_REG     = Touch_ADC_CFG1_DSM_CR1;
 292              		.loc 1 119 0
 293 0044 133B     		subs	r3, r3, #19
 294 0046 1A70     		strb	r2, [r3]
 126:Generated_Source\PSoC5/Touch_ADC.c ****     Touch_ADC_DSM_CR9_REG     = Touch_ADC_CFG1_DSM_CR9;
 295              		.loc 1 126 0
 296 0048 1222     		movs	r2, #18
 120:Generated_Source\PSoC5/Touch_ADC.c **** #if(Touch_ADC_MI_ENABLE != 0u) /* Enable Modulator Input */
 297              		.loc 1 120 0
 298 004a 5C70     		strb	r4, [r3, #1]
 124:Generated_Source\PSoC5/Touch_ADC.c **** #endif /* Touch_ADC_MI_ENABLE != 0u*/    
 299              		.loc 1 124 0
 300 004c DC70     		strb	r4, [r3, #3]
 126:Generated_Source\PSoC5/Touch_ADC.c ****     Touch_ADC_DSM_CR9_REG     = Touch_ADC_CFG1_DSM_CR9;
 301              		.loc 1 126 0
 302 004e 1A72     		strb	r2, [r3, #8]
 127:Generated_Source\PSoC5/Touch_ADC.c ****     Touch_ADC_DSM_CR13_REG    = Touch_ADC_CFG1_DSM_CR13;
 303              		.loc 1 127 0
 304 0050 1322     		movs	r2, #19
 305 0052 5A72     		strb	r2, [r3, #9]
 128:Generated_Source\PSoC5/Touch_ADC.c **** 
 306              		.loc 1 128 0
 307 0054 5C73     		strb	r4, [r3, #13]
ARM GAS  C:\Users\emman\AppData\Local\Temp\ccNpJWxM.s 			page 38


 130:Generated_Source\PSoC5/Touch_ADC.c **** 
 308              		.loc 1 130 0
 309 0056 1422     		movs	r2, #20
 310 0058 A3F67F23 		subw	r3, r3, #2687
 311 005c 1A70     		strb	r2, [r3]
 312              	.LVL13:
 313              	.LBB10:
 314              	.LBB11:
1691:Generated_Source\PSoC5/Touch_ADC.c ****         }
 315              		.loc 1 1691 0
 316 005e 0D23     		movs	r3, #13
 317 0060 2B71     		strb	r3, [r5, #4]
1700:Generated_Source\PSoC5/Touch_ADC.c ****     }
 318              		.loc 1 1700 0
 319 0062 42F25A33 		movw	r3, #9050
 320 0066 6B80     		strh	r3, [r5, #2]	@ movhi
 321              	.LVL14:
 322              	.LBE11:
 323              	.LBE10:
 161:Generated_Source\PSoC5/Touch_ADC.c ****     CY_SET_REG16(Touch_ADC_DEC_GCOR_16B_PTR, Touch_ADC_gcor[Touch_ADC_Config - 1u].gcor);
 324              		.loc 1 161 0
 325 0068 3378     		ldrb	r3, [r6]	@ zero_extendqisi2
 326 006a 15F82320 		ldrb	r2, [r5, r3, lsl #2]	@ zero_extendqisi2
 327 006e 0E4B     		ldr	r3, .L7+20
 328 0070 1A70     		strb	r2, [r3]
 162:Generated_Source\PSoC5/Touch_ADC.c **** 
 329              		.loc 1 162 0
 330 0072 3378     		ldrb	r3, [r6]	@ zero_extendqisi2
 331 0074 05EB8303 		add	r3, r5, r3, lsl #2
 332 0078 33F8022C 		ldrh	r2, [r3, #-2]
 333 007c 0B4B     		ldr	r3, .L7+24
 334 007e 1A80     		strh	r2, [r3]	@ movhi
 165:Generated_Source\PSoC5/Touch_ADC.c **** }
 335              		.loc 1 165 0
 336 0080 3378     		ldrb	r3, [r6]	@ zero_extendqisi2
 337              	.LVL15:
 338              	.LBB12:
 339              	.LBB13:
1244:Generated_Source\PSoC5/Touch_ADC.c **** 
 340              		.loc 1 1244 0
 341 0082 AC71     		strb	r4, [r5, #6]
1246:Generated_Source\PSoC5/Touch_ADC.c ****     {
 342              		.loc 1 1246 0
 343 0084 012B     		cmp	r3, #1
 344 0086 03D1     		bne	.L4
 345              	.LBE13:
 346              	.LBE12:
 166:Generated_Source\PSoC5/Touch_ADC.c **** 
 347              		.loc 1 166 0
 348 0088 BDE87040 		pop	{r4, r5, r6, lr}
 349              		.cfi_remember_state
 350              		.cfi_restore 14
 351              		.cfi_restore 6
 352              		.cfi_restore 5
 353              		.cfi_restore 4
 354              		.cfi_def_cfa_offset 0
 355              	.LBB15:
ARM GAS  C:\Users\emman\AppData\Local\Temp\ccNpJWxM.s 			page 39


 356              	.LBB14:
 357 008c FFF7FEBF 		b	Touch_ADC_InitConfig.part.0
 358              	.LVL16:
 359              	.L4:
 360              		.cfi_restore_state
 361 0090 70BD     		pop	{r4, r5, r6, pc}
 362              	.L8:
 363 0092 00BF     		.align	2
 364              	.L7:
 365 0094 00000000 		.word	.LANCHOR1
 366 0098 00000000 		.word	.LANCHOR0
 367 009c 96580040 		.word	1073764502
 368 00a0 075B0040 		.word	1073765127
 369 00a4 93580040 		.word	1073764499
 370 00a8 0E4E0040 		.word	1073761806
 371 00ac 0C4E0040 		.word	1073761804
 372              	.LBE14:
 373              	.LBE15:
 374              		.cfi_endproc
 375              	.LFE0:
 376              		.size	Touch_ADC_Init, .-Touch_ADC_Init
 377              		.section	.text.Touch_ADC_Enable,"ax",%progbits
 378              		.align	1
 379              		.global	Touch_ADC_Enable
 380              		.thumb
 381              		.thumb_func
 382              		.type	Touch_ADC_Enable, %function
 383              	Touch_ADC_Enable:
 384              	.LFB1:
 185:Generated_Source\PSoC5/Touch_ADC.c **** 	uint8 config;
 385              		.loc 1 185 0
 386              		.cfi_startproc
 387              		@ args = 0, pretend = 0, frame = 0
 388              		@ frame_needed = 0, uses_anonymous_args = 0
 389 0000 70B5     		push	{r4, r5, r6, lr}
 390              		.cfi_def_cfa_offset 16
 391              		.cfi_offset 4, -16
 392              		.cfi_offset 5, -12
 393              		.cfi_offset 6, -8
 394              		.cfi_offset 14, -4
 188:Generated_Source\PSoC5/Touch_ADC.c **** 
 395              		.loc 1 188 0
 396 0002 FFF7FEFF 		bl	CyEnterCriticalSection
 397              	.LVL17:
 191:Generated_Source\PSoC5/Touch_ADC.c ****     
 398              		.loc 1 191 0
 399 0006 294B     		ldr	r3, .L10
 202:Generated_Source\PSoC5/Touch_ADC.c ****     Touch_ADC_RESET_CR5_REG |= Touch_ADC_IGNORE_PRESA2;
 400              		.loc 1 202 0
 401 0008 294D     		ldr	r5, .L10+4
 191:Generated_Source\PSoC5/Touch_ADC.c ****     
 402              		.loc 1 191 0
 403 000a 1B78     		ldrb	r3, [r3]	@ zero_extendqisi2
 194:Generated_Source\PSoC5/Touch_ADC.c ****     Touch_ADC_PWRMGR_DSM_REG |= Touch_ADC_ACT_PWR_DSM_EN;
 404              		.loc 1 194 0
 405 000c 294B     		ldr	r3, .L10+8
 203:Generated_Source\PSoC5/Touch_ADC.c **** 
ARM GAS  C:\Users\emman\AppData\Local\Temp\ccNpJWxM.s 			page 40


 406              		.loc 1 203 0
 407 000e 2A4C     		ldr	r4, .L10+12
 194:Generated_Source\PSoC5/Touch_ADC.c ****     Touch_ADC_PWRMGR_DSM_REG |= Touch_ADC_ACT_PWR_DSM_EN;
 408              		.loc 1 194 0
 409 0010 1A78     		ldrb	r2, [r3]	@ zero_extendqisi2
 188:Generated_Source\PSoC5/Touch_ADC.c **** 
 410              		.loc 1 188 0
 411 0012 0646     		mov	r6, r0
 412              	.LVL18:
 194:Generated_Source\PSoC5/Touch_ADC.c ****     Touch_ADC_PWRMGR_DSM_REG |= Touch_ADC_ACT_PWR_DSM_EN;
 413              		.loc 1 194 0
 414 0014 42F00102 		orr	r2, r2, #1
 415 0018 1A70     		strb	r2, [r3]
 195:Generated_Source\PSoC5/Touch_ADC.c **** 
 416              		.loc 1 195 0
 417 001a 1A78     		ldrb	r2, [r3]	@ zero_extendqisi2
 271:Generated_Source\PSoC5/Touch_ADC.c **** 
 418              		.loc 1 271 0
 419 001c 0320     		movs	r0, #3
 195:Generated_Source\PSoC5/Touch_ADC.c **** 
 420              		.loc 1 195 0
 421 001e 42F01002 		orr	r2, r2, #16
 422 0022 1A70     		strb	r2, [r3]
 198:Generated_Source\PSoC5/Touch_ADC.c ****     Touch_ADC_STBY_PWRMGR_DSM_REG |= Touch_ADC_STBY_PWR_DSM_EN;
 423              		.loc 1 198 0
 424 0024 1A7C     		ldrb	r2, [r3, #16]	@ zero_extendqisi2
 425 0026 42F00102 		orr	r2, r2, #1
 426 002a 1A74     		strb	r2, [r3, #16]
 199:Generated_Source\PSoC5/Touch_ADC.c **** 
 427              		.loc 1 199 0
 428 002c 1A7C     		ldrb	r2, [r3, #16]	@ zero_extendqisi2
 429 002e 42F01002 		orr	r2, r2, #16
 430 0032 1A74     		strb	r2, [r3, #16]
 202:Generated_Source\PSoC5/Touch_ADC.c ****     Touch_ADC_RESET_CR5_REG |= Touch_ADC_IGNORE_PRESA2;
 431              		.loc 1 202 0
 432 0034 2B78     		ldrb	r3, [r5]	@ zero_extendqisi2
 205:Generated_Source\PSoC5/Touch_ADC.c **** 
 433              		.loc 1 205 0
 434 0036 214A     		ldr	r2, .L10+16
 202:Generated_Source\PSoC5/Touch_ADC.c ****     Touch_ADC_RESET_CR5_REG |= Touch_ADC_IGNORE_PRESA2;
 435              		.loc 1 202 0
 436 0038 43F00203 		orr	r3, r3, #2
 437 003c 2B70     		strb	r3, [r5]
 203:Generated_Source\PSoC5/Touch_ADC.c **** 
 438              		.loc 1 203 0
 439 003e 2378     		ldrb	r3, [r4]	@ zero_extendqisi2
 440 0040 43F00203 		orr	r3, r3, #2
 441 0044 2370     		strb	r3, [r4]
 205:Generated_Source\PSoC5/Touch_ADC.c **** 
 442              		.loc 1 205 0
 443 0046 1378     		ldrb	r3, [r2]	@ zero_extendqisi2
 444 0048 43F00303 		orr	r3, r3, #3
 445 004c 1370     		strb	r3, [r2]
 271:Generated_Source\PSoC5/Touch_ADC.c **** 
 446              		.loc 1 271 0
 447 004e FFF7FEFF 		bl	CyDelayUs
 448              	.LVL19:
ARM GAS  C:\Users\emman\AppData\Local\Temp\ccNpJWxM.s 			page 41


 274:Generated_Source\PSoC5/Touch_ADC.c ****     Touch_ADC_RESET_CR5_REG &= (uint8)~Touch_ADC_IGNORE_PRESA2;
 449              		.loc 1 274 0
 450 0052 2B78     		ldrb	r3, [r5]	@ zero_extendqisi2
 278:Generated_Source\PSoC5/Touch_ADC.c **** 
 451              		.loc 1 278 0
 452 0054 1A4A     		ldr	r2, .L10+20
 274:Generated_Source\PSoC5/Touch_ADC.c ****     Touch_ADC_RESET_CR5_REG &= (uint8)~Touch_ADC_IGNORE_PRESA2;
 453              		.loc 1 274 0
 454 0056 03F0FD03 		and	r3, r3, #253
 455 005a 2B70     		strb	r3, [r5]
 275:Generated_Source\PSoC5/Touch_ADC.c **** 
 456              		.loc 1 275 0
 457 005c 2378     		ldrb	r3, [r4]	@ zero_extendqisi2
 300:Generated_Source\PSoC5/Touch_ADC.c **** 
 458              		.loc 1 300 0
 459 005e 3046     		mov	r0, r6
 275:Generated_Source\PSoC5/Touch_ADC.c **** 
 460              		.loc 1 275 0
 461 0060 03F0FD03 		and	r3, r3, #253
 462 0064 2370     		strb	r3, [r4]
 278:Generated_Source\PSoC5/Touch_ADC.c **** 
 463              		.loc 1 278 0
 464 0066 1378     		ldrb	r3, [r2]	@ zero_extendqisi2
 465 0068 43F00603 		orr	r3, r3, #6
 466 006c 1370     		strb	r3, [r2]
 281:Generated_Source\PSoC5/Touch_ADC.c **** 
 467              		.loc 1 281 0
 468 006e 154B     		ldr	r3, .L10+24
 469 0070 7A22     		movs	r2, #122
 470 0072 1A70     		strb	r2, [r3]
 285:Generated_Source\PSoC5/Touch_ADC.c ****         Touch_ADC_STBY_PWRMGR_CLK_REG |= Touch_ADC_STBY_PWR_CLK_EN;
 471              		.loc 1 285 0
 472 0074 144A     		ldr	r2, .L10+28
 473 0076 1378     		ldrb	r3, [r2]	@ zero_extendqisi2
 474 0078 43F00103 		orr	r3, r3, #1
 475 007c 1370     		strb	r3, [r2]
 286:Generated_Source\PSoC5/Touch_ADC.c ****     #endif /* Touch_ADC_DEFAULT_INTERNAL_CLK */
 476              		.loc 1 286 0
 477 007e 137C     		ldrb	r3, [r2, #16]	@ zero_extendqisi2
 478 0080 43F00103 		orr	r3, r3, #1
 479 0084 1374     		strb	r3, [r2, #16]
 290:Generated_Source\PSoC5/Touch_ADC.c ****     Touch_ADC_STBY_PWRMGR_CHARGE_PUMP_CLK_REG |= Touch_ADC_STBY_PWR_CHARGE_PUMP_CLK_EN;
 480              		.loc 1 290 0
 481 0086 5378     		ldrb	r3, [r2, #1]	@ zero_extendqisi2
 482 0088 43F00103 		orr	r3, r3, #1
 483 008c 5370     		strb	r3, [r2, #1]
 291:Generated_Source\PSoC5/Touch_ADC.c **** 
 484              		.loc 1 291 0
 485 008e 537C     		ldrb	r3, [r2, #17]	@ zero_extendqisi2
 486 0090 43F00103 		orr	r3, r3, #1
 487 0094 5374     		strb	r3, [r2, #17]
 295:Generated_Source\PSoC5/Touch_ADC.c ****         /* Enable interrupt */
 488              		.loc 1 295 0
 489 0096 0D4A     		ldr	r2, .L10+32
 490 0098 4FF00053 		mov	r3, #536870912
 491 009c 1360     		str	r3, [r2]
 297:Generated_Source\PSoC5/Touch_ADC.c ****     #endif   /* End Touch_ADC_IRQ_REMOVE */
ARM GAS  C:\Users\emman\AppData\Local\Temp\ccNpJWxM.s 			page 42


 492              		.loc 1 297 0
 493 009e A2F5C072 		sub	r2, r2, #384
 494 00a2 1360     		str	r3, [r2]
 302:Generated_Source\PSoC5/Touch_ADC.c **** 
 495              		.loc 1 302 0
 496 00a4 BDE87040 		pop	{r4, r5, r6, lr}
 497              		.cfi_restore 14
 498              		.cfi_restore 6
 499              		.cfi_restore 5
 500              		.cfi_restore 4
 501              		.cfi_def_cfa_offset 0
 502              	.LVL20:
 300:Generated_Source\PSoC5/Touch_ADC.c **** 
 503              		.loc 1 300 0
 504 00a8 FFF7FEBF 		b	CyExitCriticalSection
 505              	.LVL21:
 506              	.L11:
 507              		.align	2
 508              	.L10:
 509 00ac 00000000 		.word	.LANCHOR0
 510 00b0 F8460040 		.word	1073759992
 511 00b4 AA430040 		.word	1073759146
 512 00b8 F9460040 		.word	1073759993
 513 00bc 91580040 		.word	1073764497
 514 00c0 77580040 		.word	1073764471
 515 00c4 82580040 		.word	1073764482
 516 00c8 A1430040 		.word	1073759137
 517 00cc 80E200E0 		.word	-536812928
 518              		.cfi_endproc
 519              	.LFE1:
 520              		.size	Touch_ADC_Enable, .-Touch_ADC_Enable
 521              		.section	.text.Touch_ADC_Start,"ax",%progbits
 522              		.align	1
 523              		.global	Touch_ADC_Start
 524              		.thumb
 525              		.thumb_func
 526              		.type	Touch_ADC_Start, %function
 527              	Touch_ADC_Start:
 528              	.LFB2:
 330:Generated_Source\PSoC5/Touch_ADC.c ****     if(Touch_ADC_initVar == 0u)
 529              		.loc 1 330 0
 530              		.cfi_startproc
 531              		@ args = 0, pretend = 0, frame = 0
 532              		@ frame_needed = 0, uses_anonymous_args = 0
 533 0000 10B5     		push	{r4, lr}
 534              		.cfi_def_cfa_offset 8
 535              		.cfi_offset 4, -8
 536              		.cfi_offset 14, -4
 331:Generated_Source\PSoC5/Touch_ADC.c ****     {
 537              		.loc 1 331 0
 538 0002 064C     		ldr	r4, .L15
 539 0004 E379     		ldrb	r3, [r4, #7]	@ zero_extendqisi2
 540 0006 2BB9     		cbnz	r3, .L13
 333:Generated_Source\PSoC5/Touch_ADC.c ****         {
 541              		.loc 1 333 0
 542 0008 237A     		ldrb	r3, [r4, #8]	@ zero_extendqisi2
 543 000a 0BB9     		cbnz	r3, .L14
ARM GAS  C:\Users\emman\AppData\Local\Temp\ccNpJWxM.s 			page 43


 335:Generated_Source\PSoC5/Touch_ADC.c ****         }
 544              		.loc 1 335 0
 545 000c FFF7FEFF 		bl	Touch_ADC_Init
 546              	.LVL22:
 547              	.L14:
 337:Generated_Source\PSoC5/Touch_ADC.c ****     }
 548              		.loc 1 337 0
 549 0010 0123     		movs	r3, #1
 550 0012 E371     		strb	r3, [r4, #7]
 551              	.L13:
 342:Generated_Source\PSoC5/Touch_ADC.c **** 
 552              		.loc 1 342 0
 553 0014 BDE81040 		pop	{r4, lr}
 554              		.cfi_restore 14
 555              		.cfi_restore 4
 556              		.cfi_def_cfa_offset 0
 341:Generated_Source\PSoC5/Touch_ADC.c **** }
 557              		.loc 1 341 0
 558 0018 FFF7FEBF 		b	Touch_ADC_Enable
 559              	.LVL23:
 560              	.L16:
 561              		.align	2
 562              	.L15:
 563 001c 00000000 		.word	.LANCHOR1
 564              		.cfi_endproc
 565              	.LFE2:
 566              		.size	Touch_ADC_Start, .-Touch_ADC_Start
 567              		.section	.text.Touch_ADC_Stop,"ax",%progbits
 568              		.align	1
 569              		.global	Touch_ADC_Stop
 570              		.thumb
 571              		.thumb_func
 572              		.type	Touch_ADC_Stop, %function
 573              	Touch_ADC_Stop:
 574              	.LFB3:
 363:Generated_Source\PSoC5/Touch_ADC.c ****     uint8 enableInterrupts;
 575              		.loc 1 363 0
 576              		.cfi_startproc
 577              		@ args = 0, pretend = 0, frame = 0
 578              		@ frame_needed = 0, uses_anonymous_args = 0
 579 0000 70B5     		push	{r4, r5, r6, lr}
 580              		.cfi_def_cfa_offset 16
 581              		.cfi_offset 4, -16
 582              		.cfi_offset 5, -12
 583              		.cfi_offset 6, -8
 584              		.cfi_offset 14, -4
 365:Generated_Source\PSoC5/Touch_ADC.c **** 
 585              		.loc 1 365 0
 586 0002 FFF7FEFF 		bl	CyEnterCriticalSection
 587              	.LVL24:
 368:Generated_Source\PSoC5/Touch_ADC.c ****     Touch_ADC_DEC_SR_REG |=  Touch_ADC_DEC_INTR_CLEAR;
 588              		.loc 1 368 0
 589 0006 314A     		ldr	r2, .L18
 373:Generated_Source\PSoC5/Touch_ADC.c ****     Touch_ADC_RESET_CR5_REG |= Touch_ADC_IGNORE_PRESA2;
 590              		.loc 1 373 0
 591 0008 314D     		ldr	r5, .L18+4
 368:Generated_Source\PSoC5/Touch_ADC.c ****     Touch_ADC_DEC_SR_REG |=  Touch_ADC_DEC_INTR_CLEAR;
ARM GAS  C:\Users\emman\AppData\Local\Temp\ccNpJWxM.s 			page 44


 592              		.loc 1 368 0
 593 000a 1378     		ldrb	r3, [r2]	@ zero_extendqisi2
 374:Generated_Source\PSoC5/Touch_ADC.c **** 
 594              		.loc 1 374 0
 595 000c 314C     		ldr	r4, .L18+8
 368:Generated_Source\PSoC5/Touch_ADC.c ****     Touch_ADC_DEC_SR_REG |=  Touch_ADC_DEC_INTR_CLEAR;
 596              		.loc 1 368 0
 597 000e 03F0FE03 		and	r3, r3, #254
 598 0012 1370     		strb	r3, [r2]
 369:Generated_Source\PSoC5/Touch_ADC.c **** 
 599              		.loc 1 369 0
 600 0014 5378     		ldrb	r3, [r2, #1]	@ zero_extendqisi2
 365:Generated_Source\PSoC5/Touch_ADC.c **** 
 601              		.loc 1 365 0
 602 0016 0646     		mov	r6, r0
 603              	.LVL25:
 369:Generated_Source\PSoC5/Touch_ADC.c **** 
 604              		.loc 1 369 0
 605 0018 43F00403 		orr	r3, r3, #4
 606 001c 5370     		strb	r3, [r2, #1]
 373:Generated_Source\PSoC5/Touch_ADC.c ****     Touch_ADC_RESET_CR5_REG |= Touch_ADC_IGNORE_PRESA2;
 607              		.loc 1 373 0
 608 001e 2B78     		ldrb	r3, [r5]	@ zero_extendqisi2
 380:Generated_Source\PSoC5/Touch_ADC.c **** 
 609              		.loc 1 380 0
 610 0020 0320     		movs	r0, #3
 373:Generated_Source\PSoC5/Touch_ADC.c ****     Touch_ADC_RESET_CR5_REG |= Touch_ADC_IGNORE_PRESA2;
 611              		.loc 1 373 0
 612 0022 43F00203 		orr	r3, r3, #2
 613 0026 2B70     		strb	r3, [r5]
 374:Generated_Source\PSoC5/Touch_ADC.c **** 
 614              		.loc 1 374 0
 615 0028 2378     		ldrb	r3, [r4]	@ zero_extendqisi2
 616 002a 43F00203 		orr	r3, r3, #2
 617 002e 2370     		strb	r3, [r4]
 376:Generated_Source\PSoC5/Touch_ADC.c ****     Touch_ADC_DSM_REF0_REG &= (uint8)~Touch_ADC_DSM_EN_BUF_VREF_INN;
 618              		.loc 1 376 0
 619 0030 92F8913A 		ldrb	r3, [r2, #2705]	@ zero_extendqisi2
 620 0034 03F0FC03 		and	r3, r3, #252
 621 0038 82F8913A 		strb	r3, [r2, #2705]
 377:Generated_Source\PSoC5/Touch_ADC.c **** 
 622              		.loc 1 377 0
 623 003c 92F8923A 		ldrb	r3, [r2, #2706]	@ zero_extendqisi2
 624 0040 03F0F703 		and	r3, r3, #247
 625 0044 82F8923A 		strb	r3, [r2, #2706]
 380:Generated_Source\PSoC5/Touch_ADC.c **** 
 626              		.loc 1 380 0
 627 0048 FFF7FEFF 		bl	CyDelayUs
 628              	.LVL26:
 383:Generated_Source\PSoC5/Touch_ADC.c ****     Touch_ADC_RESET_CR5_REG &= (uint8)~Touch_ADC_IGNORE_PRESA2;
 629              		.loc 1 383 0
 630 004c 2B78     		ldrb	r3, [r5]	@ zero_extendqisi2
 411:Generated_Source\PSoC5/Touch_ADC.c **** }
 631              		.loc 1 411 0
 632 004e 3046     		mov	r0, r6
 383:Generated_Source\PSoC5/Touch_ADC.c ****     Touch_ADC_RESET_CR5_REG &= (uint8)~Touch_ADC_IGNORE_PRESA2;
 633              		.loc 1 383 0
ARM GAS  C:\Users\emman\AppData\Local\Temp\ccNpJWxM.s 			page 45


 634 0050 03F0FD03 		and	r3, r3, #253
 635 0054 2B70     		strb	r3, [r5]
 384:Generated_Source\PSoC5/Touch_ADC.c **** 
 636              		.loc 1 384 0
 637 0056 2378     		ldrb	r3, [r4]	@ zero_extendqisi2
 638 0058 03F0FD03 		and	r3, r3, #253
 639 005c 2370     		strb	r3, [r4]
 387:Generated_Source\PSoC5/Touch_ADC.c **** 
 640              		.loc 1 387 0
 641 005e 1E4B     		ldr	r3, .L18+12
 642 0060 1A78     		ldrb	r2, [r3]	@ zero_extendqisi2
 643 0062 02F0EF02 		and	r2, r2, #239
 644 0066 1A70     		strb	r2, [r3]
 390:Generated_Source\PSoC5/Touch_ADC.c **** 
 645              		.loc 1 390 0
 646 0068 1A78     		ldrb	r2, [r3]	@ zero_extendqisi2
 647 006a 02F0FE02 		and	r2, r2, #254
 648 006e 1A70     		strb	r2, [r3]
 393:Generated_Source\PSoC5/Touch_ADC.c ****     Touch_ADC_STBY_PWRMGR_DSM_REG &= (uint8)~Touch_ADC_STBY_PWR_DSM_EN;
 649              		.loc 1 393 0
 650 0070 1A7C     		ldrb	r2, [r3, #16]	@ zero_extendqisi2
 651 0072 02F0FE02 		and	r2, r2, #254
 652 0076 1A74     		strb	r2, [r3, #16]
 394:Generated_Source\PSoC5/Touch_ADC.c **** 
 653              		.loc 1 394 0
 654 0078 1A7C     		ldrb	r2, [r3, #16]	@ zero_extendqisi2
 655 007a 02F0EF02 		and	r2, r2, #239
 656 007e 1A74     		strb	r2, [r3, #16]
 397:Generated_Source\PSoC5/Touch_ADC.c **** 
 657              		.loc 1 397 0
 658 0080 164A     		ldr	r2, .L18+16
 659 0082 1378     		ldrb	r3, [r2]	@ zero_extendqisi2
 660 0084 03F0F903 		and	r3, r3, #249
 661 0088 1370     		strb	r3, [r2]
 401:Generated_Source\PSoC5/Touch_ADC.c ****         Touch_ADC_STBY_PWRMGR_CLK_REG &= (uint8)~Touch_ADC_STBY_PWR_CLK_EN;
 662              		.loc 1 401 0
 663 008a A2F5A652 		sub	r2, r2, #5312
 664 008e 163A     		subs	r2, r2, #22
 665 0090 1378     		ldrb	r3, [r2]	@ zero_extendqisi2
 666 0092 03F0FE03 		and	r3, r3, #254
 667 0096 1370     		strb	r3, [r2]
 402:Generated_Source\PSoC5/Touch_ADC.c ****     #endif /* Touch_ADC_DEFAULT_INTERNAL_CLK */
 668              		.loc 1 402 0
 669 0098 137C     		ldrb	r3, [r2, #16]	@ zero_extendqisi2
 670 009a 03F0FE03 		and	r3, r3, #254
 671 009e 1374     		strb	r3, [r2, #16]
 406:Generated_Source\PSoC5/Touch_ADC.c ****     /* Disable power to charge pump clock */
 672              		.loc 1 406 0
 673 00a0 02F5A752 		add	r2, r2, #5344
 674 00a4 0132     		adds	r2, r2, #1
 675 00a6 1378     		ldrb	r3, [r2]	@ zero_extendqisi2
 676 00a8 03F0F703 		and	r3, r3, #247
 677 00ac 1370     		strb	r3, [r2]
 408:Generated_Source\PSoC5/Touch_ADC.c ****     Touch_ADC_STBY_PWRMGR_CHARGE_PUMP_CLK_REG &= (uint8)~Touch_ADC_STBY_PWR_CHARGE_PUMP_CLK_EN;
 678              		.loc 1 408 0
 679 00ae A2F5A752 		sub	r2, r2, #5344
 680 00b2 1378     		ldrb	r3, [r2]	@ zero_extendqisi2
ARM GAS  C:\Users\emman\AppData\Local\Temp\ccNpJWxM.s 			page 46


 681 00b4 03F0FE03 		and	r3, r3, #254
 682 00b8 1370     		strb	r3, [r2]
 409:Generated_Source\PSoC5/Touch_ADC.c ****     
 683              		.loc 1 409 0
 684 00ba 137C     		ldrb	r3, [r2, #16]	@ zero_extendqisi2
 685 00bc 03F0FE03 		and	r3, r3, #254
 686 00c0 1374     		strb	r3, [r2, #16]
 412:Generated_Source\PSoC5/Touch_ADC.c **** 
 687              		.loc 1 412 0
 688 00c2 BDE87040 		pop	{r4, r5, r6, lr}
 689              		.cfi_restore 14
 690              		.cfi_restore 6
 691              		.cfi_restore 5
 692              		.cfi_restore 4
 693              		.cfi_def_cfa_offset 0
 694              	.LVL27:
 411:Generated_Source\PSoC5/Touch_ADC.c **** }
 695              		.loc 1 411 0
 696 00c6 FFF7FEBF 		b	CyExitCriticalSection
 697              	.LVL28:
 698              	.L19:
 699 00ca 00BF     		.align	2
 700              	.L18:
 701 00cc 004E0040 		.word	1073761792
 702 00d0 F8460040 		.word	1073759992
 703 00d4 F9460040 		.word	1073759993
 704 00d8 AA430040 		.word	1073759146
 705 00dc 77580040 		.word	1073764471
 706              		.cfi_endproc
 707              	.LFE3:
 708              		.size	Touch_ADC_Stop, .-Touch_ADC_Stop
 709              		.section	.text.Touch_ADC_SetBufferGain,"ax",%progbits
 710              		.align	1
 711              		.global	Touch_ADC_SetBufferGain
 712              		.thumb
 713              		.thumb_func
 714              		.type	Touch_ADC_SetBufferGain, %function
 715              	Touch_ADC_SetBufferGain:
 716              	.LFB4:
 430:Generated_Source\PSoC5/Touch_ADC.c ****     uint8 tmpReg;
 717              		.loc 1 430 0
 718              		.cfi_startproc
 719              		@ args = 0, pretend = 0, frame = 0
 720              		@ frame_needed = 0, uses_anonymous_args = 0
 721              		@ link register save eliminated.
 722              	.LVL29:
 432:Generated_Source\PSoC5/Touch_ADC.c ****     tmpReg |= (uint8)(gain << Touch_ADC_DSM_GAIN_SHIFT) & Touch_ADC_DSM_GAIN_MASK;
 723              		.loc 1 432 0
 724 0000 044A     		ldr	r2, .L21
 433:Generated_Source\PSoC5/Touch_ADC.c ****     Touch_ADC_DSM_BUF1_REG = tmpReg;
 725              		.loc 1 433 0
 726 0002 8000     		lsls	r0, r0, #2
 727              	.LVL30:
 432:Generated_Source\PSoC5/Touch_ADC.c ****     tmpReg |= (uint8)(gain << Touch_ADC_DSM_GAIN_SHIFT) & Touch_ADC_DSM_GAIN_MASK;
 728              		.loc 1 432 0
 729 0004 1378     		ldrb	r3, [r2]	@ zero_extendqisi2
 433:Generated_Source\PSoC5/Touch_ADC.c ****     Touch_ADC_DSM_BUF1_REG = tmpReg;
ARM GAS  C:\Users\emman\AppData\Local\Temp\ccNpJWxM.s 			page 47


 730              		.loc 1 433 0
 731 0006 00F00C00 		and	r0, r0, #12
 432:Generated_Source\PSoC5/Touch_ADC.c ****     tmpReg |= (uint8)(gain << Touch_ADC_DSM_GAIN_SHIFT) & Touch_ADC_DSM_GAIN_MASK;
 732              		.loc 1 432 0
 733 000a 03F0F303 		and	r3, r3, #243
 734              	.LVL31:
 433:Generated_Source\PSoC5/Touch_ADC.c ****     Touch_ADC_DSM_BUF1_REG = tmpReg;
 735              		.loc 1 433 0
 736 000e 1843     		orrs	r0, r0, r3
 737              	.LVL32:
 434:Generated_Source\PSoC5/Touch_ADC.c **** }
 738              		.loc 1 434 0
 739 0010 1070     		strb	r0, [r2]
 740 0012 7047     		bx	lr
 741              	.L22:
 742              		.align	2
 743              	.L21:
 744 0014 9B580040 		.word	1073764507
 745              		.cfi_endproc
 746              	.LFE4:
 747              		.size	Touch_ADC_SetBufferGain, .-Touch_ADC_SetBufferGain
 748              		.section	.text.Touch_ADC_SetCoherency,"ax",%progbits
 749              		.align	1
 750              		.global	Touch_ADC_SetCoherency
 751              		.thumb
 752              		.thumb_func
 753              		.type	Touch_ADC_SetCoherency, %function
 754              	Touch_ADC_SetCoherency:
 755              	.LFB5:
 466:Generated_Source\PSoC5/Touch_ADC.c ****     uint8 tmpReg;
 756              		.loc 1 466 0
 757              		.cfi_startproc
 758              		@ args = 0, pretend = 0, frame = 0
 759              		@ frame_needed = 0, uses_anonymous_args = 0
 760              		@ link register save eliminated.
 761              	.LVL33:
 469:Generated_Source\PSoC5/Touch_ADC.c ****     tmpReg |= coherency & Touch_ADC_DEC_SAMP_KEY_MASK;
 762              		.loc 1 469 0
 763 0000 044A     		ldr	r2, .L24
 470:Generated_Source\PSoC5/Touch_ADC.c ****     Touch_ADC_DEC_COHER_REG = tmpReg;
 764              		.loc 1 470 0
 765 0002 00F00300 		and	r0, r0, #3
 766              	.LVL34:
 469:Generated_Source\PSoC5/Touch_ADC.c ****     tmpReg |= coherency & Touch_ADC_DEC_SAMP_KEY_MASK;
 767              		.loc 1 469 0
 768 0006 1378     		ldrb	r3, [r2]	@ zero_extendqisi2
 769 0008 03F0FC03 		and	r3, r3, #252
 770              	.LVL35:
 470:Generated_Source\PSoC5/Touch_ADC.c ****     Touch_ADC_DEC_COHER_REG = tmpReg;
 771              		.loc 1 470 0
 772 000c 1843     		orrs	r0, r0, r3
 773              	.LVL36:
 471:Generated_Source\PSoC5/Touch_ADC.c **** }
 774              		.loc 1 471 0
 775 000e 1070     		strb	r0, [r2]
 776 0010 7047     		bx	lr
 777              	.L25:
ARM GAS  C:\Users\emman\AppData\Local\Temp\ccNpJWxM.s 			page 48


 778 0012 00BF     		.align	2
 779              	.L24:
 780 0014 144E0040 		.word	1073761812
 781              		.cfi_endproc
 782              	.LFE5:
 783              		.size	Touch_ADC_SetCoherency, .-Touch_ADC_SetCoherency
 784              		.global	__aeabi_ui2f
 785              		.global	__aeabi_fmul
 786              		.global	__aeabi_f2d
 787              		.global	__aeabi_dcmpgt
 788              		.global	__aeabi_f2uiz
 789              		.section	.text.Touch_ADC_SetGCOR,"ax",%progbits
 790              		.align	1
 791              		.global	Touch_ADC_SetGCOR
 792              		.thumb
 793              		.thumb_func
 794              		.type	Touch_ADC_SetGCOR, %function
 795              	Touch_ADC_SetGCOR:
 796              	.LFB6:
 506:Generated_Source\PSoC5/Touch_ADC.c ****     uint16 tmpReg;
 797              		.loc 1 506 0
 798              		.cfi_startproc
 799              		@ args = 0, pretend = 0, frame = 0
 800              		@ frame_needed = 0, uses_anonymous_args = 0
 801              	.LVL37:
 802 0000 F8B5     		push	{r3, r4, r5, r6, r7, lr}
 803              		.cfi_def_cfa_offset 24
 804              		.cfi_offset 3, -24
 805              		.cfi_offset 4, -20
 806              		.cfi_offset 5, -16
 807              		.cfi_offset 6, -12
 808              		.cfi_offset 7, -8
 809              		.cfi_offset 14, -4
 506:Generated_Source\PSoC5/Touch_ADC.c ****     uint16 tmpReg;
 810              		.loc 1 506 0
 811 0002 0446     		mov	r4, r0
 511:Generated_Source\PSoC5/Touch_ADC.c ****     tmpValue = ((float32)tmpReg / (float32)Touch_ADC_IDEAL_GAIN_CONST);
 812              		.loc 1 511 0
 813 0004 184E     		ldr	r6, .L29+8
 814 0006 194D     		ldr	r5, .L29+12
 815 0008 3378     		ldrb	r3, [r6]	@ zero_extendqisi2
 816              	.LVL38:
 817 000a 05EB8303 		add	r3, r5, r3, lsl #2
 818              	.LVL39:
 512:Generated_Source\PSoC5/Touch_ADC.c ****     tmpValue = tmpValue * gainAdjust;
 819              		.loc 1 512 0
 820 000e 33F8020C 		ldrh	r0, [r3, #-2]
 821              	.LVL40:
 822 0012 FFF7FEFF 		bl	__aeabi_ui2f
 823              	.LVL41:
 824 0016 4FF06051 		mov	r1, #939524096
 825 001a FFF7FEFF 		bl	__aeabi_fmul
 826              	.LVL42:
 513:Generated_Source\PSoC5/Touch_ADC.c **** 
 827              		.loc 1 513 0
 828 001e 2146     		mov	r1, r4
 829 0020 FFF7FEFF 		bl	__aeabi_fmul
ARM GAS  C:\Users\emman\AppData\Local\Temp\ccNpJWxM.s 			page 49


 830              	.LVL43:
 831 0024 0746     		mov	r7, r0
 832              	.LVL44:
 515:Generated_Source\PSoC5/Touch_ADC.c ****     {
 833              		.loc 1 515 0
 834 0026 FFF7FEFF 		bl	__aeabi_f2d
 835              	.LVL45:
 836 002a 0DA3     		adr	r3, .L29
 837 002c D3E90023 		ldrd	r2, [r3]
 838 0030 FFF7FEFF 		bl	__aeabi_dcmpgt
 839              	.LVL46:
 840 0034 0446     		mov	r4, r0
 841              	.LVL47:
 842 0036 80B9     		cbnz	r0, .L28
 843              	.LVL48:
 522:Generated_Source\PSoC5/Touch_ADC.c ****         CY_SET_REG16(Touch_ADC_DEC_GCOR_16B_PTR, tmpReg);
 844              		.loc 1 522 0
 845 0038 4FF08E41 		mov	r1, #1191182336
 846 003c 3846     		mov	r0, r7
 847 003e FFF7FEFF 		bl	__aeabi_fmul
 848              	.LVL49:
 849 0042 FFF7FEFF 		bl	__aeabi_f2uiz
 850              	.LVL50:
 523:Generated_Source\PSoC5/Touch_ADC.c ****         /* Update gain array to be used by SelectConfiguration() API */
 851              		.loc 1 523 0
 852 0046 0A4B     		ldr	r3, .L29+16
 522:Generated_Source\PSoC5/Touch_ADC.c ****         CY_SET_REG16(Touch_ADC_DEC_GCOR_16B_PTR, tmpReg);
 853              		.loc 1 522 0
 854 0048 80B2     		uxth	r0, r0
 855              	.LVL51:
 523:Generated_Source\PSoC5/Touch_ADC.c ****         /* Update gain array to be used by SelectConfiguration() API */
 856              		.loc 1 523 0
 857 004a 1880     		strh	r0, [r3]	@ movhi
 525:Generated_Source\PSoC5/Touch_ADC.c **** 
 858              		.loc 1 525 0
 859 004c 3378     		ldrb	r3, [r6]	@ zero_extendqisi2
 860 004e 05EB8305 		add	r5, r5, r3, lsl #2
 861 0052 25F8020C 		strh	r0, [r5, #-2]	@ movhi
 862              	.LVL52:
 527:Generated_Source\PSoC5/Touch_ADC.c **** 
 863              		.loc 1 527 0
 864 0056 2046     		mov	r0, r4
 865              	.LVL53:
 866 0058 F8BD     		pop	{r3, r4, r5, r6, r7, pc}
 867              	.LVL54:
 868              	.L28:
 517:Generated_Source\PSoC5/Touch_ADC.c ****     }
 869              		.loc 1 517 0
 870 005a 0120     		movs	r0, #1
 871              	.LVL55:
 531:Generated_Source\PSoC5/Touch_ADC.c **** 
 872              		.loc 1 531 0
 873 005c F8BD     		pop	{r3, r4, r5, r6, r7, pc}
 874              	.LVL56:
 875              	.L30:
 876 005e 00BF     		.align	3
 877              	.L29:
ARM GAS  C:\Users\emman\AppData\Local\Temp\ccNpJWxM.s 			page 50


 878 0060 8F537424 		.word	611603343
 879 0064 97FFFF3F 		.word	1073741719
 880 0068 00000000 		.word	.LANCHOR0
 881 006c 00000000 		.word	.LANCHOR1
 882 0070 0C4E0040 		.word	1073761804
 883              		.cfi_endproc
 884              	.LFE6:
 885              		.size	Touch_ADC_SetGCOR, .-Touch_ADC_SetGCOR
 886              		.section	.text.Touch_ADC_ReadGCOR,"ax",%progbits
 887              		.align	1
 888              		.global	Touch_ADC_ReadGCOR
 889              		.thumb
 890              		.thumb_func
 891              		.type	Touch_ADC_ReadGCOR, %function
 892              	Touch_ADC_ReadGCOR:
 893              	.LFB7:
 553:Generated_Source\PSoC5/Touch_ADC.c ****     uint8 gValue;
 894              		.loc 1 553 0
 895              		.cfi_startproc
 896              		@ args = 0, pretend = 0, frame = 0
 897              		@ frame_needed = 0, uses_anonymous_args = 0
 898              		@ link register save eliminated.
 557:Generated_Source\PSoC5/Touch_ADC.c ****     gcorValue = CY_GET_REG16(Touch_ADC_DEC_GCOR_16B_PTR);
 899              		.loc 1 557 0
 900 0000 064B     		ldr	r3, .L33
 558:Generated_Source\PSoC5/Touch_ADC.c **** 
 901              		.loc 1 558 0
 902 0002 074A     		ldr	r2, .L33+4
 557:Generated_Source\PSoC5/Touch_ADC.c ****     gcorValue = CY_GET_REG16(Touch_ADC_DEC_GCOR_16B_PTR);
 903              		.loc 1 557 0
 904 0004 1B78     		ldrb	r3, [r3]	@ zero_extendqisi2
 558:Generated_Source\PSoC5/Touch_ADC.c **** 
 905              		.loc 1 558 0
 906 0006 1088     		ldrh	r0, [r2]
 557:Generated_Source\PSoC5/Touch_ADC.c ****     gcorValue = CY_GET_REG16(Touch_ADC_DEC_GCOR_16B_PTR);
 907              		.loc 1 557 0
 908 0008 DBB2     		uxtb	r3, r3
 909              	.LVL57:
 560:Generated_Source\PSoC5/Touch_ADC.c ****     {
 910              		.loc 1 560 0
 911 000a 0E2B     		cmp	r3, #14
 558:Generated_Source\PSoC5/Touch_ADC.c **** 
 912              		.loc 1 558 0
 913 000c 80B2     		uxth	r0, r0
 914              	.LVL58:
 562:Generated_Source\PSoC5/Touch_ADC.c ****     }
 915              		.loc 1 562 0
 916 000e 9EBF     		ittt	ls
 917 0010 C3F10F03 		rsbls	r3, r3, #15
 918              	.LVL59:
 919 0014 9840     		lslls	r0, r0, r3
 920              	.LVL60:
 921 0016 80B2     		uxthls	r0, r0
 922              	.LVL61:
 566:Generated_Source\PSoC5/Touch_ADC.c **** 
 923              		.loc 1 566 0
 924 0018 7047     		bx	lr
ARM GAS  C:\Users\emman\AppData\Local\Temp\ccNpJWxM.s 			page 51


 925              	.L34:
 926 001a 00BF     		.align	2
 927              	.L33:
 928 001c 0E4E0040 		.word	1073761806
 929 0020 0C4E0040 		.word	1073761804
 930              		.cfi_endproc
 931              	.LFE7:
 932              		.size	Touch_ADC_ReadGCOR, .-Touch_ADC_ReadGCOR
 933              		.section	.text.Touch_ADC_StartConvert,"ax",%progbits
 934              		.align	1
 935              		.global	Touch_ADC_StartConvert
 936              		.thumb
 937              		.thumb_func
 938              		.type	Touch_ADC_StartConvert, %function
 939              	Touch_ADC_StartConvert:
 940              	.LFB8:
 587:Generated_Source\PSoC5/Touch_ADC.c ****     /* Start the conversion */
 941              		.loc 1 587 0
 942              		.cfi_startproc
 943              		@ args = 0, pretend = 0, frame = 0
 944              		@ frame_needed = 0, uses_anonymous_args = 0
 945              		@ link register save eliminated.
 589:Generated_Source\PSoC5/Touch_ADC.c **** }
 946              		.loc 1 589 0
 947 0000 024A     		ldr	r2, .L36
 948 0002 1378     		ldrb	r3, [r2]	@ zero_extendqisi2
 949 0004 43F00103 		orr	r3, r3, #1
 950 0008 1370     		strb	r3, [r2]
 951 000a 7047     		bx	lr
 952              	.L37:
 953              		.align	2
 954              	.L36:
 955 000c 004E0040 		.word	1073761792
 956              		.cfi_endproc
 957              	.LFE8:
 958              		.size	Touch_ADC_StartConvert, .-Touch_ADC_StartConvert
 959              		.section	.text.Touch_ADC_StopConvert,"ax",%progbits
 960              		.align	1
 961              		.global	Touch_ADC_StopConvert
 962              		.thumb
 963              		.thumb_func
 964              		.type	Touch_ADC_StopConvert, %function
 965              	Touch_ADC_StopConvert:
 966              	.LFB9:
 610:Generated_Source\PSoC5/Touch_ADC.c ****     /* Stop all conversions */
 967              		.loc 1 610 0
 968              		.cfi_startproc
 969              		@ args = 0, pretend = 0, frame = 0
 970              		@ frame_needed = 0, uses_anonymous_args = 0
 971              		@ link register save eliminated.
 612:Generated_Source\PSoC5/Touch_ADC.c **** }
 972              		.loc 1 612 0
 973 0000 024A     		ldr	r2, .L39
 974 0002 1378     		ldrb	r3, [r2]	@ zero_extendqisi2
 975 0004 03F0FE03 		and	r3, r3, #254
 976 0008 1370     		strb	r3, [r2]
 977 000a 7047     		bx	lr
ARM GAS  C:\Users\emman\AppData\Local\Temp\ccNpJWxM.s 			page 52


 978              	.L40:
 979              		.align	2
 980              	.L39:
 981 000c 004E0040 		.word	1073761792
 982              		.cfi_endproc
 983              	.LFE9:
 984              		.size	Touch_ADC_StopConvert, .-Touch_ADC_StopConvert
 985              		.section	.text.Touch_ADC_IsEndConversion,"ax",%progbits
 986              		.align	1
 987              		.global	Touch_ADC_IsEndConversion
 988              		.thumb
 989              		.thumb_func
 990              		.type	Touch_ADC_IsEndConversion, %function
 991              	Touch_ADC_IsEndConversion:
 992              	.LFB10:
 645:Generated_Source\PSoC5/Touch_ADC.c ****     uint8 status;
 993              		.loc 1 645 0
 994              		.cfi_startproc
 995              		@ args = 0, pretend = 0, frame = 0
 996              		@ frame_needed = 0, uses_anonymous_args = 0
 997              		@ link register save eliminated.
 998              	.LVL62:
 653:Generated_Source\PSoC5/Touch_ADC.c ****         {
 999              		.loc 1 653 0
 1000 0000 074A     		ldr	r2, .L51
 659:Generated_Source\PSoC5/Touch_ADC.c ****         }
 1001              		.loc 1 659 0
 1002 0002 0849     		ldr	r1, .L51+4
 1003              	.L45:
 653:Generated_Source\PSoC5/Touch_ADC.c ****         {
 1004              		.loc 1 653 0
 1005 0004 9379     		ldrb	r3, [r2, #6]	@ zero_extendqisi2
 1006 0006 13B1     		cbz	r3, .L42
 655:Generated_Source\PSoC5/Touch_ADC.c ****         }
 1007              		.loc 1 655 0
 1008 0008 1378     		ldrb	r3, [r2]	@ zero_extendqisi2
 1009 000a DBB2     		uxtb	r3, r3
 1010              	.LVL63:
 1011 000c 02E0     		b	.L43
 1012              	.LVL64:
 1013              	.L42:
 659:Generated_Source\PSoC5/Touch_ADC.c ****         }
 1014              		.loc 1 659 0
 1015 000e 0B78     		ldrb	r3, [r1]	@ zero_extendqisi2
 1016 0010 03F00103 		and	r3, r3, #1
 1017              	.LVL65:
 1018              	.L43:
 661:Generated_Source\PSoC5/Touch_ADC.c **** 
 1019              		.loc 1 661 0
 1020 0014 012B     		cmp	r3, #1
 1021 0016 01D0     		beq	.L44
 661:Generated_Source\PSoC5/Touch_ADC.c **** 
 1022              		.loc 1 661 0 is_stmt 0 discriminator 1
 1023 0018 0028     		cmp	r0, #0
 1024 001a F3D0     		beq	.L45
 1025              	.L44:
 664:Generated_Source\PSoC5/Touch_ADC.c **** 
ARM GAS  C:\Users\emman\AppData\Local\Temp\ccNpJWxM.s 			page 53


 1026              		.loc 1 664 0 is_stmt 1
 1027 001c 1846     		mov	r0, r3
 1028              	.LVL66:
 1029 001e 7047     		bx	lr
 1030              	.L52:
 1031              		.align	2
 1032              	.L51:
 1033 0020 00000000 		.word	.LANCHOR1
 1034 0024 014E0040 		.word	1073761793
 1035              		.cfi_endproc
 1036              	.LFE10:
 1037              		.size	Touch_ADC_IsEndConversion, .-Touch_ADC_IsEndConversion
 1038              		.section	.text.Touch_ADC_GetResult8,"ax",%progbits
 1039              		.align	1
 1040              		.global	Touch_ADC_GetResult8
 1041              		.thumb
 1042              		.thumb_func
 1043              		.type	Touch_ADC_GetResult8, %function
 1044              	Touch_ADC_GetResult8:
 1045              	.LFB11:
 692:Generated_Source\PSoC5/Touch_ADC.c ****     int8 result;
 1046              		.loc 1 692 0
 1047              		.cfi_startproc
 1048              		@ args = 0, pretend = 0, frame = 0
 1049              		@ frame_needed = 0, uses_anonymous_args = 0
 1050              		@ link register save eliminated.
 697:Generated_Source\PSoC5/Touch_ADC.c **** 
 1051              		.loc 1 697 0
 1052 0000 0A4B     		ldr	r3, .L61
 699:Generated_Source\PSoC5/Touch_ADC.c **** 
 1053              		.loc 1 699 0
 1054 0002 0B4A     		ldr	r2, .L61+4
 697:Generated_Source\PSoC5/Touch_ADC.c **** 
 1055              		.loc 1 697 0
 1056 0004 1B78     		ldrb	r3, [r3]	@ zero_extendqisi2
 699:Generated_Source\PSoC5/Touch_ADC.c **** 
 1057              		.loc 1 699 0
 1058 0006 1078     		ldrb	r0, [r2]	@ zero_extendqisi2
 697:Generated_Source\PSoC5/Touch_ADC.c **** 
 1059              		.loc 1 697 0
 1060 0008 03F00303 		and	r3, r3, #3
 1061              	.LVL67:
 701:Generated_Source\PSoC5/Touch_ADC.c ****     {   /* Dummy read of the middle byte to unlock the coherency */
 1062              		.loc 1 701 0
 1063 000c 022B     		cmp	r3, #2
 699:Generated_Source\PSoC5/Touch_ADC.c **** 
 1064              		.loc 1 699 0
 1065 000e 40B2     		sxtb	r0, r0
 1066              	.LVL68:
 701:Generated_Source\PSoC5/Touch_ADC.c ****     {   /* Dummy read of the middle byte to unlock the coherency */
 1067              		.loc 1 701 0
 1068 0010 01D1     		bne	.L54
 703:Generated_Source\PSoC5/Touch_ADC.c ****     }
 1069              		.loc 1 703 0
 1070 0012 084B     		ldr	r3, .L61+8
 1071              	.LVL69:
 1072 0014 02E0     		b	.L60
ARM GAS  C:\Users\emman\AppData\Local\Temp\ccNpJWxM.s 			page 54


 1073              	.LVL70:
 1074              	.L54:
 705:Generated_Source\PSoC5/Touch_ADC.c ****     {   /* Dummy read of the MSB byte to unlock the coherency */
 1075              		.loc 1 705 0
 1076 0016 032B     		cmp	r3, #3
 1077 0018 01D1     		bne	.L55
 707:Generated_Source\PSoC5/Touch_ADC.c ****     }
 1078              		.loc 1 707 0
 1079 001a 074B     		ldr	r3, .L61+12
 1080              	.LVL71:
 1081              	.L60:
 1082 001c 1B78     		ldrb	r3, [r3]	@ zero_extendqisi2
 1083              	.L55:
 713:Generated_Source\PSoC5/Touch_ADC.c ****     {
 1084              		.loc 1 713 0
 1085 001e 074B     		ldr	r3, .L61+16
 1086 0020 9A79     		ldrb	r2, [r3, #6]	@ zero_extendqisi2
 1087 0022 0AB1     		cbz	r2, .L56
 715:Generated_Source\PSoC5/Touch_ADC.c ****     }
 1088              		.loc 1 715 0
 1089 0024 0022     		movs	r2, #0
 1090 0026 1A70     		strb	r2, [r3]
 1091              	.L56:
 718:Generated_Source\PSoC5/Touch_ADC.c **** 
 1092              		.loc 1 718 0
 1093 0028 7047     		bx	lr
 1094              	.L62:
 1095 002a 00BF     		.align	2
 1096              	.L61:
 1097 002c 144E0040 		.word	1073761812
 1098 0030 104E0040 		.word	1073761808
 1099 0034 114E0040 		.word	1073761809
 1100 0038 124E0040 		.word	1073761810
 1101 003c 00000000 		.word	.LANCHOR1
 1102              		.cfi_endproc
 1103              	.LFE11:
 1104              		.size	Touch_ADC_GetResult8, .-Touch_ADC_GetResult8
 1105              		.section	.text.Touch_ADC_GetResult16,"ax",%progbits
 1106              		.align	1
 1107              		.global	Touch_ADC_GetResult16
 1108              		.thumb
 1109              		.thumb_func
 1110              		.type	Touch_ADC_GetResult16, %function
 1111              	Touch_ADC_GetResult16:
 1112              	.LFB12:
 746:Generated_Source\PSoC5/Touch_ADC.c ****     uint16 result;
 1113              		.loc 1 746 0
 1114              		.cfi_startproc
 1115              		@ args = 0, pretend = 0, frame = 0
 1116              		@ frame_needed = 0, uses_anonymous_args = 0
 1117              		@ link register save eliminated.
 751:Generated_Source\PSoC5/Touch_ADC.c **** 
 1118              		.loc 1 751 0
 1119 0000 0C4B     		ldr	r3, .L70
 1120 0002 1A78     		ldrb	r2, [r3]	@ zero_extendqisi2
 1121 0004 043B     		subs	r3, r3, #4
 1122 0006 02F00302 		and	r2, r2, #3
ARM GAS  C:\Users\emman\AppData\Local\Temp\ccNpJWxM.s 			page 55


 1123              	.LVL72:
 753:Generated_Source\PSoC5/Touch_ADC.c ****     {   /*  Use default method to read result registers i.e. LSB byte read at the end*/
 1124              		.loc 1 753 0
 1125 000a 012A     		cmp	r2, #1
 1126 000c 02D8     		bhi	.L64
 759:Generated_Source\PSoC5/Touch_ADC.c ****         #endif /* CY_PSOC3 */
 1127              		.loc 1 759 0
 1128 000e 1888     		ldrh	r0, [r3]
 1129 0010 80B2     		uxth	r0, r0
 1130              	.LVL73:
 1131 0012 08E0     		b	.L65
 1132              	.LVL74:
 1133              	.L64:
 768:Generated_Source\PSoC5/Touch_ADC.c ****         #endif /* CY_PSOC3 */
 1134              		.loc 1 768 0
 1135 0014 0849     		ldr	r1, .L70+4
 767:Generated_Source\PSoC5/Touch_ADC.c ****             result |=  (uint16)((uint16)Touch_ADC_DEC_SAMPM_REG << 8u);
 1136              		.loc 1 767 0
 1137 0016 1B78     		ldrb	r3, [r3]	@ zero_extendqisi2
 1138              	.LVL75:
 768:Generated_Source\PSoC5/Touch_ADC.c ****         #endif /* CY_PSOC3 */
 1139              		.loc 1 768 0
 1140 0018 0878     		ldrb	r0, [r1]	@ zero_extendqisi2
 770:Generated_Source\PSoC5/Touch_ADC.c ****         {   /* Dummy read of the MSB byte to unlock the coherency */
 1141              		.loc 1 770 0
 1142 001a 032A     		cmp	r2, #3
 768:Generated_Source\PSoC5/Touch_ADC.c ****         #endif /* CY_PSOC3 */
 1143              		.loc 1 768 0
 1144 001c 43EA0020 		orr	r0, r3, r0, lsl #8
 1145              	.LVL76:
 772:Generated_Source\PSoC5/Touch_ADC.c ****         }
 1146              		.loc 1 772 0
 1147 0020 04BF     		itt	eq
 1148 0022 064B     		ldreq	r3, .L70+8
 1149 0024 1B78     		ldrbeq	r3, [r3]	@ zero_extendqisi2
 1150              	.L65:
 776:Generated_Source\PSoC5/Touch_ADC.c ****     {
 1151              		.loc 1 776 0
 1152 0026 064B     		ldr	r3, .L70+12
 1153 0028 9A79     		ldrb	r2, [r3, #6]	@ zero_extendqisi2
 1154              	.LVL77:
 1155 002a 0AB1     		cbz	r2, .L66
 778:Generated_Source\PSoC5/Touch_ADC.c ****     }
 1156              		.loc 1 778 0
 1157 002c 0022     		movs	r2, #0
 1158 002e 1A70     		strb	r2, [r3]
 1159              	.L66:
 782:Generated_Source\PSoC5/Touch_ADC.c **** 
 1160              		.loc 1 782 0
 1161 0030 00B2     		sxth	r0, r0
 1162 0032 7047     		bx	lr
 1163              	.L71:
 1164              		.align	2
 1165              	.L70:
 1166 0034 144E0040 		.word	1073761812
 1167 0038 114E0040 		.word	1073761809
 1168 003c 124E0040 		.word	1073761810
ARM GAS  C:\Users\emman\AppData\Local\Temp\ccNpJWxM.s 			page 56


 1169 0040 00000000 		.word	.LANCHOR1
 1170              		.cfi_endproc
 1171              	.LFE12:
 1172              		.size	Touch_ADC_GetResult16, .-Touch_ADC_GetResult16
 1173              		.section	.text.Touch_ADC_GetResult32,"ax",%progbits
 1174              		.align	1
 1175              		.global	Touch_ADC_GetResult32
 1176              		.thumb
 1177              		.thumb_func
 1178              		.type	Touch_ADC_GetResult32, %function
 1179              	Touch_ADC_GetResult32:
 1180              	.LFB13:
 806:Generated_Source\PSoC5/Touch_ADC.c ****     uint32 result;
 1181              		.loc 1 806 0
 1182              		.cfi_startproc
 1183              		@ args = 0, pretend = 0, frame = 0
 1184              		@ frame_needed = 0, uses_anonymous_args = 0
 1185              		@ link register save eliminated.
 814:Generated_Source\PSoC5/Touch_ADC.c **** 
 1186              		.loc 1 814 0
 1187 0000 104B     		ldr	r3, .L81
 1188 0002 114A     		ldr	r2, .L81+4
 1189 0004 1B78     		ldrb	r3, [r3]	@ zero_extendqisi2
 1190 0006 1149     		ldr	r1, .L81+8
 1191 0008 03F00303 		and	r3, r3, #3
 1192              	.LVL78:
 816:Generated_Source\PSoC5/Touch_ADC.c ****     {   /*  Use default method to read result registers i.e. LSB byte read at the end*/
 1193              		.loc 1 816 0
 1194 000c 012B     		cmp	r3, #1
 1195 000e 03D8     		bhi	.L73
 827:Generated_Source\PSoC5/Touch_ADC.c ****             result = (result << 16u) | (CY_GET_REG16(Touch_ADC_DEC_SAMP_16B_PTR));
 1196              		.loc 1 827 0
 1197 0010 1388     		ldrh	r3, [r2]
 1198              	.LVL79:
 828:Generated_Source\PSoC5/Touch_ADC.c ****         #endif /* CY_PSOC3 */
 1199              		.loc 1 828 0
 1200 0012 0888     		ldrh	r0, [r1]
 1201 0014 80B2     		uxth	r0, r0
 1202 0016 0DE0     		b	.L80
 1203              	.LVL80:
 1204              	.L73:
 831:Generated_Source\PSoC5/Touch_ADC.c ****     {   /* Read middle byte at the end */
 1205              		.loc 1 831 0
 1206 0018 022B     		cmp	r3, #2
 1207 001a 08D1     		bne	.L75
 843:Generated_Source\PSoC5/Touch_ADC.c ****         #endif /* CY_PSOC3 */
 1208              		.loc 1 843 0
 1209 001c 0C4B     		ldr	r3, .L81+12
 1210              	.LVL81:
 841:Generated_Source\PSoC5/Touch_ADC.c ****             result = (result << 16u) | Touch_ADC_DEC_SAMP_REG;
 1211              		.loc 1 841 0
 1212 001e 1088     		ldrh	r0, [r2]
 1213              	.LVL82:
 842:Generated_Source\PSoC5/Touch_ADC.c ****             result |=  (uint32)((uint32)Touch_ADC_DEC_SAMPM_REG << 8u);
 1214              		.loc 1 842 0
 1215 0020 0A78     		ldrb	r2, [r1]	@ zero_extendqisi2
 1216              	.LVL83:
ARM GAS  C:\Users\emman\AppData\Local\Temp\ccNpJWxM.s 			page 57


 843:Generated_Source\PSoC5/Touch_ADC.c ****         #endif /* CY_PSOC3 */
 1217              		.loc 1 843 0
 1218 0022 1B78     		ldrb	r3, [r3]	@ zero_extendqisi2
 1219 0024 1B02     		lsls	r3, r3, #8
 1220 0026 43EA0040 		orr	r0, r3, r0, lsl #16
 1221              	.LVL84:
 1222 002a 1043     		orrs	r0, r0, r2
 1223              	.LVL85:
 1224 002c 04E0     		b	.L74
 1225              	.LVL86:
 1226              	.L75:
 858:Generated_Source\PSoC5/Touch_ADC.c ****             result |= (uint32)((uint32)CY_GET_REG16(Touch_ADC_DEC_SAMPH_16B_PTR) << 16u);
 1227              		.loc 1 858 0
 1228 002e 0888     		ldrh	r0, [r1]
 859:Generated_Source\PSoC5/Touch_ADC.c ****         #endif /* CY_PSOC3 */
 1229              		.loc 1 859 0
 1230 0030 1388     		ldrh	r3, [r2]
 1231              	.LVL87:
 858:Generated_Source\PSoC5/Touch_ADC.c ****             result |= (uint32)((uint32)CY_GET_REG16(Touch_ADC_DEC_SAMPH_16B_PTR) << 16u);
 1232              		.loc 1 858 0
 1233 0032 80B2     		uxth	r0, r0
 1234              	.LVL88:
 1235              	.L80:
 859:Generated_Source\PSoC5/Touch_ADC.c ****         #endif /* CY_PSOC3 */
 1236              		.loc 1 859 0
 1237 0034 40EA0340 		orr	r0, r0, r3, lsl #16
 1238              	.LVL89:
 1239              	.L74:
 863:Generated_Source\PSoC5/Touch_ADC.c ****     {
 1240              		.loc 1 863 0
 1241 0038 064B     		ldr	r3, .L81+16
 1242 003a 9A79     		ldrb	r2, [r3, #6]	@ zero_extendqisi2
 1243 003c 0AB1     		cbz	r2, .L76
 865:Generated_Source\PSoC5/Touch_ADC.c ****     }
 1244              		.loc 1 865 0
 1245 003e 0022     		movs	r2, #0
 1246 0040 1A70     		strb	r2, [r3]
 1247              	.L76:
 869:Generated_Source\PSoC5/Touch_ADC.c **** 
 1248              		.loc 1 869 0
 1249 0042 7047     		bx	lr
 1250              	.L82:
 1251              		.align	2
 1252              	.L81:
 1253 0044 144E0040 		.word	1073761812
 1254 0048 124E0040 		.word	1073761810
 1255 004c 104E0040 		.word	1073761808
 1256 0050 114E0040 		.word	1073761809
 1257 0054 00000000 		.word	.LANCHOR1
 1258              		.cfi_endproc
 1259              	.LFE13:
 1260              		.size	Touch_ADC_GetResult32, .-Touch_ADC_GetResult32
 1261              		.section	.text.Touch_ADC_SetOffset,"ax",%progbits
 1262              		.align	1
 1263              		.global	Touch_ADC_SetOffset
 1264              		.thumb
 1265              		.thumb_func
ARM GAS  C:\Users\emman\AppData\Local\Temp\ccNpJWxM.s 			page 58


 1266              		.type	Touch_ADC_SetOffset, %function
 1267              	Touch_ADC_SetOffset:
 1268              	.LFB14:
 899:Generated_Source\PSoC5/Touch_ADC.c **** 
 1269              		.loc 1 899 0
 1270              		.cfi_startproc
 1271              		@ args = 0, pretend = 0, frame = 0
 1272              		@ frame_needed = 0, uses_anonymous_args = 0
 1273              		@ link register save eliminated.
 1274              	.LVL90:
 901:Generated_Source\PSoC5/Touch_ADC.c **** }
 1275              		.loc 1 901 0
 1276 0000 014B     		ldr	r3, .L84
 1277 0002 1860     		str	r0, [r3]
 1278 0004 7047     		bx	lr
 1279              	.L85:
 1280 0006 00BF     		.align	2
 1281              	.L84:
 1282 0008 00000000 		.word	Touch_ADC_Offset
 1283              		.cfi_endproc
 1284              	.LFE14:
 1285              		.size	Touch_ADC_SetOffset, .-Touch_ADC_SetOffset
 1286              		.section	.text.Touch_ADC_SetGain,"ax",%progbits
 1287              		.align	1
 1288              		.global	Touch_ADC_SetGain
 1289              		.thumb
 1290              		.thumb_func
 1291              		.type	Touch_ADC_SetGain, %function
 1292              	Touch_ADC_SetGain:
 1293              	.LFB15:
 934:Generated_Source\PSoC5/Touch_ADC.c ****     Touch_ADC_CountsPerVolt = adcGain;
 1294              		.loc 1 934 0
 1295              		.cfi_startproc
 1296              		@ args = 0, pretend = 0, frame = 0
 1297              		@ frame_needed = 0, uses_anonymous_args = 0
 1298              		@ link register save eliminated.
 1299              	.LVL91:
 935:Generated_Source\PSoC5/Touch_ADC.c **** }
 1300              		.loc 1 935 0
 1301 0000 014B     		ldr	r3, .L87
 1302 0002 1860     		str	r0, [r3]
 1303 0004 7047     		bx	lr
 1304              	.L88:
 1305 0006 00BF     		.align	2
 1306              	.L87:
 1307 0008 00000000 		.word	Touch_ADC_CountsPerVolt
 1308              		.cfi_endproc
 1309              	.LFE15:
 1310              		.size	Touch_ADC_SetGain, .-Touch_ADC_SetGain
 1311              		.section	.text.Touch_ADC_CountsTo_mVolts,"ax",%progbits
 1312              		.align	1
 1313              		.global	Touch_ADC_CountsTo_mVolts
 1314              		.thumb
 1315              		.thumb_func
 1316              		.type	Touch_ADC_CountsTo_mVolts, %function
 1317              	Touch_ADC_CountsTo_mVolts:
 1318              	.LFB16:
ARM GAS  C:\Users\emman\AppData\Local\Temp\ccNpJWxM.s 			page 59


 961:Generated_Source\PSoC5/Touch_ADC.c **** 
 1319              		.loc 1 961 0
 1320              		.cfi_startproc
 1321              		@ args = 0, pretend = 0, frame = 0
 1322              		@ frame_needed = 0, uses_anonymous_args = 0
 1323              		@ link register save eliminated.
 1324              	.LVL92:
 992:Generated_Source\PSoC5/Touch_ADC.c **** 
 1325              		.loc 1 992 0
 1326 0000 054B     		ldr	r3, .L90
 994:Generated_Source\PSoC5/Touch_ADC.c **** 
 1327              		.loc 1 994 0
 1328 0002 064A     		ldr	r2, .L90+4
 992:Generated_Source\PSoC5/Touch_ADC.c **** 
 1329              		.loc 1 992 0
 1330 0004 1B68     		ldr	r3, [r3]
 1331              	.LVL93:
 994:Generated_Source\PSoC5/Touch_ADC.c **** 
 1332              		.loc 1 994 0
 1333 0006 1268     		ldr	r2, [r2]
 1334              	.LVL94:
 996:Generated_Source\PSoC5/Touch_ADC.c **** }
 1335              		.loc 1 996 0
 1336 0008 C01A     		subs	r0, r0, r3
 1337              	.LVL95:
 1338 000a 4FF47A73 		mov	r3, #1000
 1339              	.LVL96:
 1340 000e 5843     		muls	r0, r3, r0
 1341              	.LVL97:
 1342 0010 90FBF2F0 		sdiv	r0, r0, r2
 997:Generated_Source\PSoC5/Touch_ADC.c **** 
 1343              		.loc 1 997 0
 1344 0014 00B2     		sxth	r0, r0
 1345 0016 7047     		bx	lr
 1346              	.L91:
 1347              		.align	2
 1348              	.L90:
 1349 0018 00000000 		.word	Touch_ADC_Offset
 1350 001c 00000000 		.word	Touch_ADC_CountsPerVolt
 1351              		.cfi_endproc
 1352              	.LFE16:
 1353              		.size	Touch_ADC_CountsTo_mVolts, .-Touch_ADC_CountsTo_mVolts
 1354              		.global	__aeabi_i2f
 1355              		.global	__aeabi_fdiv
 1356              		.section	.text.Touch_ADC_CountsTo_Volts,"ax",%progbits
 1357              		.align	1
 1358              		.global	Touch_ADC_CountsTo_Volts
 1359              		.thumb
 1360              		.thumb_func
 1361              		.type	Touch_ADC_CountsTo_Volts, %function
 1362              	Touch_ADC_CountsTo_Volts:
 1363              	.LFB17:
1022:Generated_Source\PSoC5/Touch_ADC.c **** 
 1364              		.loc 1 1022 0
 1365              		.cfi_startproc
 1366              		@ args = 0, pretend = 0, frame = 0
 1367              		@ frame_needed = 0, uses_anonymous_args = 0
ARM GAS  C:\Users\emman\AppData\Local\Temp\ccNpJWxM.s 			page 60


 1368              	.LVL98:
 1369 0000 38B5     		push	{r3, r4, r5, lr}
 1370              		.cfi_def_cfa_offset 16
 1371              		.cfi_offset 3, -16
 1372              		.cfi_offset 4, -12
 1373              		.cfi_offset 5, -8
 1374              		.cfi_offset 14, -4
1053:Generated_Source\PSoC5/Touch_ADC.c **** 
 1375              		.loc 1 1053 0
 1376 0002 084B     		ldr	r3, .L93
1055:Generated_Source\PSoC5/Touch_ADC.c **** 
 1377              		.loc 1 1055 0
 1378 0004 084A     		ldr	r2, .L93+4
1053:Generated_Source\PSoC5/Touch_ADC.c **** 
 1379              		.loc 1 1053 0
 1380 0006 1B68     		ldr	r3, [r3]
 1381              	.LVL99:
1055:Generated_Source\PSoC5/Touch_ADC.c **** 
 1382              		.loc 1 1055 0
 1383 0008 1568     		ldr	r5, [r2]
 1384              	.LVL100:
1057:Generated_Source\PSoC5/Touch_ADC.c **** }
 1385              		.loc 1 1057 0
 1386 000a C01A     		subs	r0, r0, r3
 1387              	.LVL101:
 1388 000c FFF7FEFF 		bl	__aeabi_i2f
 1389              	.LVL102:
 1390 0010 0446     		mov	r4, r0
 1391 0012 2846     		mov	r0, r5
 1392 0014 FFF7FEFF 		bl	__aeabi_i2f
 1393              	.LVL103:
 1394 0018 0146     		mov	r1, r0
 1395 001a 2046     		mov	r0, r4
 1396 001c FFF7FEFF 		bl	__aeabi_fdiv
 1397              	.LVL104:
1058:Generated_Source\PSoC5/Touch_ADC.c **** 
 1398              		.loc 1 1058 0
 1399 0020 38BD     		pop	{r3, r4, r5, pc}
 1400              	.L94:
 1401 0022 00BF     		.align	2
 1402              	.L93:
 1403 0024 00000000 		.word	Touch_ADC_Offset
 1404 0028 00000000 		.word	Touch_ADC_CountsPerVolt
 1405              		.cfi_endproc
 1406              	.LFE17:
 1407              		.size	Touch_ADC_CountsTo_Volts, .-Touch_ADC_CountsTo_Volts
 1408              		.section	.text.Touch_ADC_CountsTo_uVolts,"ax",%progbits
 1409              		.align	1
 1410              		.global	Touch_ADC_CountsTo_uVolts
 1411              		.thumb
 1412              		.thumb_func
 1413              		.type	Touch_ADC_CountsTo_uVolts, %function
 1414              	Touch_ADC_CountsTo_uVolts:
 1415              	.LFB18:
1088:Generated_Source\PSoC5/Touch_ADC.c **** 
 1416              		.loc 1 1088 0
 1417              		.cfi_startproc
ARM GAS  C:\Users\emman\AppData\Local\Temp\ccNpJWxM.s 			page 61


 1418              		@ args = 0, pretend = 0, frame = 0
 1419              		@ frame_needed = 0, uses_anonymous_args = 0
 1420              		@ link register save eliminated.
 1421              	.LVL105:
1097:Generated_Source\PSoC5/Touch_ADC.c ****     {
 1422              		.loc 1 1097 0
 1423 0000 0E4B     		ldr	r3, .L99
 1424 0002 1A78     		ldrb	r2, [r3]	@ zero_extendqisi2
 1425 0004 012A     		cmp	r2, #1
 1426 0006 04D0     		beq	.L97
1104:Generated_Source\PSoC5/Touch_ADC.c ****     {
 1427              		.loc 1 1104 0
 1428 0008 1A78     		ldrb	r2, [r3]	@ zero_extendqisi2
 1429 000a 022A     		cmp	r2, #2
 1430 000c 04D0     		beq	.L98
1111:Generated_Source\PSoC5/Touch_ADC.c ****     {
 1431              		.loc 1 1111 0
 1432 000e 1B78     		ldrb	r3, [r3]	@ zero_extendqisi2
 1433 0010 02E0     		b	.L98
 1434              	.L97:
1134:Generated_Source\PSoC5/Touch_ADC.c ****                 break;
 1435              		.loc 1 1134 0
 1436 0012 0221     		movs	r1, #2
1133:Generated_Source\PSoC5/Touch_ADC.c ****                 coefB = Touch_ADC_DIVISOR_2;
 1437              		.loc 1 1133 0
 1438 0014 0A4B     		ldr	r3, .L99+4
 1439 0016 02E0     		b	.L96
 1440              	.L98:
1169:Generated_Source\PSoC5/Touch_ADC.c ****                 coefB = Touch_ADC_DIVISOR_32;
 1441              		.loc 1 1169 0
 1442 0018 47F61223 		movw	r3, #31250
1170:Generated_Source\PSoC5/Touch_ADC.c ****                 break;
 1443              		.loc 1 1170 0
 1444 001c 2021     		movs	r1, #32
 1445              	.L96:
 1446              	.LVL106:
1215:Generated_Source\PSoC5/Touch_ADC.c ****     uVolts = ((coefA * adcCounts) / coefB) - ((coefA * Touch_ADC_Offset) / coefB);
 1447              		.loc 1 1215 0
 1448 001e 094A     		ldr	r2, .L99+8
1218:Generated_Source\PSoC5/Touch_ADC.c **** }
 1449              		.loc 1 1218 0
 1450 0020 5843     		muls	r0, r3, r0
 1451              	.LVL107:
1215:Generated_Source\PSoC5/Touch_ADC.c ****     uVolts = ((coefA * adcCounts) / coefB) - ((coefA * Touch_ADC_Offset) / coefB);
 1452              		.loc 1 1215 0
 1453 0022 1268     		ldr	r2, [r2]
 1454 0024 92FBF1F1 		sdiv	r1, r2, r1
 1455              	.LVL108:
1216:Generated_Source\PSoC5/Touch_ADC.c **** 
 1456              		.loc 1 1216 0
 1457 0028 074A     		ldr	r2, .L99+12
1218:Generated_Source\PSoC5/Touch_ADC.c **** }
 1458              		.loc 1 1218 0
 1459 002a 90FBF1F0 		sdiv	r0, r0, r1
1216:Generated_Source\PSoC5/Touch_ADC.c **** 
 1460              		.loc 1 1216 0
 1461 002e 1268     		ldr	r2, [r2]
ARM GAS  C:\Users\emman\AppData\Local\Temp\ccNpJWxM.s 			page 62


1218:Generated_Source\PSoC5/Touch_ADC.c **** }
 1462              		.loc 1 1218 0
 1463 0030 5343     		muls	r3, r2, r3
 1464              	.LVL109:
 1465 0032 93FBF1F3 		sdiv	r3, r3, r1
1219:Generated_Source\PSoC5/Touch_ADC.c **** 
 1466              		.loc 1 1219 0
 1467 0036 C01A     		subs	r0, r0, r3
 1468 0038 7047     		bx	lr
 1469              	.L100:
 1470 003a 00BF     		.align	2
 1471              	.L99:
 1472 003c 00000000 		.word	.LANCHOR0
 1473 0040 20A10700 		.word	500000
 1474 0044 00000000 		.word	Touch_ADC_CountsPerVolt
 1475 0048 00000000 		.word	Touch_ADC_Offset
 1476              		.cfi_endproc
 1477              	.LFE18:
 1478              		.size	Touch_ADC_CountsTo_uVolts, .-Touch_ADC_CountsTo_uVolts
 1479              		.section	.text.Touch_ADC_SelectConfiguration,"ax",%progbits
 1480              		.align	1
 1481              		.global	Touch_ADC_SelectConfiguration
 1482              		.thumb
 1483              		.thumb_func
 1484              		.type	Touch_ADC_SelectConfiguration, %function
 1485              	Touch_ADC_SelectConfiguration:
 1486              	.LFB20:
1554:Generated_Source\PSoC5/Touch_ADC.c ****     /* Check whether the configuration number is valid or not */
 1487              		.loc 1 1554 0
 1488              		.cfi_startproc
 1489              		@ args = 0, pretend = 0, frame = 0
 1490              		@ frame_needed = 0, uses_anonymous_args = 0
 1491              	.LVL110:
1556:Generated_Source\PSoC5/Touch_ADC.c ****     {
 1492              		.loc 1 1556 0
 1493 0000 0128     		cmp	r0, #1
1554:Generated_Source\PSoC5/Touch_ADC.c ****     /* Check whether the configuration number is valid or not */
 1494              		.loc 1 1554 0
 1495 0002 38B5     		push	{r3, r4, r5, lr}
 1496              		.cfi_def_cfa_offset 16
 1497              		.cfi_offset 3, -16
 1498              		.cfi_offset 4, -12
 1499              		.cfi_offset 5, -8
 1500              		.cfi_offset 14, -4
1554:Generated_Source\PSoC5/Touch_ADC.c ****     /* Check whether the configuration number is valid or not */
 1501              		.loc 1 1554 0
 1502 0004 0D46     		mov	r5, r1
1556:Generated_Source\PSoC5/Touch_ADC.c ****     {
 1503              		.loc 1 1556 0
 1504 0006 1AD1     		bne	.L101
1561:Generated_Source\PSoC5/Touch_ADC.c ****         {
 1505              		.loc 1 1561 0
 1506 0008 0D4C     		ldr	r4, .L106
 1507 000a E379     		ldrb	r3, [r4, #7]	@ zero_extendqisi2
 1508 000c 03B9     		cbnz	r3, .L104
1563:Generated_Source\PSoC5/Touch_ADC.c ****         }
 1509              		.loc 1 1563 0
ARM GAS  C:\Users\emman\AppData\Local\Temp\ccNpJWxM.s 			page 63


 1510 000e 2072     		strb	r0, [r4, #8]
 1511              	.L104:
1567:Generated_Source\PSoC5/Touch_ADC.c **** 
 1512              		.loc 1 1567 0
 1513 0010 0C4B     		ldr	r3, .L106+4
 1514 0012 0122     		movs	r2, #1
 1515 0014 1A70     		strb	r2, [r3]
1570:Generated_Source\PSoC5/Touch_ADC.c **** 
 1516              		.loc 1 1570 0
 1517 0016 FFF7FEFF 		bl	Touch_ADC_Stop
 1518              	.LVL111:
 1519              	.LBB18:
 1520              	.LBB19:
1244:Generated_Source\PSoC5/Touch_ADC.c **** 
 1521              		.loc 1 1244 0
 1522 001a 0023     		movs	r3, #0
 1523 001c A371     		strb	r3, [r4, #6]
 1524 001e FFF7FEFF 		bl	Touch_ADC_InitConfig.part.0
 1525              	.LVL112:
 1526              	.LBE19:
 1527              	.LBE18:
1576:Generated_Source\PSoC5/Touch_ADC.c ****         CY_SET_REG16(Touch_ADC_DEC_GCOR_16B_PTR, Touch_ADC_gcor[config - 1u].gcor);
 1528              		.loc 1 1576 0
 1529 0022 2279     		ldrb	r2, [r4, #4]	@ zero_extendqisi2
 1530 0024 084B     		ldr	r3, .L106+8
1579:Generated_Source\PSoC5/Touch_ADC.c ****         {
 1531              		.loc 1 1579 0
 1532 0026 012D     		cmp	r5, #1
1576:Generated_Source\PSoC5/Touch_ADC.c ****         CY_SET_REG16(Touch_ADC_DEC_GCOR_16B_PTR, Touch_ADC_gcor[config - 1u].gcor);
 1533              		.loc 1 1576 0
 1534 0028 1A70     		strb	r2, [r3]
1577:Generated_Source\PSoC5/Touch_ADC.c **** 
 1535              		.loc 1 1577 0
 1536 002a 6288     		ldrh	r2, [r4, #2]
 1537 002c 23F8022C 		strh	r2, [r3, #-2]	@ movhi
1579:Generated_Source\PSoC5/Touch_ADC.c ****         {
 1538              		.loc 1 1579 0
 1539 0030 05D1     		bne	.L101
1582:Generated_Source\PSoC5/Touch_ADC.c **** 
 1540              		.loc 1 1582 0
 1541 0032 FFF7FEFF 		bl	Touch_ADC_Start
 1542              	.LVL113:
1593:Generated_Source\PSoC5/Touch_ADC.c **** 
 1543              		.loc 1 1593 0
 1544 0036 BDE83840 		pop	{r3, r4, r5, lr}
 1545              		.cfi_remember_state
 1546              		.cfi_restore 14
 1547              		.cfi_restore 5
 1548              		.cfi_restore 4
 1549              		.cfi_restore 3
 1550              		.cfi_def_cfa_offset 0
1585:Generated_Source\PSoC5/Touch_ADC.c ****         }
 1551              		.loc 1 1585 0
 1552 003a FFF7FEBF 		b	Touch_ADC_StartConvert
 1553              	.LVL114:
 1554              	.L101:
 1555              		.cfi_restore_state
ARM GAS  C:\Users\emman\AppData\Local\Temp\ccNpJWxM.s 			page 64


 1556 003e 38BD     		pop	{r3, r4, r5, pc}
 1557              	.L107:
 1558              		.align	2
 1559              	.L106:
 1560 0040 00000000 		.word	.LANCHOR1
 1561 0044 00000000 		.word	.LANCHOR0
 1562 0048 0E4E0040 		.word	1073761806
 1563              		.cfi_endproc
 1564              	.LFE20:
 1565              		.size	Touch_ADC_SelectConfiguration, .-Touch_ADC_SelectConfiguration
 1566              		.section	.text.Touch_ADC_Read8,"ax",%progbits
 1567              		.align	1
 1568              		.global	Touch_ADC_Read8
 1569              		.thumb
 1570              		.thumb_func
 1571              		.type	Touch_ADC_Read8, %function
 1572              	Touch_ADC_Read8:
 1573              	.LFB23:
1741:Generated_Source\PSoC5/Touch_ADC.c **** }
1742:Generated_Source\PSoC5/Touch_ADC.c **** 
1743:Generated_Source\PSoC5/Touch_ADC.c **** 
1744:Generated_Source\PSoC5/Touch_ADC.c **** /*******************************************************************************
1745:Generated_Source\PSoC5/Touch_ADC.c **** * Function Name: Touch_ADC_Read8
1746:Generated_Source\PSoC5/Touch_ADC.c **** ********************************************************************************
1747:Generated_Source\PSoC5/Touch_ADC.c **** *
1748:Generated_Source\PSoC5/Touch_ADC.c **** * Summary:
1749:Generated_Source\PSoC5/Touch_ADC.c **** *  This function simplifies getting results from the ADC when only a
1750:Generated_Source\PSoC5/Touch_ADC.c **** *  single reading is required. When called, it will start ADC
1751:Generated_Source\PSoC5/Touch_ADC.c **** *  conversions, wait for the conversion to be complete, stop ADC
1752:Generated_Source\PSoC5/Touch_ADC.c **** *  conversion and return the result. This is a blocking function and will
1753:Generated_Source\PSoC5/Touch_ADC.c **** *  not return until the result is ready.
1754:Generated_Source\PSoC5/Touch_ADC.c **** *
1755:Generated_Source\PSoC5/Touch_ADC.c **** * Parameters:
1756:Generated_Source\PSoC5/Touch_ADC.c **** *  None
1757:Generated_Source\PSoC5/Touch_ADC.c **** *
1758:Generated_Source\PSoC5/Touch_ADC.c **** * Return:
1759:Generated_Source\PSoC5/Touch_ADC.c **** *  int8:  ADC result.
1760:Generated_Source\PSoC5/Touch_ADC.c **** *
1761:Generated_Source\PSoC5/Touch_ADC.c **** *******************************************************************************/
1762:Generated_Source\PSoC5/Touch_ADC.c **** int8 Touch_ADC_Read8(void) 
1763:Generated_Source\PSoC5/Touch_ADC.c **** {
 1574              		.loc 1 1763 0
 1575              		.cfi_startproc
 1576              		@ args = 0, pretend = 0, frame = 0
 1577              		@ frame_needed = 0, uses_anonymous_args = 0
 1578 0000 08B5     		push	{r3, lr}
 1579              		.cfi_def_cfa_offset 8
 1580              		.cfi_offset 3, -8
 1581              		.cfi_offset 14, -4
1764:Generated_Source\PSoC5/Touch_ADC.c ****     int8 result;
1765:Generated_Source\PSoC5/Touch_ADC.c **** 
1766:Generated_Source\PSoC5/Touch_ADC.c ****     /* Clear pending conversion done status */
1767:Generated_Source\PSoC5/Touch_ADC.c ****     Touch_ADC_DEC_SR_REG |= Touch_ADC_DEC_INTR_CLEAR;
 1582              		.loc 1 1767 0
 1583 0002 074A     		ldr	r2, .L109
 1584 0004 1378     		ldrb	r3, [r2]	@ zero_extendqisi2
 1585 0006 43F00403 		orr	r3, r3, #4
ARM GAS  C:\Users\emman\AppData\Local\Temp\ccNpJWxM.s 			page 65


 1586 000a 1370     		strb	r3, [r2]
1768:Generated_Source\PSoC5/Touch_ADC.c ****     Touch_ADC_StartConvert();
 1587              		.loc 1 1768 0
 1588 000c FFF7FEFF 		bl	Touch_ADC_StartConvert
 1589              	.LVL115:
1769:Generated_Source\PSoC5/Touch_ADC.c ****     (void)Touch_ADC_IsEndConversion(Touch_ADC_WAIT_FOR_RESULT);
 1590              		.loc 1 1769 0
 1591 0010 0020     		movs	r0, #0
 1592 0012 FFF7FEFF 		bl	Touch_ADC_IsEndConversion
 1593              	.LVL116:
1770:Generated_Source\PSoC5/Touch_ADC.c ****      result = Touch_ADC_GetResult8();
 1594              		.loc 1 1770 0
 1595 0016 FFF7FEFF 		bl	Touch_ADC_GetResult8
 1596              	.LVL117:
1771:Generated_Source\PSoC5/Touch_ADC.c ****     Touch_ADC_StopConvert();
 1597              		.loc 1 1771 0
 1598 001a FFF7FEFF 		bl	Touch_ADC_StopConvert
 1599              	.LVL118:
1772:Generated_Source\PSoC5/Touch_ADC.c ****     
1773:Generated_Source\PSoC5/Touch_ADC.c ****      return(result);
1774:Generated_Source\PSoC5/Touch_ADC.c **** }
 1600              		.loc 1 1774 0
 1601 001e 08BD     		pop	{r3, pc}
 1602              	.L110:
 1603              		.align	2
 1604              	.L109:
 1605 0020 014E0040 		.word	1073761793
 1606              		.cfi_endproc
 1607              	.LFE23:
 1608              		.size	Touch_ADC_Read8, .-Touch_ADC_Read8
 1609              		.section	.text.Touch_ADC_Read16,"ax",%progbits
 1610              		.align	1
 1611              		.global	Touch_ADC_Read16
 1612              		.thumb
 1613              		.thumb_func
 1614              		.type	Touch_ADC_Read16, %function
 1615              	Touch_ADC_Read16:
 1616              	.LFB24:
1775:Generated_Source\PSoC5/Touch_ADC.c **** 
1776:Generated_Source\PSoC5/Touch_ADC.c **** 
1777:Generated_Source\PSoC5/Touch_ADC.c **** /*******************************************************************************
1778:Generated_Source\PSoC5/Touch_ADC.c **** * Function Name: Touch_ADC_Read16
1779:Generated_Source\PSoC5/Touch_ADC.c **** ********************************************************************************
1780:Generated_Source\PSoC5/Touch_ADC.c **** *
1781:Generated_Source\PSoC5/Touch_ADC.c **** * Summary:
1782:Generated_Source\PSoC5/Touch_ADC.c **** *  This function simplifies getting results from the ADC when only a
1783:Generated_Source\PSoC5/Touch_ADC.c **** *  single reading is required. When called, it will start ADC
1784:Generated_Source\PSoC5/Touch_ADC.c **** *  conversions, wait for the conversion to be complete, stop ADC
1785:Generated_Source\PSoC5/Touch_ADC.c **** *  conversion and return the result. This is a blocking function and will
1786:Generated_Source\PSoC5/Touch_ADC.c **** *  not return until the result is ready.
1787:Generated_Source\PSoC5/Touch_ADC.c **** *
1788:Generated_Source\PSoC5/Touch_ADC.c **** * Parameters:
1789:Generated_Source\PSoC5/Touch_ADC.c **** *   void
1790:Generated_Source\PSoC5/Touch_ADC.c **** *
1791:Generated_Source\PSoC5/Touch_ADC.c **** * Return:
1792:Generated_Source\PSoC5/Touch_ADC.c **** *  int16:  ADC result.
1793:Generated_Source\PSoC5/Touch_ADC.c **** *
ARM GAS  C:\Users\emman\AppData\Local\Temp\ccNpJWxM.s 			page 66


1794:Generated_Source\PSoC5/Touch_ADC.c **** *******************************************************************************/
1795:Generated_Source\PSoC5/Touch_ADC.c **** int16 Touch_ADC_Read16(void) 
1796:Generated_Source\PSoC5/Touch_ADC.c **** {
 1617              		.loc 1 1796 0
 1618              		.cfi_startproc
 1619              		@ args = 0, pretend = 0, frame = 0
 1620              		@ frame_needed = 0, uses_anonymous_args = 0
 1621 0000 08B5     		push	{r3, lr}
 1622              		.cfi_def_cfa_offset 8
 1623              		.cfi_offset 3, -8
 1624              		.cfi_offset 14, -4
1797:Generated_Source\PSoC5/Touch_ADC.c ****     int16 result;
1798:Generated_Source\PSoC5/Touch_ADC.c **** 
1799:Generated_Source\PSoC5/Touch_ADC.c ****     /* Clear pending conversion done status */
1800:Generated_Source\PSoC5/Touch_ADC.c ****     Touch_ADC_DEC_SR_REG |= Touch_ADC_DEC_INTR_CLEAR;
 1625              		.loc 1 1800 0
 1626 0002 074A     		ldr	r2, .L112
 1627 0004 1378     		ldrb	r3, [r2]	@ zero_extendqisi2
 1628 0006 43F00403 		orr	r3, r3, #4
 1629 000a 1370     		strb	r3, [r2]
1801:Generated_Source\PSoC5/Touch_ADC.c ****     Touch_ADC_StartConvert();
 1630              		.loc 1 1801 0
 1631 000c FFF7FEFF 		bl	Touch_ADC_StartConvert
 1632              	.LVL119:
1802:Generated_Source\PSoC5/Touch_ADC.c ****     (void)Touch_ADC_IsEndConversion(Touch_ADC_WAIT_FOR_RESULT);
 1633              		.loc 1 1802 0
 1634 0010 0020     		movs	r0, #0
 1635 0012 FFF7FEFF 		bl	Touch_ADC_IsEndConversion
 1636              	.LVL120:
1803:Generated_Source\PSoC5/Touch_ADC.c ****      result = Touch_ADC_GetResult16();
 1637              		.loc 1 1803 0
 1638 0016 FFF7FEFF 		bl	Touch_ADC_GetResult16
 1639              	.LVL121:
1804:Generated_Source\PSoC5/Touch_ADC.c ****     Touch_ADC_StopConvert();
 1640              		.loc 1 1804 0
 1641 001a FFF7FEFF 		bl	Touch_ADC_StopConvert
 1642              	.LVL122:
1805:Generated_Source\PSoC5/Touch_ADC.c ****     
1806:Generated_Source\PSoC5/Touch_ADC.c ****      return(result);
1807:Generated_Source\PSoC5/Touch_ADC.c **** }
 1643              		.loc 1 1807 0
 1644 001e 08BD     		pop	{r3, pc}
 1645              	.L113:
 1646              		.align	2
 1647              	.L112:
 1648 0020 014E0040 		.word	1073761793
 1649              		.cfi_endproc
 1650              	.LFE24:
 1651              		.size	Touch_ADC_Read16, .-Touch_ADC_Read16
 1652              		.section	.text.Touch_ADC_Read32,"ax",%progbits
 1653              		.align	1
 1654              		.global	Touch_ADC_Read32
 1655              		.thumb
 1656              		.thumb_func
 1657              		.type	Touch_ADC_Read32, %function
 1658              	Touch_ADC_Read32:
 1659              	.LFB25:
ARM GAS  C:\Users\emman\AppData\Local\Temp\ccNpJWxM.s 			page 67


1808:Generated_Source\PSoC5/Touch_ADC.c **** 
1809:Generated_Source\PSoC5/Touch_ADC.c **** 
1810:Generated_Source\PSoC5/Touch_ADC.c **** /*******************************************************************************
1811:Generated_Source\PSoC5/Touch_ADC.c **** * Function Name: Touch_ADC_Read32
1812:Generated_Source\PSoC5/Touch_ADC.c **** ********************************************************************************
1813:Generated_Source\PSoC5/Touch_ADC.c **** *
1814:Generated_Source\PSoC5/Touch_ADC.c **** * Summary:
1815:Generated_Source\PSoC5/Touch_ADC.c **** *  This function simplifies getting results from the ADC when only a
1816:Generated_Source\PSoC5/Touch_ADC.c **** *  single reading is required. When called, it will start ADC
1817:Generated_Source\PSoC5/Touch_ADC.c **** *  conversions, wait for the conversion to be complete, stop ADC
1818:Generated_Source\PSoC5/Touch_ADC.c **** *  conversion and return the result. This is a blocking function and will
1819:Generated_Source\PSoC5/Touch_ADC.c **** *  not return until the result is ready.
1820:Generated_Source\PSoC5/Touch_ADC.c **** *
1821:Generated_Source\PSoC5/Touch_ADC.c **** * Parameters:
1822:Generated_Source\PSoC5/Touch_ADC.c **** *  None
1823:Generated_Source\PSoC5/Touch_ADC.c **** *
1824:Generated_Source\PSoC5/Touch_ADC.c **** * Return:
1825:Generated_Source\PSoC5/Touch_ADC.c **** *  int32: ADC result.
1826:Generated_Source\PSoC5/Touch_ADC.c **** *
1827:Generated_Source\PSoC5/Touch_ADC.c **** *******************************************************************************/
1828:Generated_Source\PSoC5/Touch_ADC.c **** int32 Touch_ADC_Read32(void) 
1829:Generated_Source\PSoC5/Touch_ADC.c **** {
 1660              		.loc 1 1829 0
 1661              		.cfi_startproc
 1662              		@ args = 0, pretend = 0, frame = 0
 1663              		@ frame_needed = 0, uses_anonymous_args = 0
 1664 0000 08B5     		push	{r3, lr}
 1665              		.cfi_def_cfa_offset 8
 1666              		.cfi_offset 3, -8
 1667              		.cfi_offset 14, -4
1830:Generated_Source\PSoC5/Touch_ADC.c ****     int32 result;
1831:Generated_Source\PSoC5/Touch_ADC.c ****     
1832:Generated_Source\PSoC5/Touch_ADC.c ****     /* Clear pending conversion done status */
1833:Generated_Source\PSoC5/Touch_ADC.c ****     Touch_ADC_DEC_SR_REG |= Touch_ADC_DEC_INTR_CLEAR;
 1668              		.loc 1 1833 0
 1669 0002 074A     		ldr	r2, .L115
 1670 0004 1378     		ldrb	r3, [r2]	@ zero_extendqisi2
 1671 0006 43F00403 		orr	r3, r3, #4
 1672 000a 1370     		strb	r3, [r2]
1834:Generated_Source\PSoC5/Touch_ADC.c ****     Touch_ADC_StartConvert();
 1673              		.loc 1 1834 0
 1674 000c FFF7FEFF 		bl	Touch_ADC_StartConvert
 1675              	.LVL123:
1835:Generated_Source\PSoC5/Touch_ADC.c ****     (void)Touch_ADC_IsEndConversion(Touch_ADC_WAIT_FOR_RESULT);
 1676              		.loc 1 1835 0
 1677 0010 0020     		movs	r0, #0
 1678 0012 FFF7FEFF 		bl	Touch_ADC_IsEndConversion
 1679              	.LVL124:
1836:Generated_Source\PSoC5/Touch_ADC.c ****      result = Touch_ADC_GetResult32();
 1680              		.loc 1 1836 0
 1681 0016 FFF7FEFF 		bl	Touch_ADC_GetResult32
 1682              	.LVL125:
1837:Generated_Source\PSoC5/Touch_ADC.c ****     Touch_ADC_StopConvert();
 1683              		.loc 1 1837 0
 1684 001a FFF7FEFF 		bl	Touch_ADC_StopConvert
 1685              	.LVL126:
1838:Generated_Source\PSoC5/Touch_ADC.c ****     
ARM GAS  C:\Users\emman\AppData\Local\Temp\ccNpJWxM.s 			page 68


1839:Generated_Source\PSoC5/Touch_ADC.c ****      return(result);
1840:Generated_Source\PSoC5/Touch_ADC.c **** }
 1686              		.loc 1 1840 0
 1687 001e 08BD     		pop	{r3, pc}
 1688              	.L116:
 1689              		.align	2
 1690              	.L115:
 1691 0020 014E0040 		.word	1073761793
 1692              		.cfi_endproc
 1693              	.LFE25:
 1694              		.size	Touch_ADC_Read32, .-Touch_ADC_Read32
 1695              		.comm	Touch_ADC_CountsPerVolt,4,4
 1696              		.comm	Touch_ADC_Offset,4,4
 1697              		.global	Touch_ADC_Config
 1698              		.global	Touch_ADC_started
 1699              		.global	Touch_ADC_initVar
 1700              		.global	Touch_ADC_stopConversion
 1701              		.global	Touch_ADC_convDone
 1702              		.data
 1703              		.set	.LANCHOR0,. + 0
 1704              		.type	Touch_ADC_Config, %object
 1705              		.size	Touch_ADC_Config, 1
 1706              	Touch_ADC_Config:
 1707 0000 01       		.byte	1
 1708              		.bss
 1709              		.align	1
 1710              		.set	.LANCHOR1,. + 0
 1711              		.type	Touch_ADC_convDone, %object
 1712              		.size	Touch_ADC_convDone, 1
 1713              	Touch_ADC_convDone:
 1714 0000 00       		.space	1
 1715 0001 00       		.space	1
 1716              		.type	Touch_ADC_gcor, %object
 1717              		.size	Touch_ADC_gcor, 4
 1718              	Touch_ADC_gcor:
 1719 0002 00000000 		.space	4
 1720              		.type	Touch_ADC_stopConversion, %object
 1721              		.size	Touch_ADC_stopConversion, 1
 1722              	Touch_ADC_stopConversion:
 1723 0006 00       		.space	1
 1724              		.type	Touch_ADC_initVar, %object
 1725              		.size	Touch_ADC_initVar, 1
 1726              	Touch_ADC_initVar:
 1727 0007 00       		.space	1
 1728              		.type	Touch_ADC_started, %object
 1729              		.size	Touch_ADC_started, 1
 1730              	Touch_ADC_started:
 1731 0008 00       		.space	1
 1732              		.text
 1733              	.Letext0:
 1734              		.file 2 "Generated_Source\\PSoC5\\cytypes.h"
 1735              		.file 3 "Generated_Source\\PSoC5\\Touch_ADC.h"
 1736              		.file 4 "Generated_Source\\PSoC5\\CyLib.h"
 1737              		.file 5 "Generated_Source\\PSoC5\\Touch_ADC_AMux.h"
 1738              		.file 6 "Generated_Source\\PSoC5\\Touch_ADC_Ext_CP_Clk.h"
 1739              		.file 7 "Generated_Source\\PSoC5\\Touch_ADC_theACLK.h"
 1740              		.section	.debug_info,"",%progbits
ARM GAS  C:\Users\emman\AppData\Local\Temp\ccNpJWxM.s 			page 69


 1741              	.Ldebug_info0:
 1742 0000 4C0A0000 		.4byte	0xa4c
 1743 0004 0400     		.2byte	0x4
 1744 0006 00000000 		.4byte	.Ldebug_abbrev0
 1745 000a 04       		.byte	0x4
 1746 000b 01       		.uleb128 0x1
 1747 000c EE000000 		.4byte	.LASF100
 1748 0010 0C       		.byte	0xc
 1749 0011 86000000 		.4byte	.LASF101
 1750 0015 81020000 		.4byte	.LASF102
 1751 0019 18000000 		.4byte	.Ldebug_ranges0+0x18
 1752 001d 00000000 		.4byte	0
 1753 0021 00000000 		.4byte	.Ldebug_line0
 1754 0025 02       		.uleb128 0x2
 1755 0026 04       		.byte	0x4
 1756 0027 04       		.byte	0x4
 1757 0028 53040000 		.4byte	.LASF0
 1758 002c 03       		.uleb128 0x3
 1759 002d 04       		.byte	0x4
 1760 002e 05       		.byte	0x5
 1761 002f 696E7400 		.ascii	"int\000"
 1762 0033 02       		.uleb128 0x2
 1763 0034 01       		.byte	0x1
 1764 0035 06       		.byte	0x6
 1765 0036 E2000000 		.4byte	.LASF1
 1766 003a 02       		.uleb128 0x2
 1767 003b 01       		.byte	0x1
 1768 003c 08       		.byte	0x8
 1769 003d A4040000 		.4byte	.LASF2
 1770 0041 02       		.uleb128 0x2
 1771 0042 02       		.byte	0x2
 1772 0043 05       		.byte	0x5
 1773 0044 DC040000 		.4byte	.LASF3
 1774 0048 02       		.uleb128 0x2
 1775 0049 02       		.byte	0x2
 1776 004a 07       		.byte	0x7
 1777 004b 6D030000 		.4byte	.LASF4
 1778 004f 02       		.uleb128 0x2
 1779 0050 04       		.byte	0x4
 1780 0051 05       		.byte	0x5
 1781 0052 92010000 		.4byte	.LASF5
 1782 0056 02       		.uleb128 0x2
 1783 0057 04       		.byte	0x4
 1784 0058 07       		.byte	0x7
 1785 0059 1C030000 		.4byte	.LASF6
 1786 005d 02       		.uleb128 0x2
 1787 005e 08       		.byte	0x8
 1788 005f 05       		.byte	0x5
 1789 0060 D4000000 		.4byte	.LASF7
 1790 0064 02       		.uleb128 0x2
 1791 0065 08       		.byte	0x8
 1792 0066 07       		.byte	0x7
 1793 0067 6F000000 		.4byte	.LASF8
 1794 006b 02       		.uleb128 0x2
 1795 006c 04       		.byte	0x4
 1796 006d 07       		.byte	0x7
 1797 006e F1020000 		.4byte	.LASF9
ARM GAS  C:\Users\emman\AppData\Local\Temp\ccNpJWxM.s 			page 70


 1798 0072 04       		.uleb128 0x4
 1799 0073 BB010000 		.4byte	.LASF10
 1800 0077 02       		.byte	0x2
 1801 0078 E401     		.2byte	0x1e4
 1802 007a 3A000000 		.4byte	0x3a
 1803 007e 04       		.uleb128 0x4
 1804 007f 11000000 		.4byte	.LASF11
 1805 0083 02       		.byte	0x2
 1806 0084 E501     		.2byte	0x1e5
 1807 0086 48000000 		.4byte	0x48
 1808 008a 04       		.uleb128 0x4
 1809 008b 33020000 		.4byte	.LASF12
 1810 008f 02       		.byte	0x2
 1811 0090 E601     		.2byte	0x1e6
 1812 0092 56000000 		.4byte	0x56
 1813 0096 04       		.uleb128 0x4
 1814 0097 AD030000 		.4byte	.LASF13
 1815 009b 02       		.byte	0x2
 1816 009c E701     		.2byte	0x1e7
 1817 009e 33000000 		.4byte	0x33
 1818 00a2 04       		.uleb128 0x4
 1819 00a3 66060000 		.4byte	.LASF14
 1820 00a7 02       		.byte	0x2
 1821 00a8 E801     		.2byte	0x1e8
 1822 00aa 41000000 		.4byte	0x41
 1823 00ae 04       		.uleb128 0x4
 1824 00af 7C010000 		.4byte	.LASF15
 1825 00b3 02       		.byte	0x2
 1826 00b4 E901     		.2byte	0x1e9
 1827 00b6 4F000000 		.4byte	0x4f
 1828 00ba 04       		.uleb128 0x4
 1829 00bb FD030000 		.4byte	.LASF16
 1830 00bf 02       		.byte	0x2
 1831 00c0 EA01     		.2byte	0x1ea
 1832 00c2 25000000 		.4byte	0x25
 1833 00c6 02       		.uleb128 0x2
 1834 00c7 08       		.byte	0x8
 1835 00c8 04       		.byte	0x4
 1836 00c9 03020000 		.4byte	.LASF17
 1837 00cd 02       		.uleb128 0x2
 1838 00ce 01       		.byte	0x1
 1839 00cf 08       		.byte	0x8
 1840 00d0 68050000 		.4byte	.LASF18
 1841 00d4 04       		.uleb128 0x4
 1842 00d5 6F040000 		.4byte	.LASF19
 1843 00d9 02       		.byte	0x2
 1844 00da 8E02     		.2byte	0x28e
 1845 00dc E0000000 		.4byte	0xe0
 1846 00e0 05       		.uleb128 0x5
 1847 00e1 72000000 		.4byte	0x72
 1848 00e5 04       		.uleb128 0x4
 1849 00e6 B5010000 		.4byte	.LASF20
 1850 00ea 02       		.byte	0x2
 1851 00eb 8F02     		.2byte	0x28f
 1852 00ed F1000000 		.4byte	0xf1
 1853 00f1 05       		.uleb128 0x5
 1854 00f2 7E000000 		.4byte	0x7e
ARM GAS  C:\Users\emman\AppData\Local\Temp\ccNpJWxM.s 			page 71


 1855 00f6 04       		.uleb128 0x4
 1856 00f7 F7030000 		.4byte	.LASF21
 1857 00fb 02       		.byte	0x2
 1858 00fc 9002     		.2byte	0x290
 1859 00fe 02010000 		.4byte	0x102
 1860 0102 05       		.uleb128 0x5
 1861 0103 8A000000 		.4byte	0x8a
 1862 0107 02       		.uleb128 0x2
 1863 0108 08       		.byte	0x8
 1864 0109 04       		.byte	0x4
 1865 010a 27040000 		.4byte	.LASF22
 1866 010e 02       		.uleb128 0x2
 1867 010f 04       		.byte	0x4
 1868 0110 07       		.byte	0x7
 1869 0111 1E040000 		.4byte	.LASF23
 1870 0115 06       		.uleb128 0x6
 1871 0116 04       		.byte	0x4
 1872 0117 03       		.byte	0x3
 1873 0118 2F       		.byte	0x2f
 1874 0119 36010000 		.4byte	0x136
 1875 011d 07       		.uleb128 0x7
 1876 011e 47000000 		.4byte	.LASF24
 1877 0122 03       		.byte	0x3
 1878 0123 31       		.byte	0x31
 1879 0124 7E000000 		.4byte	0x7e
 1880 0128 00       		.byte	0
 1881 0129 07       		.uleb128 0x7
 1882 012a 7B050000 		.4byte	.LASF25
 1883 012e 03       		.byte	0x3
 1884 012f 32       		.byte	0x32
 1885 0130 72000000 		.4byte	0x72
 1886 0134 02       		.byte	0x2
 1887 0135 00       		.byte	0
 1888 0136 08       		.uleb128 0x8
 1889 0137 D4030000 		.4byte	.LASF26
 1890 013b 03       		.byte	0x3
 1891 013c 33       		.byte	0x33
 1892 013d 15010000 		.4byte	0x115
 1893 0141 09       		.uleb128 0x9
 1894 0142 B2040000 		.4byte	.LASF27
 1895 0146 01       		.byte	0x1
 1896 0147 DA04     		.2byte	0x4da
 1897 0149 01       		.byte	0x1
 1898 014a 5B010000 		.4byte	0x15b
 1899 014e 0A       		.uleb128 0xa
 1900 014f 74050000 		.4byte	.LASF29
 1901 0153 01       		.byte	0x1
 1902 0154 DA04     		.2byte	0x4da
 1903 0156 72000000 		.4byte	0x72
 1904 015a 00       		.byte	0
 1905 015b 09       		.uleb128 0x9
 1906 015c 80050000 		.4byte	.LASF28
 1907 0160 01       		.byte	0x1
 1908 0161 BC06     		.2byte	0x6bc
 1909 0163 01       		.byte	0x1
 1910 0164 81010000 		.4byte	0x181
 1911 0168 0A       		.uleb128 0xa
ARM GAS  C:\Users\emman\AppData\Local\Temp\ccNpJWxM.s 			page 72


 1912 0169 18000000 		.4byte	.LASF30
 1913 016d 01       		.byte	0x1
 1914 016e BC06     		.2byte	0x6bc
 1915 0170 72000000 		.4byte	0x72
 1916 0174 0B       		.uleb128 0xb
 1917 0175 43060000 		.4byte	.LASF36
 1918 0179 01       		.byte	0x1
 1919 017a BE06     		.2byte	0x6be
 1920 017c 72000000 		.4byte	0x72
 1921 0180 00       		.byte	0
 1922 0181 09       		.uleb128 0x9
 1923 0182 A9000000 		.4byte	.LASF31
 1924 0186 01       		.byte	0x1
 1925 0187 5106     		.2byte	0x651
 1926 0189 01       		.byte	0x1
 1927 018a FB010000 		.4byte	0x1fb
 1928 018e 0A       		.uleb128 0xa
 1929 018f 3C000000 		.4byte	.LASF32
 1930 0193 01       		.byte	0x1
 1931 0194 5106     		.2byte	0x651
 1932 0196 72000000 		.4byte	0x72
 1933 019a 0A       		.uleb128 0xa
 1934 019b 8C040000 		.4byte	.LASF33
 1935 019f 01       		.byte	0x1
 1936 01a0 5106     		.2byte	0x651
 1937 01a2 7E000000 		.4byte	0x7e
 1938 01a6 0A       		.uleb128 0xa
 1939 01a7 C4000000 		.4byte	.LASF34
 1940 01ab 01       		.byte	0x1
 1941 01ac 5106     		.2byte	0x651
 1942 01ae 7E000000 		.4byte	0x7e
 1943 01b2 0A       		.uleb128 0xa
 1944 01b3 3E050000 		.4byte	.LASF35
 1945 01b7 01       		.byte	0x1
 1946 01b8 5206     		.2byte	0x652
 1947 01ba 72000000 		.4byte	0x72
 1948 01be 0A       		.uleb128 0xa
 1949 01bf 74050000 		.4byte	.LASF29
 1950 01c3 01       		.byte	0x1
 1951 01c4 5206     		.2byte	0x652
 1952 01c6 72000000 		.4byte	0x72
 1953 01ca 0B       		.uleb128 0xb
 1954 01cb F1030000 		.4byte	.LASF37
 1955 01cf 01       		.byte	0x1
 1956 01d0 5406     		.2byte	0x654
 1957 01d2 96000000 		.4byte	0x96
 1958 01d6 0B       		.uleb128 0xb
 1959 01d7 99040000 		.4byte	.LASF38
 1960 01db 01       		.byte	0x1
 1961 01dc 5506     		.2byte	0x655
 1962 01de AE000000 		.4byte	0xae
 1963 01e2 0B       		.uleb128 0xb
 1964 01e3 B2030000 		.4byte	.LASF39
 1965 01e7 01       		.byte	0x1
 1966 01e8 5606     		.2byte	0x656
 1967 01ea 7E000000 		.4byte	0x7e
 1968 01ee 0B       		.uleb128 0xb
ARM GAS  C:\Users\emman\AppData\Local\Temp\ccNpJWxM.s 			page 73


 1969 01ef F7040000 		.4byte	.LASF40
 1970 01f3 01       		.byte	0x1
 1971 01f4 5706     		.2byte	0x657
 1972 01f6 8A000000 		.4byte	0x8a
 1973 01fa 00       		.byte	0
 1974 01fb 0C       		.uleb128 0xc
 1975 01fc 41010000 		.4byte	0x141
 1976 0200 00000000 		.4byte	.LFB26
 1977 0204 00010000 		.4byte	.LFE26-.LFB26
 1978 0208 01       		.uleb128 0x1
 1979 0209 9C       		.byte	0x9c
 1980 020a CE020000 		.4byte	0x2ce
 1981 020e 0D       		.uleb128 0xd
 1982 020f 4E010000 		.4byte	0x14e
 1983 0213 06       		.uleb128 0x6
 1984 0214 FA       		.byte	0xfa
 1985 0215 4E010000 		.4byte	0x14e
 1986 0219 9F       		.byte	0x9f
 1987 021a 0E       		.uleb128 0xe
 1988 021b 5B010000 		.4byte	0x15b
 1989 021f 6A000000 		.4byte	.LBB4
 1990 0223 3C000000 		.4byte	.LBE4-.LBB4
 1991 0227 01       		.byte	0x1
 1992 0228 F804     		.2byte	0x4f8
 1993 022a 77020000 		.4byte	0x277
 1994 022e 0F       		.uleb128 0xf
 1995 022f 68010000 		.4byte	0x168
 1996 0233 00000000 		.4byte	.LLST0
 1997 0237 10       		.uleb128 0x10
 1998 0238 6A000000 		.4byte	.LBB5
 1999 023c 3C000000 		.4byte	.LBE5-.LBB5
 2000 0240 11       		.uleb128 0x11
 2001 0241 74010000 		.4byte	0x174
 2002 0245 15000000 		.4byte	.LLST1
 2003 0249 12       		.uleb128 0x12
 2004 024a 6E000000 		.4byte	.LVL2
 2005 024e E1090000 		.4byte	0x9e1
 2006 0252 13       		.uleb128 0x13
 2007 0253 90000000 		.4byte	.LVL4
 2008 0257 EC090000 		.4byte	0x9ec
 2009 025b 65020000 		.4byte	0x265
 2010 025f 14       		.uleb128 0x14
 2011 0260 01       		.uleb128 0x1
 2012 0261 50       		.byte	0x50
 2013 0262 01       		.uleb128 0x1
 2014 0263 33       		.byte	0x33
 2015 0264 00       		.byte	0
 2016 0265 15       		.uleb128 0x15
 2017 0266 A6000000 		.4byte	.LVL5
 2018 026a F7090000 		.4byte	0x9f7
 2019 026e 14       		.uleb128 0x14
 2020 026f 01       		.uleb128 0x1
 2021 0270 50       		.byte	0x50
 2022 0271 02       		.uleb128 0x2
 2023 0272 7A       		.byte	0x7a
 2024 0273 00       		.sleb128 0
 2025 0274 00       		.byte	0
ARM GAS  C:\Users\emman\AppData\Local\Temp\ccNpJWxM.s 			page 74


 2026 0275 00       		.byte	0
 2027 0276 00       		.byte	0
 2028 0277 13       		.uleb128 0x13
 2029 0278 C0000000 		.4byte	.LVL6
 2030 027c 020A0000 		.4byte	0xa02
 2031 0280 8B020000 		.4byte	0x28b
 2032 0284 14       		.uleb128 0x14
 2033 0285 01       		.uleb128 0x1
 2034 0286 50       		.byte	0x50
 2035 0287 02       		.uleb128 0x2
 2036 0288 74       		.byte	0x74
 2037 0289 00       		.sleb128 0
 2038 028a 00       		.byte	0
 2039 028b 13       		.uleb128 0x13
 2040 028c D0000000 		.4byte	.LVL7
 2041 0290 0D0A0000 		.4byte	0xa0d
 2042 0294 A5020000 		.4byte	0x2a5
 2043 0298 14       		.uleb128 0x14
 2044 0299 01       		.uleb128 0x1
 2045 029a 50       		.byte	0x50
 2046 029b 02       		.uleb128 0x2
 2047 029c 78       		.byte	0x78
 2048 029d 00       		.sleb128 0
 2049 029e 14       		.uleb128 0x14
 2050 029f 01       		.uleb128 0x1
 2051 02a0 51       		.byte	0x51
 2052 02a1 02       		.uleb128 0x2
 2053 02a2 75       		.byte	0x75
 2054 02a3 00       		.sleb128 0
 2055 02a4 00       		.byte	0
 2056 02a5 13       		.uleb128 0x13
 2057 02a6 D8000000 		.4byte	.LVL8
 2058 02aa 180A0000 		.4byte	0xa18
 2059 02ae BE020000 		.4byte	0x2be
 2060 02b2 14       		.uleb128 0x14
 2061 02b3 01       		.uleb128 0x1
 2062 02b4 50       		.byte	0x50
 2063 02b5 01       		.uleb128 0x1
 2064 02b6 3A       		.byte	0x3a
 2065 02b7 14       		.uleb128 0x14
 2066 02b8 01       		.uleb128 0x1
 2067 02b9 51       		.byte	0x51
 2068 02ba 02       		.uleb128 0x2
 2069 02bb 75       		.byte	0x75
 2070 02bc 00       		.sleb128 0
 2071 02bd 00       		.byte	0
 2072 02be 16       		.uleb128 0x16
 2073 02bf E4000000 		.4byte	.LVL9
 2074 02c3 230A0000 		.4byte	0xa23
 2075 02c7 14       		.uleb128 0x14
 2076 02c8 01       		.uleb128 0x1
 2077 02c9 50       		.byte	0x50
 2078 02ca 01       		.uleb128 0x1
 2079 02cb 4D       		.byte	0x4d
 2080 02cc 00       		.byte	0
 2081 02cd 00       		.byte	0
 2082 02ce 17       		.uleb128 0x17
ARM GAS  C:\Users\emman\AppData\Local\Temp\ccNpJWxM.s 			page 75


 2083 02cf AE050000 		.4byte	.LASF41
 2084 02d3 01       		.byte	0x1
 2085 02d4 5B       		.byte	0x5b
 2086 02d5 00000000 		.4byte	.LFB0
 2087 02d9 B0000000 		.4byte	.LFE0-.LFB0
 2088 02dd 01       		.uleb128 0x1
 2089 02de 9C       		.byte	0x9c
 2090 02df BB030000 		.4byte	0x3bb
 2091 02e3 18       		.uleb128 0x18
 2092 02e4 81010000 		.4byte	0x181
 2093 02e8 5E000000 		.4byte	.LBB10
 2094 02ec 0A000000 		.4byte	.LBE10-.LBB10
 2095 02f0 01       		.byte	0x1
 2096 02f1 85       		.byte	0x85
 2097 02f2 52030000 		.4byte	0x352
 2098 02f6 0F       		.uleb128 0xf
 2099 02f7 8E010000 		.4byte	0x18e
 2100 02fb 28000000 		.4byte	.LLST2
 2101 02ff 0F       		.uleb128 0xf
 2102 0300 9A010000 		.4byte	0x19a
 2103 0304 3C000000 		.4byte	.LLST3
 2104 0308 0F       		.uleb128 0xf
 2105 0309 A6010000 		.4byte	0x1a6
 2106 030d 52000000 		.4byte	.LLST4
 2107 0311 0F       		.uleb128 0xf
 2108 0312 B2010000 		.4byte	0x1b2
 2109 0316 68000000 		.4byte	.LLST5
 2110 031a 0F       		.uleb128 0xf
 2111 031b BE010000 		.4byte	0x1be
 2112 031f 7C000000 		.4byte	.LLST6
 2113 0323 10       		.uleb128 0x10
 2114 0324 5E000000 		.4byte	.LBB11
 2115 0328 0A000000 		.4byte	.LBE11-.LBB11
 2116 032c 11       		.uleb128 0x11
 2117 032d CA010000 		.4byte	0x1ca
 2118 0331 90000000 		.4byte	.LLST7
 2119 0335 11       		.uleb128 0x11
 2120 0336 D6010000 		.4byte	0x1d6
 2121 033a A4000000 		.4byte	.LLST8
 2122 033e 11       		.uleb128 0x11
 2123 033f E2010000 		.4byte	0x1e2
 2124 0343 BA000000 		.4byte	.LLST9
 2125 0347 11       		.uleb128 0x11
 2126 0348 EE010000 		.4byte	0x1ee
 2127 034c D0000000 		.4byte	.LLST10
 2128 0350 00       		.byte	0
 2129 0351 00       		.byte	0
 2130 0352 19       		.uleb128 0x19
 2131 0353 41010000 		.4byte	0x141
 2132 0357 82000000 		.4byte	.LBB12
 2133 035b 00000000 		.4byte	.Ldebug_ranges0+0
 2134 035f 01       		.byte	0x1
 2135 0360 A5       		.byte	0xa5
 2136 0361 80030000 		.4byte	0x380
 2137 0365 0F       		.uleb128 0xf
 2138 0366 4E010000 		.4byte	0x14e
 2139 036a E8000000 		.4byte	.LLST11
ARM GAS  C:\Users\emman\AppData\Local\Temp\ccNpJWxM.s 			page 76


 2140 036e 16       		.uleb128 0x16
 2141 036f 90000000 		.4byte	.LVL16
 2142 0373 FB010000 		.4byte	0x1fb
 2143 0377 1A       		.uleb128 0x1a
 2144 0378 4E010000 		.4byte	0x14e
 2145 037c 01       		.uleb128 0x1
 2146 037d 31       		.byte	0x31
 2147 037e 00       		.byte	0
 2148 037f 00       		.byte	0
 2149 0380 13       		.uleb128 0x13
 2150 0381 14000000 		.4byte	.LVL10
 2151 0385 2E0A0000 		.4byte	0xa2e
 2152 0389 93030000 		.4byte	0x393
 2153 038d 14       		.uleb128 0x14
 2154 038e 01       		.uleb128 0x1
 2155 038f 50       		.byte	0x50
 2156 0390 01       		.uleb128 0x1
 2157 0391 40       		.byte	0x40
 2158 0392 00       		.byte	0
 2159 0393 13       		.uleb128 0x13
 2160 0394 1A000000 		.4byte	.LVL11
 2161 0398 390A0000 		.4byte	0xa39
 2162 039c A6030000 		.4byte	0x3a6
 2163 03a0 14       		.uleb128 0x14
 2164 03a1 01       		.uleb128 0x1
 2165 03a2 50       		.byte	0x50
 2166 03a3 01       		.uleb128 0x1
 2167 03a4 40       		.byte	0x40
 2168 03a5 00       		.byte	0
 2169 03a6 15       		.uleb128 0x15
 2170 03a7 22000000 		.4byte	.LVL12
 2171 03ab 440A0000 		.4byte	0xa44
 2172 03af 14       		.uleb128 0x14
 2173 03b0 01       		.uleb128 0x1
 2174 03b1 50       		.byte	0x50
 2175 03b2 01       		.uleb128 0x1
 2176 03b3 4D       		.byte	0x4d
 2177 03b4 14       		.uleb128 0x14
 2178 03b5 01       		.uleb128 0x1
 2179 03b6 51       		.byte	0x51
 2180 03b7 01       		.uleb128 0x1
 2181 03b8 37       		.byte	0x37
 2182 03b9 00       		.byte	0
 2183 03ba 00       		.byte	0
 2184 03bb 17       		.uleb128 0x17
 2185 03bc 5E000000 		.4byte	.LASF42
 2186 03c0 01       		.byte	0x1
 2187 03c1 B8       		.byte	0xb8
 2188 03c2 00000000 		.4byte	.LFB1
 2189 03c6 D0000000 		.4byte	.LFE1-.LFB1
 2190 03ca 01       		.uleb128 0x1
 2191 03cb 9C       		.byte	0x9c
 2192 03cc 10040000 		.4byte	0x410
 2193 03d0 1B       		.uleb128 0x1b
 2194 03d1 74050000 		.4byte	.LASF29
 2195 03d5 01       		.byte	0x1
 2196 03d6 BA       		.byte	0xba
ARM GAS  C:\Users\emman\AppData\Local\Temp\ccNpJWxM.s 			page 77


 2197 03d7 72000000 		.4byte	0x72
 2198 03db 1C       		.uleb128 0x1c
 2199 03dc 43060000 		.4byte	.LASF36
 2200 03e0 01       		.byte	0x1
 2201 03e1 BB       		.byte	0xbb
 2202 03e2 72000000 		.4byte	0x72
 2203 03e6 06010000 		.4byte	.LLST12
 2204 03ea 12       		.uleb128 0x12
 2205 03eb 06000000 		.4byte	.LVL17
 2206 03ef E1090000 		.4byte	0x9e1
 2207 03f3 13       		.uleb128 0x13
 2208 03f4 52000000 		.4byte	.LVL19
 2209 03f8 EC090000 		.4byte	0x9ec
 2210 03fc 06040000 		.4byte	0x406
 2211 0400 14       		.uleb128 0x14
 2212 0401 01       		.uleb128 0x1
 2213 0402 50       		.byte	0x50
 2214 0403 01       		.uleb128 0x1
 2215 0404 33       		.byte	0x33
 2216 0405 00       		.byte	0
 2217 0406 1D       		.uleb128 0x1d
 2218 0407 AC000000 		.4byte	.LVL21
 2219 040b F7090000 		.4byte	0x9f7
 2220 040f 00       		.byte	0
 2221 0410 1E       		.uleb128 0x1e
 2222 0411 58020000 		.4byte	.LASF43
 2223 0415 01       		.byte	0x1
 2224 0416 4901     		.2byte	0x149
 2225 0418 00000000 		.4byte	.LFB2
 2226 041c 20000000 		.4byte	.LFE2-.LFB2
 2227 0420 01       		.uleb128 0x1
 2228 0421 9C       		.byte	0x9c
 2229 0422 39040000 		.4byte	0x439
 2230 0426 12       		.uleb128 0x12
 2231 0427 10000000 		.4byte	.LVL22
 2232 042b CE020000 		.4byte	0x2ce
 2233 042f 1D       		.uleb128 0x1d
 2234 0430 1C000000 		.4byte	.LVL23
 2235 0434 BB030000 		.4byte	0x3bb
 2236 0438 00       		.byte	0
 2237 0439 1E       		.uleb128 0x1e
 2238 043a 80030000 		.4byte	.LASF44
 2239 043e 01       		.byte	0x1
 2240 043f 6A01     		.2byte	0x16a
 2241 0441 00000000 		.4byte	.LFB3
 2242 0445 E0000000 		.4byte	.LFE3-.LFB3
 2243 0449 01       		.uleb128 0x1
 2244 044a 9C       		.byte	0x9c
 2245 044b 85040000 		.4byte	0x485
 2246 044f 1F       		.uleb128 0x1f
 2247 0450 43060000 		.4byte	.LASF36
 2248 0454 01       		.byte	0x1
 2249 0455 6C01     		.2byte	0x16c
 2250 0457 72000000 		.4byte	0x72
 2251 045b 19010000 		.4byte	.LLST13
 2252 045f 12       		.uleb128 0x12
 2253 0460 06000000 		.4byte	.LVL24
ARM GAS  C:\Users\emman\AppData\Local\Temp\ccNpJWxM.s 			page 78


 2254 0464 E1090000 		.4byte	0x9e1
 2255 0468 13       		.uleb128 0x13
 2256 0469 4C000000 		.4byte	.LVL26
 2257 046d EC090000 		.4byte	0x9ec
 2258 0471 7B040000 		.4byte	0x47b
 2259 0475 14       		.uleb128 0x14
 2260 0476 01       		.uleb128 0x1
 2261 0477 50       		.byte	0x50
 2262 0478 01       		.uleb128 0x1
 2263 0479 33       		.byte	0x33
 2264 047a 00       		.byte	0
 2265 047b 1D       		.uleb128 0x1d
 2266 047c CA000000 		.4byte	.LVL28
 2267 0480 F7090000 		.4byte	0x9f7
 2268 0484 00       		.byte	0
 2269 0485 1E       		.uleb128 0x1e
 2270 0486 74040000 		.4byte	.LASF45
 2271 048a 01       		.byte	0x1
 2272 048b AD01     		.2byte	0x1ad
 2273 048d 00000000 		.4byte	.LFB4
 2274 0491 18000000 		.4byte	.LFE4-.LFB4
 2275 0495 01       		.uleb128 0x1
 2276 0496 9C       		.byte	0x9c
 2277 0497 BC040000 		.4byte	0x4bc
 2278 049b 20       		.uleb128 0x20
 2279 049c 4E040000 		.4byte	.LASF48
 2280 04a0 01       		.byte	0x1
 2281 04a1 AD01     		.2byte	0x1ad
 2282 04a3 72000000 		.4byte	0x72
 2283 04a7 2C010000 		.4byte	.LLST14
 2284 04ab 1F       		.uleb128 0x1f
 2285 04ac A5060000 		.4byte	.LASF46
 2286 04b0 01       		.byte	0x1
 2287 04b1 AF01     		.2byte	0x1af
 2288 04b3 72000000 		.4byte	0x72
 2289 04b7 4D010000 		.4byte	.LLST15
 2290 04bb 00       		.byte	0
 2291 04bc 1E       		.uleb128 0x1e
 2292 04bd FF040000 		.4byte	.LASF47
 2293 04c1 01       		.byte	0x1
 2294 04c2 D101     		.2byte	0x1d1
 2295 04c4 00000000 		.4byte	.LFB5
 2296 04c8 18000000 		.4byte	.LFE5-.LFB5
 2297 04cc 01       		.uleb128 0x1
 2298 04cd 9C       		.byte	0x9c
 2299 04ce F3040000 		.4byte	0x4f3
 2300 04d2 20       		.uleb128 0x20
 2301 04d3 33040000 		.4byte	.LASF49
 2302 04d7 01       		.byte	0x1
 2303 04d8 D101     		.2byte	0x1d1
 2304 04da 72000000 		.4byte	0x72
 2305 04de 6B010000 		.4byte	.LLST16
 2306 04e2 1F       		.uleb128 0x1f
 2307 04e3 A5060000 		.4byte	.LASF46
 2308 04e7 01       		.byte	0x1
 2309 04e8 D301     		.2byte	0x1d3
 2310 04ea 72000000 		.4byte	0x72
ARM GAS  C:\Users\emman\AppData\Local\Temp\ccNpJWxM.s 			page 79


 2311 04ee 8C010000 		.4byte	.LLST17
 2312 04f2 00       		.byte	0
 2313 04f3 21       		.uleb128 0x21
 2314 04f4 0A020000 		.4byte	.LASF53
 2315 04f8 01       		.byte	0x1
 2316 04f9 F901     		.2byte	0x1f9
 2317 04fb 72000000 		.4byte	0x72
 2318 04ff 00000000 		.4byte	.LFB6
 2319 0503 74000000 		.4byte	.LFE6-.LFB6
 2320 0507 01       		.uleb128 0x1
 2321 0508 9C       		.byte	0x9c
 2322 0509 4E050000 		.4byte	0x54e
 2323 050d 20       		.uleb128 0x20
 2324 050e 5B060000 		.4byte	.LASF50
 2325 0512 01       		.byte	0x1
 2326 0513 F901     		.2byte	0x1f9
 2327 0515 BA000000 		.4byte	0xba
 2328 0519 AA010000 		.4byte	.LLST18
 2329 051d 1F       		.uleb128 0x1f
 2330 051e A5060000 		.4byte	.LASF46
 2331 0522 01       		.byte	0x1
 2332 0523 FB01     		.2byte	0x1fb
 2333 0525 7E000000 		.4byte	0x7e
 2334 0529 D8010000 		.4byte	.LLST19
 2335 052d 1F       		.uleb128 0x1f
 2336 052e 54060000 		.4byte	.LASF51
 2337 0532 01       		.byte	0x1
 2338 0533 FC01     		.2byte	0x1fc
 2339 0535 72000000 		.4byte	0x72
 2340 0539 0B020000 		.4byte	.LLST20
 2341 053d 1F       		.uleb128 0x1f
 2342 053e DB050000 		.4byte	.LASF52
 2343 0542 01       		.byte	0x1
 2344 0543 FD01     		.2byte	0x1fd
 2345 0545 BA000000 		.4byte	0xba
 2346 0549 2A020000 		.4byte	.LLST21
 2347 054d 00       		.byte	0
 2348 054e 22       		.uleb128 0x22
 2349 054f C1010000 		.4byte	.LASF54
 2350 0553 01       		.byte	0x1
 2351 0554 2802     		.2byte	0x228
 2352 0556 7E000000 		.4byte	0x7e
 2353 055a 00000000 		.4byte	.LFB7
 2354 055e 24000000 		.4byte	.LFE7-.LFB7
 2355 0562 01       		.uleb128 0x1
 2356 0563 9C       		.byte	0x9c
 2357 0564 89050000 		.4byte	0x589
 2358 0568 1F       		.uleb128 0x1f
 2359 0569 6D050000 		.4byte	.LASF55
 2360 056d 01       		.byte	0x1
 2361 056e 2A02     		.2byte	0x22a
 2362 0570 72000000 		.4byte	0x72
 2363 0574 74020000 		.4byte	.LLST22
 2364 0578 1F       		.uleb128 0x1f
 2365 0579 B2030000 		.4byte	.LASF39
 2366 057d 01       		.byte	0x1
 2367 057e 2B02     		.2byte	0x22b
ARM GAS  C:\Users\emman\AppData\Local\Temp\ccNpJWxM.s 			page 80


 2368 0580 7E000000 		.4byte	0x7e
 2369 0584 87020000 		.4byte	.LLST23
 2370 0588 00       		.byte	0
 2371 0589 23       		.uleb128 0x23
 2372 058a FE020000 		.4byte	.LASF56
 2373 058e 01       		.byte	0x1
 2374 058f 4A02     		.2byte	0x24a
 2375 0591 00000000 		.4byte	.LFB8
 2376 0595 10000000 		.4byte	.LFE8-.LFB8
 2377 0599 01       		.uleb128 0x1
 2378 059a 9C       		.byte	0x9c
 2379 059b 23       		.uleb128 0x23
 2380 059c 98050000 		.4byte	.LASF57
 2381 05a0 01       		.byte	0x1
 2382 05a1 6102     		.2byte	0x261
 2383 05a3 00000000 		.4byte	.LFB9
 2384 05a7 10000000 		.4byte	.LFE9-.LFB9
 2385 05ab 01       		.uleb128 0x1
 2386 05ac 9C       		.byte	0x9c
 2387 05ad 22       		.uleb128 0x22
 2388 05ae 9B010000 		.4byte	.LASF58
 2389 05b2 01       		.byte	0x1
 2390 05b3 8402     		.2byte	0x284
 2391 05b5 72000000 		.4byte	0x72
 2392 05b9 00000000 		.4byte	.LFB10
 2393 05bd 28000000 		.4byte	.LFE10-.LFB10
 2394 05c1 01       		.uleb128 0x1
 2395 05c2 9C       		.byte	0x9c
 2396 05c3 E8050000 		.4byte	0x5e8
 2397 05c7 20       		.uleb128 0x20
 2398 05c8 E9020000 		.4byte	.LASF59
 2399 05cc 01       		.byte	0x1
 2400 05cd 8402     		.2byte	0x284
 2401 05cf 72000000 		.4byte	0x72
 2402 05d3 A5020000 		.4byte	.LLST24
 2403 05d7 1F       		.uleb128 0x1f
 2404 05d8 54060000 		.4byte	.LASF51
 2405 05dc 01       		.byte	0x1
 2406 05dd 8602     		.2byte	0x286
 2407 05df 72000000 		.4byte	0x72
 2408 05e3 C6020000 		.4byte	.LLST25
 2409 05e7 00       		.byte	0
 2410 05e8 22       		.uleb128 0x22
 2411 05e9 C7040000 		.4byte	.LASF60
 2412 05ed 01       		.byte	0x1
 2413 05ee B302     		.2byte	0x2b3
 2414 05f0 96000000 		.4byte	0x96
 2415 05f4 00000000 		.4byte	.LFB11
 2416 05f8 40000000 		.4byte	.LFE11-.LFB11
 2417 05fc 01       		.uleb128 0x1
 2418 05fd 9C       		.byte	0x9c
 2419 05fe 21060000 		.4byte	0x621
 2420 0602 24       		.uleb128 0x24
 2421 0603 C6060000 		.4byte	.LASF61
 2422 0607 01       		.byte	0x1
 2423 0608 B502     		.2byte	0x2b5
 2424 060a 96000000 		.4byte	0x96
ARM GAS  C:\Users\emman\AppData\Local\Temp\ccNpJWxM.s 			page 81


 2425 060e 01       		.uleb128 0x1
 2426 060f 50       		.byte	0x50
 2427 0610 1F       		.uleb128 0x1f
 2428 0611 33040000 		.4byte	.LASF49
 2429 0615 01       		.byte	0x1
 2430 0616 B602     		.2byte	0x2b6
 2431 0618 72000000 		.4byte	0x72
 2432 061c E4020000 		.4byte	.LLST26
 2433 0620 00       		.byte	0
 2434 0621 22       		.uleb128 0x22
 2435 0622 57030000 		.4byte	.LASF62
 2436 0626 01       		.byte	0x1
 2437 0627 E902     		.2byte	0x2e9
 2438 0629 A2000000 		.4byte	0xa2
 2439 062d 00000000 		.4byte	.LFB12
 2440 0631 44000000 		.4byte	.LFE12-.LFB12
 2441 0635 01       		.uleb128 0x1
 2442 0636 9C       		.byte	0x9c
 2443 0637 5C060000 		.4byte	0x65c
 2444 063b 1F       		.uleb128 0x1f
 2445 063c C6060000 		.4byte	.LASF61
 2446 0640 01       		.byte	0x1
 2447 0641 EB02     		.2byte	0x2eb
 2448 0643 7E000000 		.4byte	0x7e
 2449 0647 02030000 		.4byte	.LLST27
 2450 064b 1F       		.uleb128 0x1f
 2451 064c 33040000 		.4byte	.LASF49
 2452 0650 01       		.byte	0x1
 2453 0651 EC02     		.2byte	0x2ec
 2454 0653 72000000 		.4byte	0x72
 2455 0657 2B030000 		.4byte	.LLST28
 2456 065b 00       		.byte	0
 2457 065c 22       		.uleb128 0x22
 2458 065d 59040000 		.4byte	.LASF63
 2459 0661 01       		.byte	0x1
 2460 0662 2503     		.2byte	0x325
 2461 0664 AE000000 		.4byte	0xae
 2462 0668 00000000 		.4byte	.LFB13
 2463 066c 58000000 		.4byte	.LFE13-.LFB13
 2464 0670 01       		.uleb128 0x1
 2465 0671 9C       		.byte	0x9c
 2466 0672 97060000 		.4byte	0x697
 2467 0676 1F       		.uleb128 0x1f
 2468 0677 C6060000 		.4byte	.LASF61
 2469 067b 01       		.byte	0x1
 2470 067c 2703     		.2byte	0x327
 2471 067e 8A000000 		.4byte	0x8a
 2472 0682 3E030000 		.4byte	.LLST29
 2473 0686 1F       		.uleb128 0x1f
 2474 0687 33040000 		.4byte	.LASF49
 2475 068b 01       		.byte	0x1
 2476 068c 2803     		.2byte	0x328
 2477 068e 72000000 		.4byte	0x72
 2478 0692 94030000 		.4byte	.LLST30
 2479 0696 00       		.byte	0
 2480 0697 1E       		.uleb128 0x1e
 2481 0698 6C060000 		.4byte	.LASF64
ARM GAS  C:\Users\emman\AppData\Local\Temp\ccNpJWxM.s 			page 82


 2482 069c 01       		.byte	0x1
 2483 069d 8203     		.2byte	0x382
 2484 069f 00000000 		.4byte	.LFB14
 2485 06a3 0C000000 		.4byte	.LFE14-.LFB14
 2486 06a7 01       		.uleb128 0x1
 2487 06a8 9C       		.byte	0x9c
 2488 06a9 BC060000 		.4byte	0x6bc
 2489 06ad 25       		.uleb128 0x25
 2490 06ae E4050000 		.4byte	.LASF65
 2491 06b2 01       		.byte	0x1
 2492 06b3 8203     		.2byte	0x382
 2493 06b5 AE000000 		.4byte	0xae
 2494 06b9 01       		.uleb128 0x1
 2495 06ba 50       		.byte	0x50
 2496 06bb 00       		.byte	0
 2497 06bc 1E       		.uleb128 0x1e
 2498 06bd 2E030000 		.4byte	.LASF66
 2499 06c1 01       		.byte	0x1
 2500 06c2 A503     		.2byte	0x3a5
 2501 06c4 00000000 		.4byte	.LFB15
 2502 06c8 0C000000 		.4byte	.LFE15-.LFB15
 2503 06cc 01       		.uleb128 0x1
 2504 06cd 9C       		.byte	0x9c
 2505 06ce E1060000 		.4byte	0x6e1
 2506 06d2 25       		.uleb128 0x25
 2507 06d3 1E000000 		.4byte	.LASF67
 2508 06d7 01       		.byte	0x1
 2509 06d8 A503     		.2byte	0x3a5
 2510 06da AE000000 		.4byte	0xae
 2511 06de 01       		.uleb128 0x1
 2512 06df 50       		.byte	0x50
 2513 06e0 00       		.byte	0
 2514 06e1 22       		.uleb128 0x22
 2515 06e2 AC060000 		.4byte	.LASF68
 2516 06e6 01       		.byte	0x1
 2517 06e7 C003     		.2byte	0x3c0
 2518 06e9 A2000000 		.4byte	0xa2
 2519 06ed 00000000 		.4byte	.LFB16
 2520 06f1 20000000 		.4byte	.LFE16-.LFB16
 2521 06f5 01       		.uleb128 0x1
 2522 06f6 9C       		.byte	0x9c
 2523 06f7 1C070000 		.4byte	0x71c
 2524 06fb 20       		.uleb128 0x20
 2525 06fc FD050000 		.4byte	.LASF69
 2526 0700 01       		.byte	0x1
 2527 0701 C003     		.2byte	0x3c0
 2528 0703 AE000000 		.4byte	0xae
 2529 0707 BD030000 		.4byte	.LLST31
 2530 070b 1F       		.uleb128 0x1f
 2531 070c EA030000 		.4byte	.LASF70
 2532 0710 01       		.byte	0x1
 2533 0711 C303     		.2byte	0x3c3
 2534 0713 A2000000 		.4byte	0xa2
 2535 0717 EB030000 		.4byte	.LLST32
 2536 071b 00       		.byte	0
 2537 071c 21       		.uleb128 0x21
 2538 071d 68020000 		.4byte	.LASF71
ARM GAS  C:\Users\emman\AppData\Local\Temp\ccNpJWxM.s 			page 83


 2539 0721 01       		.byte	0x1
 2540 0722 FD03     		.2byte	0x3fd
 2541 0724 BA000000 		.4byte	0xba
 2542 0728 00000000 		.4byte	.LFB17
 2543 072c 2C000000 		.4byte	.LFE17-.LFB17
 2544 0730 01       		.uleb128 0x1
 2545 0731 9C       		.byte	0x9c
 2546 0732 57070000 		.4byte	0x757
 2547 0736 20       		.uleb128 0x20
 2548 0737 FD050000 		.4byte	.LASF69
 2549 073b 01       		.byte	0x1
 2550 073c FD03     		.2byte	0x3fd
 2551 073e AE000000 		.4byte	0xae
 2552 0742 22040000 		.4byte	.LLST33
 2553 0746 1F       		.uleb128 0x1f
 2554 0747 1C020000 		.4byte	.LASF72
 2555 074b 01       		.byte	0x1
 2556 074c 0004     		.2byte	0x400
 2557 074e BA000000 		.4byte	0xba
 2558 0752 50040000 		.4byte	.LLST34
 2559 0756 00       		.byte	0
 2560 0757 22       		.uleb128 0x22
 2561 0758 29060000 		.4byte	.LASF73
 2562 075c 01       		.byte	0x1
 2563 075d 3F04     		.2byte	0x43f
 2564 075f AE000000 		.4byte	0xae
 2565 0763 00000000 		.4byte	.LFB18
 2566 0767 4C000000 		.4byte	.LFE18-.LFB18
 2567 076b 01       		.uleb128 0x1
 2568 076c 9C       		.byte	0x9c
 2569 076d B8070000 		.4byte	0x7b8
 2570 0771 20       		.uleb128 0x20
 2571 0772 FD050000 		.4byte	.LASF69
 2572 0776 01       		.byte	0x1
 2573 0777 3F04     		.2byte	0x43f
 2574 0779 AE000000 		.4byte	0xae
 2575 077d 8F040000 		.4byte	.LLST35
 2576 0781 0B       		.uleb128 0xb
 2577 0782 15030000 		.4byte	.LASF74
 2578 0786 01       		.byte	0x1
 2579 0787 4204     		.2byte	0x442
 2580 0789 AE000000 		.4byte	0xae
 2581 078d 1F       		.uleb128 0x1f
 2582 078e 5C050000 		.4byte	.LASF75
 2583 0792 01       		.byte	0x1
 2584 0793 4304     		.2byte	0x443
 2585 0795 AE000000 		.4byte	0xae
 2586 0799 B0040000 		.4byte	.LLST36
 2587 079d 24       		.uleb128 0x24
 2588 079e 62050000 		.4byte	.LASF76
 2589 07a2 01       		.byte	0x1
 2590 07a3 4404     		.2byte	0x444
 2591 07a5 AE000000 		.4byte	0xae
 2592 07a9 01       		.uleb128 0x1
 2593 07aa 51       		.byte	0x51
 2594 07ab 0B       		.uleb128 0xb
 2595 07ac 3E050000 		.4byte	.LASF35
ARM GAS  C:\Users\emman\AppData\Local\Temp\ccNpJWxM.s 			page 84


 2596 07b0 01       		.byte	0x1
 2597 07b1 4504     		.2byte	0x445
 2598 07b3 72000000 		.4byte	0x72
 2599 07b7 00       		.byte	0
 2600 07b8 1E       		.uleb128 0x1e
 2601 07b9 8F030000 		.4byte	.LASF77
 2602 07bd 01       		.byte	0x1
 2603 07be 1006     		.2byte	0x610
 2604 07c0 00000000 		.4byte	.LFB20
 2605 07c4 4C000000 		.4byte	.LFE20-.LFB20
 2606 07c8 01       		.uleb128 0x1
 2607 07c9 9C       		.byte	0x9c
 2608 07ca 39080000 		.4byte	0x839
 2609 07ce 20       		.uleb128 0x20
 2610 07cf 74050000 		.4byte	.LASF29
 2611 07d3 01       		.byte	0x1
 2612 07d4 1006     		.2byte	0x610
 2613 07d6 72000000 		.4byte	0x72
 2614 07da C3040000 		.4byte	.LLST37
 2615 07de 20       		.uleb128 0x20
 2616 07df D3050000 		.4byte	.LASF78
 2617 07e3 01       		.byte	0x1
 2618 07e4 1006     		.2byte	0x610
 2619 07e6 72000000 		.4byte	0x72
 2620 07ea E4040000 		.4byte	.LLST38
 2621 07ee 0E       		.uleb128 0xe
 2622 07ef 41010000 		.4byte	0x141
 2623 07f3 1A000000 		.4byte	.LBB18
 2624 07f7 08000000 		.4byte	.LBE18-.LBB18
 2625 07fb 01       		.byte	0x1
 2626 07fc 2506     		.2byte	0x625
 2627 07fe 1D080000 		.4byte	0x81d
 2628 0802 0F       		.uleb128 0xf
 2629 0803 4E010000 		.4byte	0x14e
 2630 0807 05050000 		.4byte	.LLST39
 2631 080b 15       		.uleb128 0x15
 2632 080c 22000000 		.4byte	.LVL112
 2633 0810 FB010000 		.4byte	0x1fb
 2634 0814 1A       		.uleb128 0x1a
 2635 0815 4E010000 		.4byte	0x14e
 2636 0819 01       		.uleb128 0x1
 2637 081a 31       		.byte	0x31
 2638 081b 00       		.byte	0
 2639 081c 00       		.byte	0
 2640 081d 12       		.uleb128 0x12
 2641 081e 1A000000 		.4byte	.LVL111
 2642 0822 39040000 		.4byte	0x439
 2643 0826 12       		.uleb128 0x12
 2644 0827 36000000 		.4byte	.LVL113
 2645 082b 10040000 		.4byte	0x410
 2646 082f 1D       		.uleb128 0x1d
 2647 0830 3E000000 		.4byte	.LVL114
 2648 0834 89050000 		.4byte	0x589
 2649 0838 00       		.byte	0
 2650 0839 22       		.uleb128 0x22
 2651 083a 82010000 		.4byte	.LASF79
 2652 083e 01       		.byte	0x1
ARM GAS  C:\Users\emman\AppData\Local\Temp\ccNpJWxM.s 			page 85


 2653 083f E206     		.2byte	0x6e2
 2654 0841 96000000 		.4byte	0x96
 2655 0845 00000000 		.4byte	.LFB23
 2656 0849 24000000 		.4byte	.LFE23-.LFB23
 2657 084d 01       		.uleb128 0x1
 2658 084e 9C       		.byte	0x9c
 2659 084f 92080000 		.4byte	0x892
 2660 0853 1F       		.uleb128 0x1f
 2661 0854 C6060000 		.4byte	.LASF61
 2662 0858 01       		.byte	0x1
 2663 0859 E406     		.2byte	0x6e4
 2664 085b 96000000 		.4byte	0x96
 2665 085f 19050000 		.4byte	.LLST40
 2666 0863 12       		.uleb128 0x12
 2667 0864 10000000 		.4byte	.LVL115
 2668 0868 89050000 		.4byte	0x589
 2669 086c 13       		.uleb128 0x13
 2670 086d 16000000 		.4byte	.LVL116
 2671 0871 AD050000 		.4byte	0x5ad
 2672 0875 7F080000 		.4byte	0x87f
 2673 0879 14       		.uleb128 0x14
 2674 087a 01       		.uleb128 0x1
 2675 087b 50       		.byte	0x50
 2676 087c 01       		.uleb128 0x1
 2677 087d 30       		.byte	0x30
 2678 087e 00       		.byte	0
 2679 087f 12       		.uleb128 0x12
 2680 0880 1A000000 		.4byte	.LVL117
 2681 0884 E8050000 		.4byte	0x5e8
 2682 0888 12       		.uleb128 0x12
 2683 0889 1E000000 		.4byte	.LVL118
 2684 088d 9B050000 		.4byte	0x59b
 2685 0891 00       		.byte	0
 2686 0892 22       		.uleb128 0x22
 2687 0893 00000000 		.4byte	.LASF80
 2688 0897 01       		.byte	0x1
 2689 0898 0307     		.2byte	0x703
 2690 089a A2000000 		.4byte	0xa2
 2691 089e 00000000 		.4byte	.LFB24
 2692 08a2 24000000 		.4byte	.LFE24-.LFB24
 2693 08a6 01       		.uleb128 0x1
 2694 08a7 9C       		.byte	0x9c
 2695 08a8 EB080000 		.4byte	0x8eb
 2696 08ac 1F       		.uleb128 0x1f
 2697 08ad C6060000 		.4byte	.LASF61
 2698 08b1 01       		.byte	0x1
 2699 08b2 0507     		.2byte	0x705
 2700 08b4 A2000000 		.4byte	0xa2
 2701 08b8 2C050000 		.4byte	.LLST41
 2702 08bc 12       		.uleb128 0x12
 2703 08bd 10000000 		.4byte	.LVL119
 2704 08c1 89050000 		.4byte	0x589
 2705 08c5 13       		.uleb128 0x13
 2706 08c6 16000000 		.4byte	.LVL120
 2707 08ca AD050000 		.4byte	0x5ad
 2708 08ce D8080000 		.4byte	0x8d8
 2709 08d2 14       		.uleb128 0x14
ARM GAS  C:\Users\emman\AppData\Local\Temp\ccNpJWxM.s 			page 86


 2710 08d3 01       		.uleb128 0x1
 2711 08d4 50       		.byte	0x50
 2712 08d5 01       		.uleb128 0x1
 2713 08d6 30       		.byte	0x30
 2714 08d7 00       		.byte	0
 2715 08d8 12       		.uleb128 0x12
 2716 08d9 1A000000 		.4byte	.LVL121
 2717 08dd 21060000 		.4byte	0x621
 2718 08e1 12       		.uleb128 0x12
 2719 08e2 1E000000 		.4byte	.LVL122
 2720 08e6 9B050000 		.4byte	0x59b
 2721 08ea 00       		.byte	0
 2722 08eb 22       		.uleb128 0x22
 2723 08ec 22020000 		.4byte	.LASF81
 2724 08f0 01       		.byte	0x1
 2725 08f1 2407     		.2byte	0x724
 2726 08f3 AE000000 		.4byte	0xae
 2727 08f7 00000000 		.4byte	.LFB25
 2728 08fb 24000000 		.4byte	.LFE25-.LFB25
 2729 08ff 01       		.uleb128 0x1
 2730 0900 9C       		.byte	0x9c
 2731 0901 44090000 		.4byte	0x944
 2732 0905 1F       		.uleb128 0x1f
 2733 0906 C6060000 		.4byte	.LASF61
 2734 090a 01       		.byte	0x1
 2735 090b 2607     		.2byte	0x726
 2736 090d AE000000 		.4byte	0xae
 2737 0911 3F050000 		.4byte	.LLST42
 2738 0915 12       		.uleb128 0x12
 2739 0916 10000000 		.4byte	.LVL123
 2740 091a 89050000 		.4byte	0x589
 2741 091e 13       		.uleb128 0x13
 2742 091f 16000000 		.4byte	.LVL124
 2743 0923 AD050000 		.4byte	0x5ad
 2744 0927 31090000 		.4byte	0x931
 2745 092b 14       		.uleb128 0x14
 2746 092c 01       		.uleb128 0x1
 2747 092d 50       		.byte	0x50
 2748 092e 01       		.uleb128 0x1
 2749 092f 30       		.byte	0x30
 2750 0930 00       		.byte	0
 2751 0931 12       		.uleb128 0x12
 2752 0932 1A000000 		.4byte	.LVL125
 2753 0936 5C060000 		.4byte	0x65c
 2754 093a 12       		.uleb128 0x12
 2755 093b 1E000000 		.4byte	.LVL126
 2756 093f 9B050000 		.4byte	0x59b
 2757 0943 00       		.byte	0
 2758 0944 26       		.uleb128 0x26
 2759 0945 36010000 		.4byte	0x136
 2760 0949 54090000 		.4byte	0x954
 2761 094d 27       		.uleb128 0x27
 2762 094e 0E010000 		.4byte	0x10e
 2763 0952 00       		.byte	0
 2764 0953 00       		.byte	0
 2765 0954 28       		.uleb128 0x28
 2766 0955 3A020000 		.4byte	.LASF82
ARM GAS  C:\Users\emman\AppData\Local\Temp\ccNpJWxM.s 			page 87


 2767 0959 01       		.byte	0x1
 2768 095a 3D       		.byte	0x3d
 2769 095b 44090000 		.4byte	0x944
 2770 095f 05       		.uleb128 0x5
 2771 0960 03       		.byte	0x3
 2772 0961 02000000 		.4byte	Touch_ADC_gcor
 2773 0965 29       		.uleb128 0x29
 2774 0966 4C000000 		.4byte	.LASF83
 2775 096a 01       		.byte	0x1
 2776 096b 2C       		.byte	0x2c
 2777 096c 72000000 		.4byte	0x72
 2778 0970 05       		.uleb128 0x5
 2779 0971 03       		.byte	0x3
 2780 0972 00000000 		.4byte	Touch_ADC_initVar
 2781 0976 29       		.uleb128 0x29
 2782 0977 49050000 		.4byte	.LASF84
 2783 097b 01       		.byte	0x1
 2784 097c 24       		.byte	0x24
 2785 097d E0000000 		.4byte	0xe0
 2786 0981 05       		.uleb128 0x5
 2787 0982 03       		.byte	0x3
 2788 0983 00000000 		.4byte	Touch_ADC_convDone
 2789 0987 29       		.uleb128 0x29
 2790 0988 05040000 		.4byte	.LASF85
 2791 098c 01       		.byte	0x1
 2792 098d 29       		.byte	0x29
 2793 098e E0000000 		.4byte	0xe0
 2794 0992 05       		.uleb128 0x5
 2795 0993 03       		.byte	0x3
 2796 0994 00000000 		.4byte	Touch_ADC_stopConversion
 2797 0998 29       		.uleb128 0x29
 2798 0999 EB050000 		.4byte	.LASF86
 2799 099d 01       		.byte	0x1
 2800 099e 2F       		.byte	0x2f
 2801 099f E0000000 		.4byte	0xe0
 2802 09a3 05       		.uleb128 0x5
 2803 09a4 03       		.byte	0x3
 2804 09a5 00000000 		.4byte	Touch_ADC_started
 2805 09a9 29       		.uleb128 0x29
 2806 09aa D8020000 		.4byte	.LASF87
 2807 09ae 01       		.byte	0x1
 2808 09af 32       		.byte	0x32
 2809 09b0 E0000000 		.4byte	0xe0
 2810 09b4 05       		.uleb128 0x5
 2811 09b5 03       		.byte	0x3
 2812 09b6 00000000 		.4byte	Touch_ADC_Config
 2813 09ba 29       		.uleb128 0x29
 2814 09bb E6040000 		.4byte	.LASF88
 2815 09bf 01       		.byte	0x1
 2816 09c0 34       		.byte	0x34
 2817 09c1 CB090000 		.4byte	0x9cb
 2818 09c5 05       		.uleb128 0x5
 2819 09c6 03       		.byte	0x3
 2820 09c7 00000000 		.4byte	Touch_ADC_Offset
 2821 09cb 05       		.uleb128 0x5
 2822 09cc AE000000 		.4byte	0xae
 2823 09d0 29       		.uleb128 0x29
ARM GAS  C:\Users\emman\AppData\Local\Temp\ccNpJWxM.s 			page 88


 2824 09d1 BC030000 		.4byte	.LASF89
 2825 09d5 01       		.byte	0x1
 2826 09d6 35       		.byte	0x35
 2827 09d7 CB090000 		.4byte	0x9cb
 2828 09db 05       		.uleb128 0x5
 2829 09dc 03       		.byte	0x3
 2830 09dd 00000000 		.4byte	Touch_ADC_CountsPerVolt
 2831 09e1 2A       		.uleb128 0x2a
 2832 09e2 40030000 		.4byte	.LASF90
 2833 09e6 40030000 		.4byte	.LASF90
 2834 09ea 04       		.byte	0x4
 2835 09eb 7D       		.byte	0x7d
 2836 09ec 2A       		.uleb128 0x2a
 2837 09ed F9010000 		.4byte	.LASF91
 2838 09f1 F9010000 		.4byte	.LASF91
 2839 09f5 04       		.byte	0x4
 2840 09f6 77       		.byte	0x77
 2841 09f7 2A       		.uleb128 0x2a
 2842 09f8 26000000 		.4byte	.LASF92
 2843 09fc 26000000 		.4byte	.LASF92
 2844 0a00 04       		.byte	0x4
 2845 0a01 7E       		.byte	0x7e
 2846 0a02 2A       		.uleb128 0x2a
 2847 0a03 BD050000 		.4byte	.LASF93
 2848 0a07 BD050000 		.4byte	.LASF93
 2849 0a0b 05       		.byte	0x5
 2850 0a0c 57       		.byte	0x57
 2851 0a0d 2A       		.uleb128 0x2a
 2852 0a0e 16050000 		.4byte	.LASF94
 2853 0a12 16050000 		.4byte	.LASF94
 2854 0a16 06       		.byte	0x6
 2855 0a17 2F       		.byte	0x2f
 2856 0a18 2A       		.uleb128 0x2a
 2857 0a19 80060000 		.4byte	.LASF95
 2858 0a1d 80060000 		.4byte	.LASF95
 2859 0a21 07       		.byte	0x7
 2860 0a22 2F       		.byte	0x2f
 2861 0a23 2A       		.uleb128 0x2a
 2862 0a24 49020000 		.4byte	.LASF96
 2863 0a28 49020000 		.4byte	.LASF96
 2864 0a2c 04       		.byte	0x4
 2865 0a2d 88       		.byte	0x88
 2866 0a2e 2A       		.uleb128 0x2a
 2867 0a2f D4010000 		.4byte	.LASF97
 2868 0a33 D4010000 		.4byte	.LASF97
 2869 0a37 06       		.byte	0x6
 2870 0a38 32       		.byte	0x32
 2871 0a39 2A       		.uleb128 0x2a
 2872 0a3a 07060000 		.4byte	.LASF98
 2873 0a3e 07060000 		.4byte	.LASF98
 2874 0a42 07       		.byte	0x7
 2875 0a43 32       		.byte	0x32
 2876 0a44 2A       		.uleb128 0x2a
 2877 0a45 3D040000 		.4byte	.LASF99
 2878 0a49 3D040000 		.4byte	.LASF99
 2879 0a4d 04       		.byte	0x4
 2880 0a4e 8B       		.byte	0x8b
ARM GAS  C:\Users\emman\AppData\Local\Temp\ccNpJWxM.s 			page 89


 2881 0a4f 00       		.byte	0
 2882              		.section	.debug_abbrev,"",%progbits
 2883              	.Ldebug_abbrev0:
 2884 0000 01       		.uleb128 0x1
 2885 0001 11       		.uleb128 0x11
 2886 0002 01       		.byte	0x1
 2887 0003 25       		.uleb128 0x25
 2888 0004 0E       		.uleb128 0xe
 2889 0005 13       		.uleb128 0x13
 2890 0006 0B       		.uleb128 0xb
 2891 0007 03       		.uleb128 0x3
 2892 0008 0E       		.uleb128 0xe
 2893 0009 1B       		.uleb128 0x1b
 2894 000a 0E       		.uleb128 0xe
 2895 000b 55       		.uleb128 0x55
 2896 000c 17       		.uleb128 0x17
 2897 000d 11       		.uleb128 0x11
 2898 000e 01       		.uleb128 0x1
 2899 000f 10       		.uleb128 0x10
 2900 0010 17       		.uleb128 0x17
 2901 0011 00       		.byte	0
 2902 0012 00       		.byte	0
 2903 0013 02       		.uleb128 0x2
 2904 0014 24       		.uleb128 0x24
 2905 0015 00       		.byte	0
 2906 0016 0B       		.uleb128 0xb
 2907 0017 0B       		.uleb128 0xb
 2908 0018 3E       		.uleb128 0x3e
 2909 0019 0B       		.uleb128 0xb
 2910 001a 03       		.uleb128 0x3
 2911 001b 0E       		.uleb128 0xe
 2912 001c 00       		.byte	0
 2913 001d 00       		.byte	0
 2914 001e 03       		.uleb128 0x3
 2915 001f 24       		.uleb128 0x24
 2916 0020 00       		.byte	0
 2917 0021 0B       		.uleb128 0xb
 2918 0022 0B       		.uleb128 0xb
 2919 0023 3E       		.uleb128 0x3e
 2920 0024 0B       		.uleb128 0xb
 2921 0025 03       		.uleb128 0x3
 2922 0026 08       		.uleb128 0x8
 2923 0027 00       		.byte	0
 2924 0028 00       		.byte	0
 2925 0029 04       		.uleb128 0x4
 2926 002a 16       		.uleb128 0x16
 2927 002b 00       		.byte	0
 2928 002c 03       		.uleb128 0x3
 2929 002d 0E       		.uleb128 0xe
 2930 002e 3A       		.uleb128 0x3a
 2931 002f 0B       		.uleb128 0xb
 2932 0030 3B       		.uleb128 0x3b
 2933 0031 05       		.uleb128 0x5
 2934 0032 49       		.uleb128 0x49
 2935 0033 13       		.uleb128 0x13
 2936 0034 00       		.byte	0
 2937 0035 00       		.byte	0
ARM GAS  C:\Users\emman\AppData\Local\Temp\ccNpJWxM.s 			page 90


 2938 0036 05       		.uleb128 0x5
 2939 0037 35       		.uleb128 0x35
 2940 0038 00       		.byte	0
 2941 0039 49       		.uleb128 0x49
 2942 003a 13       		.uleb128 0x13
 2943 003b 00       		.byte	0
 2944 003c 00       		.byte	0
 2945 003d 06       		.uleb128 0x6
 2946 003e 13       		.uleb128 0x13
 2947 003f 01       		.byte	0x1
 2948 0040 0B       		.uleb128 0xb
 2949 0041 0B       		.uleb128 0xb
 2950 0042 3A       		.uleb128 0x3a
 2951 0043 0B       		.uleb128 0xb
 2952 0044 3B       		.uleb128 0x3b
 2953 0045 0B       		.uleb128 0xb
 2954 0046 01       		.uleb128 0x1
 2955 0047 13       		.uleb128 0x13
 2956 0048 00       		.byte	0
 2957 0049 00       		.byte	0
 2958 004a 07       		.uleb128 0x7
 2959 004b 0D       		.uleb128 0xd
 2960 004c 00       		.byte	0
 2961 004d 03       		.uleb128 0x3
 2962 004e 0E       		.uleb128 0xe
 2963 004f 3A       		.uleb128 0x3a
 2964 0050 0B       		.uleb128 0xb
 2965 0051 3B       		.uleb128 0x3b
 2966 0052 0B       		.uleb128 0xb
 2967 0053 49       		.uleb128 0x49
 2968 0054 13       		.uleb128 0x13
 2969 0055 38       		.uleb128 0x38
 2970 0056 0B       		.uleb128 0xb
 2971 0057 00       		.byte	0
 2972 0058 00       		.byte	0
 2973 0059 08       		.uleb128 0x8
 2974 005a 16       		.uleb128 0x16
 2975 005b 00       		.byte	0
 2976 005c 03       		.uleb128 0x3
 2977 005d 0E       		.uleb128 0xe
 2978 005e 3A       		.uleb128 0x3a
 2979 005f 0B       		.uleb128 0xb
 2980 0060 3B       		.uleb128 0x3b
 2981 0061 0B       		.uleb128 0xb
 2982 0062 49       		.uleb128 0x49
 2983 0063 13       		.uleb128 0x13
 2984 0064 00       		.byte	0
 2985 0065 00       		.byte	0
 2986 0066 09       		.uleb128 0x9
 2987 0067 2E       		.uleb128 0x2e
 2988 0068 01       		.byte	0x1
 2989 0069 03       		.uleb128 0x3
 2990 006a 0E       		.uleb128 0xe
 2991 006b 3A       		.uleb128 0x3a
 2992 006c 0B       		.uleb128 0xb
 2993 006d 3B       		.uleb128 0x3b
 2994 006e 05       		.uleb128 0x5
ARM GAS  C:\Users\emman\AppData\Local\Temp\ccNpJWxM.s 			page 91


 2995 006f 27       		.uleb128 0x27
 2996 0070 19       		.uleb128 0x19
 2997 0071 20       		.uleb128 0x20
 2998 0072 0B       		.uleb128 0xb
 2999 0073 01       		.uleb128 0x1
 3000 0074 13       		.uleb128 0x13
 3001 0075 00       		.byte	0
 3002 0076 00       		.byte	0
 3003 0077 0A       		.uleb128 0xa
 3004 0078 05       		.uleb128 0x5
 3005 0079 00       		.byte	0
 3006 007a 03       		.uleb128 0x3
 3007 007b 0E       		.uleb128 0xe
 3008 007c 3A       		.uleb128 0x3a
 3009 007d 0B       		.uleb128 0xb
 3010 007e 3B       		.uleb128 0x3b
 3011 007f 05       		.uleb128 0x5
 3012 0080 49       		.uleb128 0x49
 3013 0081 13       		.uleb128 0x13
 3014 0082 00       		.byte	0
 3015 0083 00       		.byte	0
 3016 0084 0B       		.uleb128 0xb
 3017 0085 34       		.uleb128 0x34
 3018 0086 00       		.byte	0
 3019 0087 03       		.uleb128 0x3
 3020 0088 0E       		.uleb128 0xe
 3021 0089 3A       		.uleb128 0x3a
 3022 008a 0B       		.uleb128 0xb
 3023 008b 3B       		.uleb128 0x3b
 3024 008c 05       		.uleb128 0x5
 3025 008d 49       		.uleb128 0x49
 3026 008e 13       		.uleb128 0x13
 3027 008f 00       		.byte	0
 3028 0090 00       		.byte	0
 3029 0091 0C       		.uleb128 0xc
 3030 0092 2E       		.uleb128 0x2e
 3031 0093 01       		.byte	0x1
 3032 0094 31       		.uleb128 0x31
 3033 0095 13       		.uleb128 0x13
 3034 0096 11       		.uleb128 0x11
 3035 0097 01       		.uleb128 0x1
 3036 0098 12       		.uleb128 0x12
 3037 0099 06       		.uleb128 0x6
 3038 009a 40       		.uleb128 0x40
 3039 009b 18       		.uleb128 0x18
 3040 009c 9742     		.uleb128 0x2117
 3041 009e 19       		.uleb128 0x19
 3042 009f 01       		.uleb128 0x1
 3043 00a0 13       		.uleb128 0x13
 3044 00a1 00       		.byte	0
 3045 00a2 00       		.byte	0
 3046 00a3 0D       		.uleb128 0xd
 3047 00a4 05       		.uleb128 0x5
 3048 00a5 00       		.byte	0
 3049 00a6 31       		.uleb128 0x31
 3050 00a7 13       		.uleb128 0x13
 3051 00a8 02       		.uleb128 0x2
ARM GAS  C:\Users\emman\AppData\Local\Temp\ccNpJWxM.s 			page 92


 3052 00a9 18       		.uleb128 0x18
 3053 00aa 00       		.byte	0
 3054 00ab 00       		.byte	0
 3055 00ac 0E       		.uleb128 0xe
 3056 00ad 1D       		.uleb128 0x1d
 3057 00ae 01       		.byte	0x1
 3058 00af 31       		.uleb128 0x31
 3059 00b0 13       		.uleb128 0x13
 3060 00b1 11       		.uleb128 0x11
 3061 00b2 01       		.uleb128 0x1
 3062 00b3 12       		.uleb128 0x12
 3063 00b4 06       		.uleb128 0x6
 3064 00b5 58       		.uleb128 0x58
 3065 00b6 0B       		.uleb128 0xb
 3066 00b7 59       		.uleb128 0x59
 3067 00b8 05       		.uleb128 0x5
 3068 00b9 01       		.uleb128 0x1
 3069 00ba 13       		.uleb128 0x13
 3070 00bb 00       		.byte	0
 3071 00bc 00       		.byte	0
 3072 00bd 0F       		.uleb128 0xf
 3073 00be 05       		.uleb128 0x5
 3074 00bf 00       		.byte	0
 3075 00c0 31       		.uleb128 0x31
 3076 00c1 13       		.uleb128 0x13
 3077 00c2 02       		.uleb128 0x2
 3078 00c3 17       		.uleb128 0x17
 3079 00c4 00       		.byte	0
 3080 00c5 00       		.byte	0
 3081 00c6 10       		.uleb128 0x10
 3082 00c7 0B       		.uleb128 0xb
 3083 00c8 01       		.byte	0x1
 3084 00c9 11       		.uleb128 0x11
 3085 00ca 01       		.uleb128 0x1
 3086 00cb 12       		.uleb128 0x12
 3087 00cc 06       		.uleb128 0x6
 3088 00cd 00       		.byte	0
 3089 00ce 00       		.byte	0
 3090 00cf 11       		.uleb128 0x11
 3091 00d0 34       		.uleb128 0x34
 3092 00d1 00       		.byte	0
 3093 00d2 31       		.uleb128 0x31
 3094 00d3 13       		.uleb128 0x13
 3095 00d4 02       		.uleb128 0x2
 3096 00d5 17       		.uleb128 0x17
 3097 00d6 00       		.byte	0
 3098 00d7 00       		.byte	0
 3099 00d8 12       		.uleb128 0x12
 3100 00d9 898201   		.uleb128 0x4109
 3101 00dc 00       		.byte	0
 3102 00dd 11       		.uleb128 0x11
 3103 00de 01       		.uleb128 0x1
 3104 00df 31       		.uleb128 0x31
 3105 00e0 13       		.uleb128 0x13
 3106 00e1 00       		.byte	0
 3107 00e2 00       		.byte	0
 3108 00e3 13       		.uleb128 0x13
ARM GAS  C:\Users\emman\AppData\Local\Temp\ccNpJWxM.s 			page 93


 3109 00e4 898201   		.uleb128 0x4109
 3110 00e7 01       		.byte	0x1
 3111 00e8 11       		.uleb128 0x11
 3112 00e9 01       		.uleb128 0x1
 3113 00ea 31       		.uleb128 0x31
 3114 00eb 13       		.uleb128 0x13
 3115 00ec 01       		.uleb128 0x1
 3116 00ed 13       		.uleb128 0x13
 3117 00ee 00       		.byte	0
 3118 00ef 00       		.byte	0
 3119 00f0 14       		.uleb128 0x14
 3120 00f1 8A8201   		.uleb128 0x410a
 3121 00f4 00       		.byte	0
 3122 00f5 02       		.uleb128 0x2
 3123 00f6 18       		.uleb128 0x18
 3124 00f7 9142     		.uleb128 0x2111
 3125 00f9 18       		.uleb128 0x18
 3126 00fa 00       		.byte	0
 3127 00fb 00       		.byte	0
 3128 00fc 15       		.uleb128 0x15
 3129 00fd 898201   		.uleb128 0x4109
 3130 0100 01       		.byte	0x1
 3131 0101 11       		.uleb128 0x11
 3132 0102 01       		.uleb128 0x1
 3133 0103 31       		.uleb128 0x31
 3134 0104 13       		.uleb128 0x13
 3135 0105 00       		.byte	0
 3136 0106 00       		.byte	0
 3137 0107 16       		.uleb128 0x16
 3138 0108 898201   		.uleb128 0x4109
 3139 010b 01       		.byte	0x1
 3140 010c 11       		.uleb128 0x11
 3141 010d 01       		.uleb128 0x1
 3142 010e 9542     		.uleb128 0x2115
 3143 0110 19       		.uleb128 0x19
 3144 0111 31       		.uleb128 0x31
 3145 0112 13       		.uleb128 0x13
 3146 0113 00       		.byte	0
 3147 0114 00       		.byte	0
 3148 0115 17       		.uleb128 0x17
 3149 0116 2E       		.uleb128 0x2e
 3150 0117 01       		.byte	0x1
 3151 0118 3F       		.uleb128 0x3f
 3152 0119 19       		.uleb128 0x19
 3153 011a 03       		.uleb128 0x3
 3154 011b 0E       		.uleb128 0xe
 3155 011c 3A       		.uleb128 0x3a
 3156 011d 0B       		.uleb128 0xb
 3157 011e 3B       		.uleb128 0x3b
 3158 011f 0B       		.uleb128 0xb
 3159 0120 27       		.uleb128 0x27
 3160 0121 19       		.uleb128 0x19
 3161 0122 11       		.uleb128 0x11
 3162 0123 01       		.uleb128 0x1
 3163 0124 12       		.uleb128 0x12
 3164 0125 06       		.uleb128 0x6
 3165 0126 40       		.uleb128 0x40
ARM GAS  C:\Users\emman\AppData\Local\Temp\ccNpJWxM.s 			page 94


 3166 0127 18       		.uleb128 0x18
 3167 0128 9742     		.uleb128 0x2117
 3168 012a 19       		.uleb128 0x19
 3169 012b 01       		.uleb128 0x1
 3170 012c 13       		.uleb128 0x13
 3171 012d 00       		.byte	0
 3172 012e 00       		.byte	0
 3173 012f 18       		.uleb128 0x18
 3174 0130 1D       		.uleb128 0x1d
 3175 0131 01       		.byte	0x1
 3176 0132 31       		.uleb128 0x31
 3177 0133 13       		.uleb128 0x13
 3178 0134 11       		.uleb128 0x11
 3179 0135 01       		.uleb128 0x1
 3180 0136 12       		.uleb128 0x12
 3181 0137 06       		.uleb128 0x6
 3182 0138 58       		.uleb128 0x58
 3183 0139 0B       		.uleb128 0xb
 3184 013a 59       		.uleb128 0x59
 3185 013b 0B       		.uleb128 0xb
 3186 013c 01       		.uleb128 0x1
 3187 013d 13       		.uleb128 0x13
 3188 013e 00       		.byte	0
 3189 013f 00       		.byte	0
 3190 0140 19       		.uleb128 0x19
 3191 0141 1D       		.uleb128 0x1d
 3192 0142 01       		.byte	0x1
 3193 0143 31       		.uleb128 0x31
 3194 0144 13       		.uleb128 0x13
 3195 0145 52       		.uleb128 0x52
 3196 0146 01       		.uleb128 0x1
 3197 0147 55       		.uleb128 0x55
 3198 0148 17       		.uleb128 0x17
 3199 0149 58       		.uleb128 0x58
 3200 014a 0B       		.uleb128 0xb
 3201 014b 59       		.uleb128 0x59
 3202 014c 0B       		.uleb128 0xb
 3203 014d 01       		.uleb128 0x1
 3204 014e 13       		.uleb128 0x13
 3205 014f 00       		.byte	0
 3206 0150 00       		.byte	0
 3207 0151 1A       		.uleb128 0x1a
 3208 0152 8A8201   		.uleb128 0x410a
 3209 0155 00       		.byte	0
 3210 0156 31       		.uleb128 0x31
 3211 0157 13       		.uleb128 0x13
 3212 0158 9142     		.uleb128 0x2111
 3213 015a 18       		.uleb128 0x18
 3214 015b 00       		.byte	0
 3215 015c 00       		.byte	0
 3216 015d 1B       		.uleb128 0x1b
 3217 015e 34       		.uleb128 0x34
 3218 015f 00       		.byte	0
 3219 0160 03       		.uleb128 0x3
 3220 0161 0E       		.uleb128 0xe
 3221 0162 3A       		.uleb128 0x3a
 3222 0163 0B       		.uleb128 0xb
ARM GAS  C:\Users\emman\AppData\Local\Temp\ccNpJWxM.s 			page 95


 3223 0164 3B       		.uleb128 0x3b
 3224 0165 0B       		.uleb128 0xb
 3225 0166 49       		.uleb128 0x49
 3226 0167 13       		.uleb128 0x13
 3227 0168 00       		.byte	0
 3228 0169 00       		.byte	0
 3229 016a 1C       		.uleb128 0x1c
 3230 016b 34       		.uleb128 0x34
 3231 016c 00       		.byte	0
 3232 016d 03       		.uleb128 0x3
 3233 016e 0E       		.uleb128 0xe
 3234 016f 3A       		.uleb128 0x3a
 3235 0170 0B       		.uleb128 0xb
 3236 0171 3B       		.uleb128 0x3b
 3237 0172 0B       		.uleb128 0xb
 3238 0173 49       		.uleb128 0x49
 3239 0174 13       		.uleb128 0x13
 3240 0175 02       		.uleb128 0x2
 3241 0176 17       		.uleb128 0x17
 3242 0177 00       		.byte	0
 3243 0178 00       		.byte	0
 3244 0179 1D       		.uleb128 0x1d
 3245 017a 898201   		.uleb128 0x4109
 3246 017d 00       		.byte	0
 3247 017e 11       		.uleb128 0x11
 3248 017f 01       		.uleb128 0x1
 3249 0180 9542     		.uleb128 0x2115
 3250 0182 19       		.uleb128 0x19
 3251 0183 31       		.uleb128 0x31
 3252 0184 13       		.uleb128 0x13
 3253 0185 00       		.byte	0
 3254 0186 00       		.byte	0
 3255 0187 1E       		.uleb128 0x1e
 3256 0188 2E       		.uleb128 0x2e
 3257 0189 01       		.byte	0x1
 3258 018a 3F       		.uleb128 0x3f
 3259 018b 19       		.uleb128 0x19
 3260 018c 03       		.uleb128 0x3
 3261 018d 0E       		.uleb128 0xe
 3262 018e 3A       		.uleb128 0x3a
 3263 018f 0B       		.uleb128 0xb
 3264 0190 3B       		.uleb128 0x3b
 3265 0191 05       		.uleb128 0x5
 3266 0192 27       		.uleb128 0x27
 3267 0193 19       		.uleb128 0x19
 3268 0194 11       		.uleb128 0x11
 3269 0195 01       		.uleb128 0x1
 3270 0196 12       		.uleb128 0x12
 3271 0197 06       		.uleb128 0x6
 3272 0198 40       		.uleb128 0x40
 3273 0199 18       		.uleb128 0x18
 3274 019a 9742     		.uleb128 0x2117
 3275 019c 19       		.uleb128 0x19
 3276 019d 01       		.uleb128 0x1
 3277 019e 13       		.uleb128 0x13
 3278 019f 00       		.byte	0
 3279 01a0 00       		.byte	0
ARM GAS  C:\Users\emman\AppData\Local\Temp\ccNpJWxM.s 			page 96


 3280 01a1 1F       		.uleb128 0x1f
 3281 01a2 34       		.uleb128 0x34
 3282 01a3 00       		.byte	0
 3283 01a4 03       		.uleb128 0x3
 3284 01a5 0E       		.uleb128 0xe
 3285 01a6 3A       		.uleb128 0x3a
 3286 01a7 0B       		.uleb128 0xb
 3287 01a8 3B       		.uleb128 0x3b
 3288 01a9 05       		.uleb128 0x5
 3289 01aa 49       		.uleb128 0x49
 3290 01ab 13       		.uleb128 0x13
 3291 01ac 02       		.uleb128 0x2
 3292 01ad 17       		.uleb128 0x17
 3293 01ae 00       		.byte	0
 3294 01af 00       		.byte	0
 3295 01b0 20       		.uleb128 0x20
 3296 01b1 05       		.uleb128 0x5
 3297 01b2 00       		.byte	0
 3298 01b3 03       		.uleb128 0x3
 3299 01b4 0E       		.uleb128 0xe
 3300 01b5 3A       		.uleb128 0x3a
 3301 01b6 0B       		.uleb128 0xb
 3302 01b7 3B       		.uleb128 0x3b
 3303 01b8 05       		.uleb128 0x5
 3304 01b9 49       		.uleb128 0x49
 3305 01ba 13       		.uleb128 0x13
 3306 01bb 02       		.uleb128 0x2
 3307 01bc 17       		.uleb128 0x17
 3308 01bd 00       		.byte	0
 3309 01be 00       		.byte	0
 3310 01bf 21       		.uleb128 0x21
 3311 01c0 2E       		.uleb128 0x2e
 3312 01c1 01       		.byte	0x1
 3313 01c2 3F       		.uleb128 0x3f
 3314 01c3 19       		.uleb128 0x19
 3315 01c4 03       		.uleb128 0x3
 3316 01c5 0E       		.uleb128 0xe
 3317 01c6 3A       		.uleb128 0x3a
 3318 01c7 0B       		.uleb128 0xb
 3319 01c8 3B       		.uleb128 0x3b
 3320 01c9 05       		.uleb128 0x5
 3321 01ca 27       		.uleb128 0x27
 3322 01cb 19       		.uleb128 0x19
 3323 01cc 49       		.uleb128 0x49
 3324 01cd 13       		.uleb128 0x13
 3325 01ce 11       		.uleb128 0x11
 3326 01cf 01       		.uleb128 0x1
 3327 01d0 12       		.uleb128 0x12
 3328 01d1 06       		.uleb128 0x6
 3329 01d2 40       		.uleb128 0x40
 3330 01d3 18       		.uleb128 0x18
 3331 01d4 9642     		.uleb128 0x2116
 3332 01d6 19       		.uleb128 0x19
 3333 01d7 01       		.uleb128 0x1
 3334 01d8 13       		.uleb128 0x13
 3335 01d9 00       		.byte	0
 3336 01da 00       		.byte	0
ARM GAS  C:\Users\emman\AppData\Local\Temp\ccNpJWxM.s 			page 97


 3337 01db 22       		.uleb128 0x22
 3338 01dc 2E       		.uleb128 0x2e
 3339 01dd 01       		.byte	0x1
 3340 01de 3F       		.uleb128 0x3f
 3341 01df 19       		.uleb128 0x19
 3342 01e0 03       		.uleb128 0x3
 3343 01e1 0E       		.uleb128 0xe
 3344 01e2 3A       		.uleb128 0x3a
 3345 01e3 0B       		.uleb128 0xb
 3346 01e4 3B       		.uleb128 0x3b
 3347 01e5 05       		.uleb128 0x5
 3348 01e6 27       		.uleb128 0x27
 3349 01e7 19       		.uleb128 0x19
 3350 01e8 49       		.uleb128 0x49
 3351 01e9 13       		.uleb128 0x13
 3352 01ea 11       		.uleb128 0x11
 3353 01eb 01       		.uleb128 0x1
 3354 01ec 12       		.uleb128 0x12
 3355 01ed 06       		.uleb128 0x6
 3356 01ee 40       		.uleb128 0x40
 3357 01ef 18       		.uleb128 0x18
 3358 01f0 9742     		.uleb128 0x2117
 3359 01f2 19       		.uleb128 0x19
 3360 01f3 01       		.uleb128 0x1
 3361 01f4 13       		.uleb128 0x13
 3362 01f5 00       		.byte	0
 3363 01f6 00       		.byte	0
 3364 01f7 23       		.uleb128 0x23
 3365 01f8 2E       		.uleb128 0x2e
 3366 01f9 00       		.byte	0
 3367 01fa 3F       		.uleb128 0x3f
 3368 01fb 19       		.uleb128 0x19
 3369 01fc 03       		.uleb128 0x3
 3370 01fd 0E       		.uleb128 0xe
 3371 01fe 3A       		.uleb128 0x3a
 3372 01ff 0B       		.uleb128 0xb
 3373 0200 3B       		.uleb128 0x3b
 3374 0201 05       		.uleb128 0x5
 3375 0202 27       		.uleb128 0x27
 3376 0203 19       		.uleb128 0x19
 3377 0204 11       		.uleb128 0x11
 3378 0205 01       		.uleb128 0x1
 3379 0206 12       		.uleb128 0x12
 3380 0207 06       		.uleb128 0x6
 3381 0208 40       		.uleb128 0x40
 3382 0209 18       		.uleb128 0x18
 3383 020a 9742     		.uleb128 0x2117
 3384 020c 19       		.uleb128 0x19
 3385 020d 00       		.byte	0
 3386 020e 00       		.byte	0
 3387 020f 24       		.uleb128 0x24
 3388 0210 34       		.uleb128 0x34
 3389 0211 00       		.byte	0
 3390 0212 03       		.uleb128 0x3
 3391 0213 0E       		.uleb128 0xe
 3392 0214 3A       		.uleb128 0x3a
 3393 0215 0B       		.uleb128 0xb
ARM GAS  C:\Users\emman\AppData\Local\Temp\ccNpJWxM.s 			page 98


 3394 0216 3B       		.uleb128 0x3b
 3395 0217 05       		.uleb128 0x5
 3396 0218 49       		.uleb128 0x49
 3397 0219 13       		.uleb128 0x13
 3398 021a 02       		.uleb128 0x2
 3399 021b 18       		.uleb128 0x18
 3400 021c 00       		.byte	0
 3401 021d 00       		.byte	0
 3402 021e 25       		.uleb128 0x25
 3403 021f 05       		.uleb128 0x5
 3404 0220 00       		.byte	0
 3405 0221 03       		.uleb128 0x3
 3406 0222 0E       		.uleb128 0xe
 3407 0223 3A       		.uleb128 0x3a
 3408 0224 0B       		.uleb128 0xb
 3409 0225 3B       		.uleb128 0x3b
 3410 0226 05       		.uleb128 0x5
 3411 0227 49       		.uleb128 0x49
 3412 0228 13       		.uleb128 0x13
 3413 0229 02       		.uleb128 0x2
 3414 022a 18       		.uleb128 0x18
 3415 022b 00       		.byte	0
 3416 022c 00       		.byte	0
 3417 022d 26       		.uleb128 0x26
 3418 022e 01       		.uleb128 0x1
 3419 022f 01       		.byte	0x1
 3420 0230 49       		.uleb128 0x49
 3421 0231 13       		.uleb128 0x13
 3422 0232 01       		.uleb128 0x1
 3423 0233 13       		.uleb128 0x13
 3424 0234 00       		.byte	0
 3425 0235 00       		.byte	0
 3426 0236 27       		.uleb128 0x27
 3427 0237 21       		.uleb128 0x21
 3428 0238 00       		.byte	0
 3429 0239 49       		.uleb128 0x49
 3430 023a 13       		.uleb128 0x13
 3431 023b 2F       		.uleb128 0x2f
 3432 023c 0B       		.uleb128 0xb
 3433 023d 00       		.byte	0
 3434 023e 00       		.byte	0
 3435 023f 28       		.uleb128 0x28
 3436 0240 34       		.uleb128 0x34
 3437 0241 00       		.byte	0
 3438 0242 03       		.uleb128 0x3
 3439 0243 0E       		.uleb128 0xe
 3440 0244 3A       		.uleb128 0x3a
 3441 0245 0B       		.uleb128 0xb
 3442 0246 3B       		.uleb128 0x3b
 3443 0247 0B       		.uleb128 0xb
 3444 0248 49       		.uleb128 0x49
 3445 0249 13       		.uleb128 0x13
 3446 024a 02       		.uleb128 0x2
 3447 024b 18       		.uleb128 0x18
 3448 024c 00       		.byte	0
 3449 024d 00       		.byte	0
 3450 024e 29       		.uleb128 0x29
ARM GAS  C:\Users\emman\AppData\Local\Temp\ccNpJWxM.s 			page 99


 3451 024f 34       		.uleb128 0x34
 3452 0250 00       		.byte	0
 3453 0251 03       		.uleb128 0x3
 3454 0252 0E       		.uleb128 0xe
 3455 0253 3A       		.uleb128 0x3a
 3456 0254 0B       		.uleb128 0xb
 3457 0255 3B       		.uleb128 0x3b
 3458 0256 0B       		.uleb128 0xb
 3459 0257 49       		.uleb128 0x49
 3460 0258 13       		.uleb128 0x13
 3461 0259 3F       		.uleb128 0x3f
 3462 025a 19       		.uleb128 0x19
 3463 025b 02       		.uleb128 0x2
 3464 025c 18       		.uleb128 0x18
 3465 025d 00       		.byte	0
 3466 025e 00       		.byte	0
 3467 025f 2A       		.uleb128 0x2a
 3468 0260 2E       		.uleb128 0x2e
 3469 0261 00       		.byte	0
 3470 0262 3F       		.uleb128 0x3f
 3471 0263 19       		.uleb128 0x19
 3472 0264 3C       		.uleb128 0x3c
 3473 0265 19       		.uleb128 0x19
 3474 0266 6E       		.uleb128 0x6e
 3475 0267 0E       		.uleb128 0xe
 3476 0268 03       		.uleb128 0x3
 3477 0269 0E       		.uleb128 0xe
 3478 026a 3A       		.uleb128 0x3a
 3479 026b 0B       		.uleb128 0xb
 3480 026c 3B       		.uleb128 0x3b
 3481 026d 0B       		.uleb128 0xb
 3482 026e 00       		.byte	0
 3483 026f 00       		.byte	0
 3484 0270 00       		.byte	0
 3485              		.section	.debug_loc,"",%progbits
 3486              	.Ldebug_loc0:
 3487              	.LLST0:
 3488 0000 6A000000 		.4byte	.LVL1
 3489 0004 A6000000 		.4byte	.LVL5
 3490 0008 0300     		.2byte	0x3
 3491 000a 08       		.byte	0x8
 3492 000b 52       		.byte	0x52
 3493 000c 9F       		.byte	0x9f
 3494 000d 00000000 		.4byte	0
 3495 0011 00000000 		.4byte	0
 3496              	.LLST1:
 3497 0015 70000000 		.4byte	.LVL3
 3498 0019 A6000000 		.4byte	.LVL5
 3499 001d 0100     		.2byte	0x1
 3500 001f 5A       		.byte	0x5a
 3501 0020 00000000 		.4byte	0
 3502 0024 00000000 		.4byte	0
 3503              	.LLST2:
 3504 0028 5E000000 		.4byte	.LVL13
 3505 002c 68000000 		.4byte	.LVL14
 3506 0030 0200     		.2byte	0x2
 3507 0032 32       		.byte	0x32
ARM GAS  C:\Users\emman\AppData\Local\Temp\ccNpJWxM.s 			page 100


 3508 0033 9F       		.byte	0x9f
 3509 0034 00000000 		.4byte	0
 3510 0038 00000000 		.4byte	0
 3511              	.LLST3:
 3512 003c 5E000000 		.4byte	.LVL13
 3513 0040 68000000 		.4byte	.LVL14
 3514 0044 0400     		.2byte	0x4
 3515 0046 0B       		.byte	0xb
 3516 0047 6B8D     		.2byte	0x8d6b
 3517 0049 9F       		.byte	0x9f
 3518 004a 00000000 		.4byte	0
 3519 004e 00000000 		.4byte	0
 3520              	.LLST4:
 3521 0052 5E000000 		.4byte	.LVL13
 3522 0056 68000000 		.4byte	.LVL14
 3523 005a 0400     		.2byte	0x4
 3524 005c 0B       		.byte	0xb
 3525 005d 0080     		.2byte	0x8000
 3526 005f 9F       		.byte	0x9f
 3527 0060 00000000 		.4byte	0
 3528 0064 00000000 		.4byte	0
 3529              	.LLST5:
 3530 0068 5E000000 		.4byte	.LVL13
 3531 006c 68000000 		.4byte	.LVL14
 3532 0070 0200     		.2byte	0x2
 3533 0072 3C       		.byte	0x3c
 3534 0073 9F       		.byte	0x9f
 3535 0074 00000000 		.4byte	0
 3536 0078 00000000 		.4byte	0
 3537              	.LLST6:
 3538 007c 5E000000 		.4byte	.LVL13
 3539 0080 68000000 		.4byte	.LVL14
 3540 0084 0200     		.2byte	0x2
 3541 0086 31       		.byte	0x31
 3542 0087 9F       		.byte	0x9f
 3543 0088 00000000 		.4byte	0
 3544 008c 00000000 		.4byte	0
 3545              	.LLST7:
 3546 0090 5E000000 		.4byte	.LVL13
 3547 0094 68000000 		.4byte	.LVL14
 3548 0098 0200     		.2byte	0x2
 3549 009a 30       		.byte	0x30
 3550 009b 9F       		.byte	0x9f
 3551 009c 00000000 		.4byte	0
 3552 00a0 00000000 		.4byte	0
 3553              	.LLST8:
 3554 00a4 5E000000 		.4byte	.LVL13
 3555 00a8 68000000 		.4byte	.LVL14
 3556 00ac 0400     		.2byte	0x4
 3557 00ae 0A       		.byte	0xa
 3558 00af 6B8D     		.2byte	0x8d6b
 3559 00b1 9F       		.byte	0x9f
 3560 00b2 00000000 		.4byte	0
 3561 00b6 00000000 		.4byte	0
 3562              	.LLST9:
 3563 00ba 5E000000 		.4byte	.LVL13
 3564 00be 68000000 		.4byte	.LVL14
ARM GAS  C:\Users\emman\AppData\Local\Temp\ccNpJWxM.s 			page 101


 3565 00c2 0400     		.2byte	0x4
 3566 00c4 0A       		.byte	0xa
 3567 00c5 5A23     		.2byte	0x235a
 3568 00c7 9F       		.byte	0x9f
 3569 00c8 00000000 		.4byte	0
 3570 00cc 00000000 		.4byte	0
 3571              	.LLST10:
 3572 00d0 5E000000 		.4byte	.LVL13
 3573 00d4 68000000 		.4byte	.LVL14
 3574 00d8 0600     		.2byte	0x6
 3575 00da 0C       		.byte	0xc
 3576 00db 0080B546 		.4byte	0x46b58000
 3577 00df 9F       		.byte	0x9f
 3578 00e0 00000000 		.4byte	0
 3579 00e4 00000000 		.4byte	0
 3580              	.LLST11:
 3581 00e8 82000000 		.4byte	.LVL15
 3582 00ec 8F000000 		.4byte	.LVL16-1
 3583 00f0 0100     		.2byte	0x1
 3584 00f2 53       		.byte	0x53
 3585 00f3 90000000 		.4byte	.LVL16
 3586 00f7 B0000000 		.4byte	.LFE0
 3587 00fb 0100     		.2byte	0x1
 3588 00fd 53       		.byte	0x53
 3589 00fe 00000000 		.4byte	0
 3590 0102 00000000 		.4byte	0
 3591              	.LLST12:
 3592 0106 14000000 		.4byte	.LVL18
 3593 010a A8000000 		.4byte	.LVL20
 3594 010e 0100     		.2byte	0x1
 3595 0110 56       		.byte	0x56
 3596 0111 00000000 		.4byte	0
 3597 0115 00000000 		.4byte	0
 3598              	.LLST13:
 3599 0119 18000000 		.4byte	.LVL25
 3600 011d C6000000 		.4byte	.LVL27
 3601 0121 0100     		.2byte	0x1
 3602 0123 56       		.byte	0x56
 3603 0124 00000000 		.4byte	0
 3604 0128 00000000 		.4byte	0
 3605              	.LLST14:
 3606 012c 00000000 		.4byte	.LVL29
 3607 0130 04000000 		.4byte	.LVL30
 3608 0134 0100     		.2byte	0x1
 3609 0136 50       		.byte	0x50
 3610 0137 04000000 		.4byte	.LVL30
 3611 013b 18000000 		.4byte	.LFE4
 3612 013f 0400     		.2byte	0x4
 3613 0141 F3       		.byte	0xf3
 3614 0142 01       		.uleb128 0x1
 3615 0143 50       		.byte	0x50
 3616 0144 9F       		.byte	0x9f
 3617 0145 00000000 		.4byte	0
 3618 0149 00000000 		.4byte	0
 3619              	.LLST15:
 3620 014d 0E000000 		.4byte	.LVL31
 3621 0151 10000000 		.4byte	.LVL32
ARM GAS  C:\Users\emman\AppData\Local\Temp\ccNpJWxM.s 			page 102


 3622 0155 0100     		.2byte	0x1
 3623 0157 53       		.byte	0x53
 3624 0158 10000000 		.4byte	.LVL32
 3625 015c 18000000 		.4byte	.LFE4
 3626 0160 0100     		.2byte	0x1
 3627 0162 50       		.byte	0x50
 3628 0163 00000000 		.4byte	0
 3629 0167 00000000 		.4byte	0
 3630              	.LLST16:
 3631 016b 00000000 		.4byte	.LVL33
 3632 016f 06000000 		.4byte	.LVL34
 3633 0173 0100     		.2byte	0x1
 3634 0175 50       		.byte	0x50
 3635 0176 06000000 		.4byte	.LVL34
 3636 017a 18000000 		.4byte	.LFE5
 3637 017e 0400     		.2byte	0x4
 3638 0180 F3       		.byte	0xf3
 3639 0181 01       		.uleb128 0x1
 3640 0182 50       		.byte	0x50
 3641 0183 9F       		.byte	0x9f
 3642 0184 00000000 		.4byte	0
 3643 0188 00000000 		.4byte	0
 3644              	.LLST17:
 3645 018c 0C000000 		.4byte	.LVL35
 3646 0190 0E000000 		.4byte	.LVL36
 3647 0194 0100     		.2byte	0x1
 3648 0196 53       		.byte	0x53
 3649 0197 0E000000 		.4byte	.LVL36
 3650 019b 18000000 		.4byte	.LFE5
 3651 019f 0100     		.2byte	0x1
 3652 01a1 50       		.byte	0x50
 3653 01a2 00000000 		.4byte	0
 3654 01a6 00000000 		.4byte	0
 3655              	.LLST18:
 3656 01aa 00000000 		.4byte	.LVL37
 3657 01ae 12000000 		.4byte	.LVL40
 3658 01b2 0100     		.2byte	0x1
 3659 01b4 50       		.byte	0x50
 3660 01b5 12000000 		.4byte	.LVL40
 3661 01b9 36000000 		.4byte	.LVL47
 3662 01bd 0100     		.2byte	0x1
 3663 01bf 54       		.byte	0x54
 3664 01c0 36000000 		.4byte	.LVL47
 3665 01c4 74000000 		.4byte	.LFE6
 3666 01c8 0600     		.2byte	0x6
 3667 01ca F3       		.byte	0xf3
 3668 01cb 03       		.uleb128 0x3
 3669 01cc F5       		.byte	0xf5
 3670 01cd 00       		.uleb128 0
 3671 01ce 25       		.uleb128 0x25
 3672 01cf 9F       		.byte	0x9f
 3673 01d0 00000000 		.4byte	0
 3674 01d4 00000000 		.4byte	0
 3675              	.LLST19:
 3676 01d8 0A000000 		.4byte	.LVL38
 3677 01dc 0E000000 		.4byte	.LVL39
 3678 01e0 0A00     		.2byte	0xa
ARM GAS  C:\Users\emman\AppData\Local\Temp\ccNpJWxM.s 			page 103


 3679 01e2 73       		.byte	0x73
 3680 01e3 7F       		.sleb128 -1
 3681 01e4 32       		.byte	0x32
 3682 01e5 24       		.byte	0x24
 3683 01e6 03       		.byte	0x3
 3684 01e7 02000000 		.4byte	Touch_ADC_gcor
 3685 01eb 22       		.byte	0x22
 3686 01ec 4A000000 		.4byte	.LVL51
 3687 01f0 58000000 		.4byte	.LVL53
 3688 01f4 0100     		.2byte	0x1
 3689 01f6 50       		.byte	0x50
 3690 01f7 58000000 		.4byte	.LVL53
 3691 01fb 5A000000 		.4byte	.LVL54
 3692 01ff 0200     		.2byte	0x2
 3693 0201 75       		.byte	0x75
 3694 0202 7E       		.sleb128 -2
 3695 0203 00000000 		.4byte	0
 3696 0207 00000000 		.4byte	0
 3697              	.LLST20:
 3698 020b 56000000 		.4byte	.LVL52
 3699 020f 5A000000 		.4byte	.LVL54
 3700 0213 0200     		.2byte	0x2
 3701 0215 30       		.byte	0x30
 3702 0216 9F       		.byte	0x9f
 3703 0217 5C000000 		.4byte	.LVL55
 3704 021b 74000000 		.4byte	.LFE6
 3705 021f 0100     		.2byte	0x1
 3706 0221 50       		.byte	0x50
 3707 0222 00000000 		.4byte	0
 3708 0226 00000000 		.4byte	0
 3709              	.LLST21:
 3710 022a 1E000000 		.4byte	.LVL42
 3711 022e 23000000 		.4byte	.LVL43-1
 3712 0232 0100     		.2byte	0x1
 3713 0234 50       		.byte	0x50
 3714 0235 26000000 		.4byte	.LVL44
 3715 0239 29000000 		.4byte	.LVL45-1
 3716 023d 0100     		.2byte	0x1
 3717 023f 50       		.byte	0x50
 3718 0240 29000000 		.4byte	.LVL45-1
 3719 0244 38000000 		.4byte	.LVL48
 3720 0248 0100     		.2byte	0x1
 3721 024a 57       		.byte	0x57
 3722 024b 38000000 		.4byte	.LVL48
 3723 024f 5A000000 		.4byte	.LVL54
 3724 0253 0C00     		.2byte	0xc
 3725 0255 F5       		.byte	0xf5
 3726 0256 07       		.uleb128 0x7
 3727 0257 25       		.uleb128 0x25
 3728 0258 F4       		.byte	0xf4
 3729 0259 25       		.uleb128 0x25
 3730 025a 04       		.byte	0x4
 3731 025b 00000047 		.4byte	0x47000000
 3732 025f 1E       		.byte	0x1e
 3733 0260 9F       		.byte	0x9f
 3734 0261 5A000000 		.4byte	.LVL54
 3735 0265 5E000000 		.4byte	.LVL56
ARM GAS  C:\Users\emman\AppData\Local\Temp\ccNpJWxM.s 			page 104


 3736 0269 0100     		.2byte	0x1
 3737 026b 57       		.byte	0x57
 3738 026c 00000000 		.4byte	0
 3739 0270 00000000 		.4byte	0
 3740              	.LLST22:
 3741 0274 0A000000 		.4byte	.LVL57
 3742 0278 14000000 		.4byte	.LVL59
 3743 027c 0100     		.2byte	0x1
 3744 027e 53       		.byte	0x53
 3745 027f 00000000 		.4byte	0
 3746 0283 00000000 		.4byte	0
 3747              	.LLST23:
 3748 0287 0E000000 		.4byte	.LVL58
 3749 028b 16000000 		.4byte	.LVL60
 3750 028f 0100     		.2byte	0x1
 3751 0291 50       		.byte	0x50
 3752 0292 18000000 		.4byte	.LVL61
 3753 0296 24000000 		.4byte	.LFE7
 3754 029a 0100     		.2byte	0x1
 3755 029c 50       		.byte	0x50
 3756 029d 00000000 		.4byte	0
 3757 02a1 00000000 		.4byte	0
 3758              	.LLST24:
 3759 02a5 00000000 		.4byte	.LVL62
 3760 02a9 1E000000 		.4byte	.LVL66
 3761 02ad 0100     		.2byte	0x1
 3762 02af 50       		.byte	0x50
 3763 02b0 1E000000 		.4byte	.LVL66
 3764 02b4 28000000 		.4byte	.LFE10
 3765 02b8 0400     		.2byte	0x4
 3766 02ba F3       		.byte	0xf3
 3767 02bb 01       		.uleb128 0x1
 3768 02bc 50       		.byte	0x50
 3769 02bd 9F       		.byte	0x9f
 3770 02be 00000000 		.4byte	0
 3771 02c2 00000000 		.4byte	0
 3772              	.LLST25:
 3773 02c6 0C000000 		.4byte	.LVL63
 3774 02ca 0E000000 		.4byte	.LVL64
 3775 02ce 0100     		.2byte	0x1
 3776 02d0 53       		.byte	0x53
 3777 02d1 14000000 		.4byte	.LVL65
 3778 02d5 28000000 		.4byte	.LFE10
 3779 02d9 0100     		.2byte	0x1
 3780 02db 53       		.byte	0x53
 3781 02dc 00000000 		.4byte	0
 3782 02e0 00000000 		.4byte	0
 3783              	.LLST26:
 3784 02e4 0C000000 		.4byte	.LVL67
 3785 02e8 14000000 		.4byte	.LVL69
 3786 02ec 0100     		.2byte	0x1
 3787 02ee 53       		.byte	0x53
 3788 02ef 16000000 		.4byte	.LVL70
 3789 02f3 1C000000 		.4byte	.LVL71
 3790 02f7 0100     		.2byte	0x1
 3791 02f9 53       		.byte	0x53
 3792 02fa 00000000 		.4byte	0
ARM GAS  C:\Users\emman\AppData\Local\Temp\ccNpJWxM.s 			page 105


 3793 02fe 00000000 		.4byte	0
 3794              	.LLST27:
 3795 0302 12000000 		.4byte	.LVL73
 3796 0306 14000000 		.4byte	.LVL74
 3797 030a 0100     		.2byte	0x1
 3798 030c 50       		.byte	0x50
 3799 030d 18000000 		.4byte	.LVL75
 3800 0311 20000000 		.4byte	.LVL76
 3801 0315 0100     		.2byte	0x1
 3802 0317 53       		.byte	0x53
 3803 0318 20000000 		.4byte	.LVL76
 3804 031c 44000000 		.4byte	.LFE12
 3805 0320 0100     		.2byte	0x1
 3806 0322 50       		.byte	0x50
 3807 0323 00000000 		.4byte	0
 3808 0327 00000000 		.4byte	0
 3809              	.LLST28:
 3810 032b 0A000000 		.4byte	.LVL72
 3811 032f 2A000000 		.4byte	.LVL77
 3812 0333 0100     		.2byte	0x1
 3813 0335 52       		.byte	0x52
 3814 0336 00000000 		.4byte	0
 3815 033a 00000000 		.4byte	0
 3816              	.LLST29:
 3817 033e 12000000 		.4byte	.LVL79
 3818 0342 18000000 		.4byte	.LVL80
 3819 0346 0700     		.2byte	0x7
 3820 0348 73       		.byte	0x73
 3821 0349 00       		.sleb128 0
 3822 034a 0A       		.byte	0xa
 3823 034b FFFF     		.2byte	0xffff
 3824 034d 1A       		.byte	0x1a
 3825 034e 9F       		.byte	0x9f
 3826 034f 20000000 		.4byte	.LVL82
 3827 0353 22000000 		.4byte	.LVL83
 3828 0357 0700     		.2byte	0x7
 3829 0359 70       		.byte	0x70
 3830 035a 00       		.sleb128 0
 3831 035b 0A       		.byte	0xa
 3832 035c FFFF     		.2byte	0xffff
 3833 035e 1A       		.byte	0x1a
 3834 035f 9F       		.byte	0x9f
 3835 0360 22000000 		.4byte	.LVL83
 3836 0364 2A000000 		.4byte	.LVL84
 3837 0368 0C00     		.2byte	0xc
 3838 036a 70       		.byte	0x70
 3839 036b 00       		.sleb128 0
 3840 036c 0A       		.byte	0xa
 3841 036d FFFF     		.2byte	0xffff
 3842 036f 1A       		.byte	0x1a
 3843 0370 40       		.byte	0x40
 3844 0371 24       		.byte	0x24
 3845 0372 72       		.byte	0x72
 3846 0373 00       		.sleb128 0
 3847 0374 21       		.byte	0x21
 3848 0375 9F       		.byte	0x9f
 3849 0376 2C000000 		.4byte	.LVL85
ARM GAS  C:\Users\emman\AppData\Local\Temp\ccNpJWxM.s 			page 106


 3850 037a 2E000000 		.4byte	.LVL86
 3851 037e 0100     		.2byte	0x1
 3852 0380 50       		.byte	0x50
 3853 0381 38000000 		.4byte	.LVL89
 3854 0385 58000000 		.4byte	.LFE13
 3855 0389 0100     		.2byte	0x1
 3856 038b 50       		.byte	0x50
 3857 038c 00000000 		.4byte	0
 3858 0390 00000000 		.4byte	0
 3859              	.LLST30:
 3860 0394 0C000000 		.4byte	.LVL78
 3861 0398 12000000 		.4byte	.LVL79
 3862 039c 0100     		.2byte	0x1
 3863 039e 53       		.byte	0x53
 3864 039f 18000000 		.4byte	.LVL80
 3865 03a3 1E000000 		.4byte	.LVL81
 3866 03a7 0100     		.2byte	0x1
 3867 03a9 53       		.byte	0x53
 3868 03aa 2E000000 		.4byte	.LVL86
 3869 03ae 32000000 		.4byte	.LVL87
 3870 03b2 0100     		.2byte	0x1
 3871 03b4 53       		.byte	0x53
 3872 03b5 00000000 		.4byte	0
 3873 03b9 00000000 		.4byte	0
 3874              	.LLST31:
 3875 03bd 00000000 		.4byte	.LVL92
 3876 03c1 06000000 		.4byte	.LVL93
 3877 03c5 0100     		.2byte	0x1
 3878 03c7 50       		.byte	0x50
 3879 03c8 06000000 		.4byte	.LVL93
 3880 03cc 0A000000 		.4byte	.LVL95
 3881 03d0 0600     		.2byte	0x6
 3882 03d2 70       		.byte	0x70
 3883 03d3 00       		.sleb128 0
 3884 03d4 73       		.byte	0x73
 3885 03d5 00       		.sleb128 0
 3886 03d6 1C       		.byte	0x1c
 3887 03d7 9F       		.byte	0x9f
 3888 03d8 0A000000 		.4byte	.LVL95
 3889 03dc 10000000 		.4byte	.LVL97
 3890 03e0 0100     		.2byte	0x1
 3891 03e2 50       		.byte	0x50
 3892 03e3 00000000 		.4byte	0
 3893 03e7 00000000 		.4byte	0
 3894              	.LLST32:
 3895 03eb 08000000 		.4byte	.LVL94
 3896 03ef 0A000000 		.4byte	.LVL95
 3897 03f3 0D00     		.2byte	0xd
 3898 03f5 70       		.byte	0x70
 3899 03f6 00       		.sleb128 0
 3900 03f7 73       		.byte	0x73
 3901 03f8 00       		.sleb128 0
 3902 03f9 1C       		.byte	0x1c
 3903 03fa 0A       		.byte	0xa
 3904 03fb E803     		.2byte	0x3e8
 3905 03fd 1E       		.byte	0x1e
 3906 03fe 72       		.byte	0x72
ARM GAS  C:\Users\emman\AppData\Local\Temp\ccNpJWxM.s 			page 107


 3907 03ff 00       		.sleb128 0
 3908 0400 1B       		.byte	0x1b
 3909 0401 9F       		.byte	0x9f
 3910 0402 0A000000 		.4byte	.LVL95
 3911 0406 0E000000 		.4byte	.LVL96
 3912 040a 0E00     		.2byte	0xe
 3913 040c F3       		.byte	0xf3
 3914 040d 01       		.uleb128 0x1
 3915 040e 50       		.byte	0x50
 3916 040f 73       		.byte	0x73
 3917 0410 00       		.sleb128 0
 3918 0411 1C       		.byte	0x1c
 3919 0412 0A       		.byte	0xa
 3920 0413 E803     		.2byte	0x3e8
 3921 0415 1E       		.byte	0x1e
 3922 0416 72       		.byte	0x72
 3923 0417 00       		.sleb128 0
 3924 0418 1B       		.byte	0x1b
 3925 0419 9F       		.byte	0x9f
 3926 041a 00000000 		.4byte	0
 3927 041e 00000000 		.4byte	0
 3928              	.LLST33:
 3929 0422 00000000 		.4byte	.LVL98
 3930 0426 08000000 		.4byte	.LVL99
 3931 042a 0100     		.2byte	0x1
 3932 042c 50       		.byte	0x50
 3933 042d 08000000 		.4byte	.LVL99
 3934 0431 0C000000 		.4byte	.LVL101
 3935 0435 0600     		.2byte	0x6
 3936 0437 70       		.byte	0x70
 3937 0438 00       		.sleb128 0
 3938 0439 73       		.byte	0x73
 3939 043a 00       		.sleb128 0
 3940 043b 1C       		.byte	0x1c
 3941 043c 9F       		.byte	0x9f
 3942 043d 0C000000 		.4byte	.LVL101
 3943 0441 0F000000 		.4byte	.LVL102-1
 3944 0445 0100     		.2byte	0x1
 3945 0447 50       		.byte	0x50
 3946 0448 00000000 		.4byte	0
 3947 044c 00000000 		.4byte	0
 3948              	.LLST34:
 3949 0450 0A000000 		.4byte	.LVL100
 3950 0454 0C000000 		.4byte	.LVL101
 3951 0458 1100     		.2byte	0x11
 3952 045a 70       		.byte	0x70
 3953 045b 00       		.sleb128 0
 3954 045c 73       		.byte	0x73
 3955 045d 00       		.sleb128 0
 3956 045e 1C       		.byte	0x1c
 3957 045f F7       		.byte	0xf7
 3958 0460 2C       		.uleb128 0x2c
 3959 0461 F7       		.byte	0xf7
 3960 0462 25       		.uleb128 0x25
 3961 0463 75       		.byte	0x75
 3962 0464 00       		.sleb128 0
 3963 0465 F7       		.byte	0xf7
ARM GAS  C:\Users\emman\AppData\Local\Temp\ccNpJWxM.s 			page 108


 3964 0466 2C       		.uleb128 0x2c
 3965 0467 F7       		.byte	0xf7
 3966 0468 25       		.uleb128 0x25
 3967 0469 1B       		.byte	0x1b
 3968 046a 9F       		.byte	0x9f
 3969 046b 0C000000 		.4byte	.LVL101
 3970 046f 0F000000 		.4byte	.LVL102-1
 3971 0473 1200     		.2byte	0x12
 3972 0475 F3       		.byte	0xf3
 3973 0476 01       		.uleb128 0x1
 3974 0477 50       		.byte	0x50
 3975 0478 73       		.byte	0x73
 3976 0479 00       		.sleb128 0
 3977 047a 1C       		.byte	0x1c
 3978 047b F7       		.byte	0xf7
 3979 047c 2C       		.uleb128 0x2c
 3980 047d F7       		.byte	0xf7
 3981 047e 25       		.uleb128 0x25
 3982 047f 75       		.byte	0x75
 3983 0480 00       		.sleb128 0
 3984 0481 F7       		.byte	0xf7
 3985 0482 2C       		.uleb128 0x2c
 3986 0483 F7       		.byte	0xf7
 3987 0484 25       		.uleb128 0x25
 3988 0485 1B       		.byte	0x1b
 3989 0486 9F       		.byte	0x9f
 3990 0487 00000000 		.4byte	0
 3991 048b 00000000 		.4byte	0
 3992              	.LLST35:
 3993 048f 00000000 		.4byte	.LVL105
 3994 0493 22000000 		.4byte	.LVL107
 3995 0497 0100     		.2byte	0x1
 3996 0499 50       		.byte	0x50
 3997 049a 22000000 		.4byte	.LVL107
 3998 049e 4C000000 		.4byte	.LFE18
 3999 04a2 0400     		.2byte	0x4
 4000 04a4 F3       		.byte	0xf3
 4001 04a5 01       		.uleb128 0x1
 4002 04a6 50       		.byte	0x50
 4003 04a7 9F       		.byte	0x9f
 4004 04a8 00000000 		.4byte	0
 4005 04ac 00000000 		.4byte	0
 4006              	.LLST36:
 4007 04b0 1E000000 		.4byte	.LVL106
 4008 04b4 32000000 		.4byte	.LVL109
 4009 04b8 0100     		.2byte	0x1
 4010 04ba 53       		.byte	0x53
 4011 04bb 00000000 		.4byte	0
 4012 04bf 00000000 		.4byte	0
 4013              	.LLST37:
 4014 04c3 00000000 		.4byte	.LVL110
 4015 04c7 19000000 		.4byte	.LVL111-1
 4016 04cb 0100     		.2byte	0x1
 4017 04cd 50       		.byte	0x50
 4018 04ce 19000000 		.4byte	.LVL111-1
 4019 04d2 4C000000 		.4byte	.LFE20
 4020 04d6 0400     		.2byte	0x4
ARM GAS  C:\Users\emman\AppData\Local\Temp\ccNpJWxM.s 			page 109


 4021 04d8 F3       		.byte	0xf3
 4022 04d9 01       		.uleb128 0x1
 4023 04da 50       		.byte	0x50
 4024 04db 9F       		.byte	0x9f
 4025 04dc 00000000 		.4byte	0
 4026 04e0 00000000 		.4byte	0
 4027              	.LLST38:
 4028 04e4 00000000 		.4byte	.LVL110
 4029 04e8 19000000 		.4byte	.LVL111-1
 4030 04ec 0100     		.2byte	0x1
 4031 04ee 51       		.byte	0x51
 4032 04ef 19000000 		.4byte	.LVL111-1
 4033 04f3 4C000000 		.4byte	.LFE20
 4034 04f7 0400     		.2byte	0x4
 4035 04f9 F3       		.byte	0xf3
 4036 04fa 01       		.uleb128 0x1
 4037 04fb 51       		.byte	0x51
 4038 04fc 9F       		.byte	0x9f
 4039 04fd 00000000 		.4byte	0
 4040 0501 00000000 		.4byte	0
 4041              	.LLST39:
 4042 0505 1A000000 		.4byte	.LVL111
 4043 0509 22000000 		.4byte	.LVL112
 4044 050d 0200     		.2byte	0x2
 4045 050f 31       		.byte	0x31
 4046 0510 9F       		.byte	0x9f
 4047 0511 00000000 		.4byte	0
 4048 0515 00000000 		.4byte	0
 4049              	.LLST40:
 4050 0519 1A000000 		.4byte	.LVL117
 4051 051d 1D000000 		.4byte	.LVL118-1
 4052 0521 0100     		.2byte	0x1
 4053 0523 50       		.byte	0x50
 4054 0524 00000000 		.4byte	0
 4055 0528 00000000 		.4byte	0
 4056              	.LLST41:
 4057 052c 1A000000 		.4byte	.LVL121
 4058 0530 1D000000 		.4byte	.LVL122-1
 4059 0534 0100     		.2byte	0x1
 4060 0536 50       		.byte	0x50
 4061 0537 00000000 		.4byte	0
 4062 053b 00000000 		.4byte	0
 4063              	.LLST42:
 4064 053f 1A000000 		.4byte	.LVL125
 4065 0543 1D000000 		.4byte	.LVL126-1
 4066 0547 0100     		.2byte	0x1
 4067 0549 50       		.byte	0x50
 4068 054a 00000000 		.4byte	0
 4069 054e 00000000 		.4byte	0
 4070              		.section	.debug_aranges,"",%progbits
 4071 0000 D4000000 		.4byte	0xd4
 4072 0004 0200     		.2byte	0x2
 4073 0006 00000000 		.4byte	.Ldebug_info0
 4074 000a 04       		.byte	0x4
 4075 000b 00       		.byte	0
 4076 000c 0000     		.2byte	0
 4077 000e 0000     		.2byte	0
ARM GAS  C:\Users\emman\AppData\Local\Temp\ccNpJWxM.s 			page 110


 4078 0010 00000000 		.4byte	.LFB26
 4079 0014 00010000 		.4byte	.LFE26-.LFB26
 4080 0018 00000000 		.4byte	.LFB0
 4081 001c B0000000 		.4byte	.LFE0-.LFB0
 4082 0020 00000000 		.4byte	.LFB1
 4083 0024 D0000000 		.4byte	.LFE1-.LFB1
 4084 0028 00000000 		.4byte	.LFB2
 4085 002c 20000000 		.4byte	.LFE2-.LFB2
 4086 0030 00000000 		.4byte	.LFB3
 4087 0034 E0000000 		.4byte	.LFE3-.LFB3
 4088 0038 00000000 		.4byte	.LFB4
 4089 003c 18000000 		.4byte	.LFE4-.LFB4
 4090 0040 00000000 		.4byte	.LFB5
 4091 0044 18000000 		.4byte	.LFE5-.LFB5
 4092 0048 00000000 		.4byte	.LFB6
 4093 004c 74000000 		.4byte	.LFE6-.LFB6
 4094 0050 00000000 		.4byte	.LFB7
 4095 0054 24000000 		.4byte	.LFE7-.LFB7
 4096 0058 00000000 		.4byte	.LFB8
 4097 005c 10000000 		.4byte	.LFE8-.LFB8
 4098 0060 00000000 		.4byte	.LFB9
 4099 0064 10000000 		.4byte	.LFE9-.LFB9
 4100 0068 00000000 		.4byte	.LFB10
 4101 006c 28000000 		.4byte	.LFE10-.LFB10
 4102 0070 00000000 		.4byte	.LFB11
 4103 0074 40000000 		.4byte	.LFE11-.LFB11
 4104 0078 00000000 		.4byte	.LFB12
 4105 007c 44000000 		.4byte	.LFE12-.LFB12
 4106 0080 00000000 		.4byte	.LFB13
 4107 0084 58000000 		.4byte	.LFE13-.LFB13
 4108 0088 00000000 		.4byte	.LFB14
 4109 008c 0C000000 		.4byte	.LFE14-.LFB14
 4110 0090 00000000 		.4byte	.LFB15
 4111 0094 0C000000 		.4byte	.LFE15-.LFB15
 4112 0098 00000000 		.4byte	.LFB16
 4113 009c 20000000 		.4byte	.LFE16-.LFB16
 4114 00a0 00000000 		.4byte	.LFB17
 4115 00a4 2C000000 		.4byte	.LFE17-.LFB17
 4116 00a8 00000000 		.4byte	.LFB18
 4117 00ac 4C000000 		.4byte	.LFE18-.LFB18
 4118 00b0 00000000 		.4byte	.LFB20
 4119 00b4 4C000000 		.4byte	.LFE20-.LFB20
 4120 00b8 00000000 		.4byte	.LFB23
 4121 00bc 24000000 		.4byte	.LFE23-.LFB23
 4122 00c0 00000000 		.4byte	.LFB24
 4123 00c4 24000000 		.4byte	.LFE24-.LFB24
 4124 00c8 00000000 		.4byte	.LFB25
 4125 00cc 24000000 		.4byte	.LFE25-.LFB25
 4126 00d0 00000000 		.4byte	0
 4127 00d4 00000000 		.4byte	0
 4128              		.section	.debug_ranges,"",%progbits
 4129              	.Ldebug_ranges0:
 4130 0000 82000000 		.4byte	.LBB12
 4131 0004 88000000 		.4byte	.LBE12
 4132 0008 8C000000 		.4byte	.LBB15
 4133 000c B0000000 		.4byte	.LBE15
 4134 0010 00000000 		.4byte	0
ARM GAS  C:\Users\emman\AppData\Local\Temp\ccNpJWxM.s 			page 111


 4135 0014 00000000 		.4byte	0
 4136 0018 00000000 		.4byte	.LFB26
 4137 001c 00010000 		.4byte	.LFE26
 4138 0020 00000000 		.4byte	.LFB0
 4139 0024 B0000000 		.4byte	.LFE0
 4140 0028 00000000 		.4byte	.LFB1
 4141 002c D0000000 		.4byte	.LFE1
 4142 0030 00000000 		.4byte	.LFB2
 4143 0034 20000000 		.4byte	.LFE2
 4144 0038 00000000 		.4byte	.LFB3
 4145 003c E0000000 		.4byte	.LFE3
 4146 0040 00000000 		.4byte	.LFB4
 4147 0044 18000000 		.4byte	.LFE4
 4148 0048 00000000 		.4byte	.LFB5
 4149 004c 18000000 		.4byte	.LFE5
 4150 0050 00000000 		.4byte	.LFB6
 4151 0054 74000000 		.4byte	.LFE6
 4152 0058 00000000 		.4byte	.LFB7
 4153 005c 24000000 		.4byte	.LFE7
 4154 0060 00000000 		.4byte	.LFB8
 4155 0064 10000000 		.4byte	.LFE8
 4156 0068 00000000 		.4byte	.LFB9
 4157 006c 10000000 		.4byte	.LFE9
 4158 0070 00000000 		.4byte	.LFB10
 4159 0074 28000000 		.4byte	.LFE10
 4160 0078 00000000 		.4byte	.LFB11
 4161 007c 40000000 		.4byte	.LFE11
 4162 0080 00000000 		.4byte	.LFB12
 4163 0084 44000000 		.4byte	.LFE12
 4164 0088 00000000 		.4byte	.LFB13
 4165 008c 58000000 		.4byte	.LFE13
 4166 0090 00000000 		.4byte	.LFB14
 4167 0094 0C000000 		.4byte	.LFE14
 4168 0098 00000000 		.4byte	.LFB15
 4169 009c 0C000000 		.4byte	.LFE15
 4170 00a0 00000000 		.4byte	.LFB16
 4171 00a4 20000000 		.4byte	.LFE16
 4172 00a8 00000000 		.4byte	.LFB17
 4173 00ac 2C000000 		.4byte	.LFE17
 4174 00b0 00000000 		.4byte	.LFB18
 4175 00b4 4C000000 		.4byte	.LFE18
 4176 00b8 00000000 		.4byte	.LFB20
 4177 00bc 4C000000 		.4byte	.LFE20
 4178 00c0 00000000 		.4byte	.LFB23
 4179 00c4 24000000 		.4byte	.LFE23
 4180 00c8 00000000 		.4byte	.LFB24
 4181 00cc 24000000 		.4byte	.LFE24
 4182 00d0 00000000 		.4byte	.LFB25
 4183 00d4 24000000 		.4byte	.LFE25
 4184 00d8 00000000 		.4byte	0
 4185 00dc 00000000 		.4byte	0
 4186              		.section	.debug_line,"",%progbits
 4187              	.Ldebug_line0:
 4188 0000 DD030000 		.section	.debug_str,"MS",%progbits,1
 4188      0200A500 
 4188      00000201 
 4188      FB0E0D00 
ARM GAS  C:\Users\emman\AppData\Local\Temp\ccNpJWxM.s 			page 112


 4188      01010101 
 4189              	.LASF80:
 4190 0000 546F7563 		.ascii	"Touch_ADC_Read16\000"
 4190      685F4144 
 4190      435F5265 
 4190      61643136 
 4190      00
 4191              	.LASF11:
 4192 0011 75696E74 		.ascii	"uint16\000"
 4192      313600
 4193              	.LASF30:
 4194 0018 76616C75 		.ascii	"value\000"
 4194      6500
 4195              	.LASF67:
 4196 001e 61646347 		.ascii	"adcGain\000"
 4196      61696E00 
 4197              	.LASF92:
 4198 0026 43794578 		.ascii	"CyExitCriticalSection\000"
 4198      69744372 
 4198      69746963 
 4198      616C5365 
 4198      6374696F 
 4199              	.LASF32:
 4200 003c 696E7075 		.ascii	"inputRange\000"
 4200      7452616E 
 4200      676500
 4201              	.LASF24:
 4202 0047 67636F72 		.ascii	"gcor\000"
 4202      00
 4203              	.LASF83:
 4204 004c 546F7563 		.ascii	"Touch_ADC_initVar\000"
 4204      685F4144 
 4204      435F696E 
 4204      69745661 
 4204      7200
 4205              	.LASF42:
 4206 005e 546F7563 		.ascii	"Touch_ADC_Enable\000"
 4206      685F4144 
 4206      435F456E 
 4206      61626C65 
 4206      00
 4207              	.LASF8:
 4208 006f 6C6F6E67 		.ascii	"long long unsigned int\000"
 4208      206C6F6E 
 4208      6720756E 
 4208      7369676E 
 4208      65642069 
 4209              	.LASF101:
 4210 0086 47656E65 		.ascii	"Generated_Source\\PSoC5\\Touch_ADC.c\000"
 4210      72617465 
 4210      645F536F 
 4210      75726365 
 4210      5C50536F 
 4211              	.LASF31:
 4212 00a9 546F7563 		.ascii	"Touch_ADC_GainCompensation\000"
 4212      685F4144 
 4212      435F4761 
ARM GAS  C:\Users\emman\AppData\Local\Temp\ccNpJWxM.s 			page 113


 4212      696E436F 
 4212      6D70656E 
 4213              	.LASF34:
 4214 00c4 69646561 		.ascii	"idealOddDecGain\000"
 4214      6C4F6464 
 4214      44656347 
 4214      61696E00 
 4215              	.LASF7:
 4216 00d4 6C6F6E67 		.ascii	"long long int\000"
 4216      206C6F6E 
 4216      6720696E 
 4216      7400
 4217              	.LASF1:
 4218 00e2 7369676E 		.ascii	"signed char\000"
 4218      65642063 
 4218      68617200 
 4219              	.LASF100:
 4220 00ee 474E5520 		.ascii	"GNU C11 5.4.1 20160609 (release) [ARM/embedded-5-br"
 4220      43313120 
 4220      352E342E 
 4220      31203230 
 4220      31363036 
 4221 0121 616E6368 		.ascii	"anch revision 237715] -mcpu=cortex-m3 -mthumb -g -O"
 4221      20726576 
 4221      6973696F 
 4221      6E203233 
 4221      37373135 
 4222 0154 73202D66 		.ascii	"s -ffunction-sections -ffat-lto-objects\000"
 4222      66756E63 
 4222      74696F6E 
 4222      2D736563 
 4222      74696F6E 
 4223              	.LASF15:
 4224 017c 696E7433 		.ascii	"int32\000"
 4224      3200
 4225              	.LASF79:
 4226 0182 546F7563 		.ascii	"Touch_ADC_Read8\000"
 4226      685F4144 
 4226      435F5265 
 4226      61643800 
 4227              	.LASF5:
 4228 0192 6C6F6E67 		.ascii	"long int\000"
 4228      20696E74 
 4228      00
 4229              	.LASF58:
 4230 019b 546F7563 		.ascii	"Touch_ADC_IsEndConversion\000"
 4230      685F4144 
 4230      435F4973 
 4230      456E6443 
 4230      6F6E7665 
 4231              	.LASF20:
 4232 01b5 72656731 		.ascii	"reg16\000"
 4232      3600
 4233              	.LASF10:
 4234 01bb 75696E74 		.ascii	"uint8\000"
 4234      3800
 4235              	.LASF54:
ARM GAS  C:\Users\emman\AppData\Local\Temp\ccNpJWxM.s 			page 114


 4236 01c1 546F7563 		.ascii	"Touch_ADC_ReadGCOR\000"
 4236      685F4144 
 4236      435F5265 
 4236      61644743 
 4236      4F5200
 4237              	.LASF97:
 4238 01d4 546F7563 		.ascii	"Touch_ADC_Ext_CP_Clk_SetModeRegister\000"
 4238      685F4144 
 4238      435F4578 
 4238      745F4350 
 4238      5F436C6B 
 4239              	.LASF91:
 4240 01f9 43794465 		.ascii	"CyDelayUs\000"
 4240      6C617955 
 4240      7300
 4241              	.LASF17:
 4242 0203 646F7562 		.ascii	"double\000"
 4242      6C6500
 4243              	.LASF53:
 4244 020a 546F7563 		.ascii	"Touch_ADC_SetGCOR\000"
 4244      685F4144 
 4244      435F5365 
 4244      7447434F 
 4244      5200
 4245              	.LASF72:
 4246 021c 566F6C74 		.ascii	"Volts\000"
 4246      7300
 4247              	.LASF81:
 4248 0222 546F7563 		.ascii	"Touch_ADC_Read32\000"
 4248      685F4144 
 4248      435F5265 
 4248      61643332 
 4248      00
 4249              	.LASF12:
 4250 0233 75696E74 		.ascii	"uint32\000"
 4250      333200
 4251              	.LASF82:
 4252 023a 546F7563 		.ascii	"Touch_ADC_gcor\000"
 4252      685F4144 
 4252      435F6763 
 4252      6F7200
 4253              	.LASF96:
 4254 0249 4379496E 		.ascii	"CyIntSetVector\000"
 4254      74536574 
 4254      56656374 
 4254      6F7200
 4255              	.LASF43:
 4256 0258 546F7563 		.ascii	"Touch_ADC_Start\000"
 4256      685F4144 
 4256      435F5374 
 4256      61727400 
 4257              	.LASF71:
 4258 0268 546F7563 		.ascii	"Touch_ADC_CountsTo_Volts\000"
 4258      685F4144 
 4258      435F436F 
 4258      756E7473 
 4258      546F5F56 
ARM GAS  C:\Users\emman\AppData\Local\Temp\ccNpJWxM.s 			page 115


 4259              	.LASF102:
 4260 0281 453A5C55 		.ascii	"E:\\U\\Lab de Control\\PID Controler-20191011T02191"
 4260      5C4C6162 
 4260      20646520 
 4260      436F6E74 
 4260      726F6C5C 
 4261 02b1 395A2D30 		.ascii	"9Z-001\\PID Controler\\Controlador.cydsn\000"
 4261      30315C50 
 4261      49442043 
 4261      6F6E7472 
 4261      6F6C6572 
 4262              	.LASF87:
 4263 02d8 546F7563 		.ascii	"Touch_ADC_Config\000"
 4263      685F4144 
 4263      435F436F 
 4263      6E666967 
 4263      00
 4264              	.LASF59:
 4265 02e9 7265744D 		.ascii	"retMode\000"
 4265      6F646500 
 4266              	.LASF9:
 4267 02f1 756E7369 		.ascii	"unsigned int\000"
 4267      676E6564 
 4267      20696E74 
 4267      00
 4268              	.LASF56:
 4269 02fe 546F7563 		.ascii	"Touch_ADC_StartConvert\000"
 4269      685F4144 
 4269      435F5374 
 4269      61727443 
 4269      6F6E7665 
 4270              	.LASF74:
 4271 0315 75566F6C 		.ascii	"uVolts\000"
 4271      747300
 4272              	.LASF6:
 4273 031c 6C6F6E67 		.ascii	"long unsigned int\000"
 4273      20756E73 
 4273      69676E65 
 4273      6420696E 
 4273      7400
 4274              	.LASF66:
 4275 032e 546F7563 		.ascii	"Touch_ADC_SetGain\000"
 4275      685F4144 
 4275      435F5365 
 4275      74476169 
 4275      6E00
 4276              	.LASF90:
 4277 0340 4379456E 		.ascii	"CyEnterCriticalSection\000"
 4277      74657243 
 4277      72697469 
 4277      63616C53 
 4277      65637469 
 4278              	.LASF62:
 4279 0357 546F7563 		.ascii	"Touch_ADC_GetResult16\000"
 4279      685F4144 
 4279      435F4765 
 4279      74526573 
ARM GAS  C:\Users\emman\AppData\Local\Temp\ccNpJWxM.s 			page 116


 4279      756C7431 
 4280              	.LASF4:
 4281 036d 73686F72 		.ascii	"short unsigned int\000"
 4281      7420756E 
 4281      7369676E 
 4281      65642069 
 4281      6E7400
 4282              	.LASF44:
 4283 0380 546F7563 		.ascii	"Touch_ADC_Stop\000"
 4283      685F4144 
 4283      435F5374 
 4283      6F7000
 4284              	.LASF77:
 4285 038f 546F7563 		.ascii	"Touch_ADC_SelectConfiguration\000"
 4285      685F4144 
 4285      435F5365 
 4285      6C656374 
 4285      436F6E66 
 4286              	.LASF13:
 4287 03ad 696E7438 		.ascii	"int8\000"
 4287      00
 4288              	.LASF39:
 4289 03b2 67636F72 		.ascii	"gcorValue\000"
 4289      56616C75 
 4289      6500
 4290              	.LASF89:
 4291 03bc 546F7563 		.ascii	"Touch_ADC_CountsPerVolt\000"
 4291      685F4144 
 4291      435F436F 
 4291      756E7473 
 4291      50657256 
 4292              	.LASF26:
 4293 03d4 546F7563 		.ascii	"Touch_ADC_GCOR_STRUCT\000"
 4293      685F4144 
 4293      435F4743 
 4293      4F525F53 
 4293      54525543 
 4294              	.LASF70:
 4295 03ea 6D566F6C 		.ascii	"mVolts\000"
 4295      747300
 4296              	.LASF37:
 4297 03f1 666C6173 		.ascii	"flash\000"
 4297      6800
 4298              	.LASF21:
 4299 03f7 72656733 		.ascii	"reg32\000"
 4299      3200
 4300              	.LASF16:
 4301 03fd 666C6F61 		.ascii	"float32\000"
 4301      74333200 
 4302              	.LASF85:
 4303 0405 546F7563 		.ascii	"Touch_ADC_stopConversion\000"
 4303      685F4144 
 4303      435F7374 
 4303      6F70436F 
 4303      6E766572 
 4304              	.LASF23:
 4305 041e 73697A65 		.ascii	"sizetype\000"
ARM GAS  C:\Users\emman\AppData\Local\Temp\ccNpJWxM.s 			page 117


 4305      74797065 
 4305      00
 4306              	.LASF22:
 4307 0427 6C6F6E67 		.ascii	"long double\000"
 4307      20646F75 
 4307      626C6500 
 4308              	.LASF49:
 4309 0433 636F6865 		.ascii	"coherency\000"
 4309      72656E63 
 4309      7900
 4310              	.LASF99:
 4311 043d 4379496E 		.ascii	"CyIntSetPriority\000"
 4311      74536574 
 4311      5072696F 
 4311      72697479 
 4311      00
 4312              	.LASF48:
 4313 044e 6761696E 		.ascii	"gain\000"
 4313      00
 4314              	.LASF0:
 4315 0453 666C6F61 		.ascii	"float\000"
 4315      7400
 4316              	.LASF63:
 4317 0459 546F7563 		.ascii	"Touch_ADC_GetResult32\000"
 4317      685F4144 
 4317      435F4765 
 4317      74526573 
 4317      756C7433 
 4318              	.LASF19:
 4319 046f 72656738 		.ascii	"reg8\000"
 4319      00
 4320              	.LASF45:
 4321 0474 546F7563 		.ascii	"Touch_ADC_SetBufferGain\000"
 4321      685F4144 
 4321      435F5365 
 4321      74427566 
 4321      66657247 
 4322              	.LASF33:
 4323 048c 69646561 		.ascii	"idealDecGain\000"
 4323      6C446563 
 4323      4761696E 
 4323      00
 4324              	.LASF38:
 4325 0499 6E6F726D 		.ascii	"normalised\000"
 4325      616C6973 
 4325      656400
 4326              	.LASF2:
 4327 04a4 756E7369 		.ascii	"unsigned char\000"
 4327      676E6564 
 4327      20636861 
 4327      7200
 4328              	.LASF27:
 4329 04b2 546F7563 		.ascii	"Touch_ADC_InitConfig\000"
 4329      685F4144 
 4329      435F496E 
 4329      6974436F 
 4329      6E666967 
ARM GAS  C:\Users\emman\AppData\Local\Temp\ccNpJWxM.s 			page 118


 4330              	.LASF60:
 4331 04c7 546F7563 		.ascii	"Touch_ADC_GetResult8\000"
 4331      685F4144 
 4331      435F4765 
 4331      74526573 
 4331      756C7438 
 4332              	.LASF3:
 4333 04dc 73686F72 		.ascii	"short int\000"
 4333      7420696E 
 4333      7400
 4334              	.LASF88:
 4335 04e6 546F7563 		.ascii	"Touch_ADC_Offset\000"
 4335      685F4144 
 4335      435F4F66 
 4335      66736574 
 4335      00
 4336              	.LASF40:
 4337 04f7 67636F72 		.ascii	"gcorTmp\000"
 4337      546D7000 
 4338              	.LASF47:
 4339 04ff 546F7563 		.ascii	"Touch_ADC_SetCoherency\000"
 4339      685F4144 
 4339      435F5365 
 4339      74436F68 
 4339      6572656E 
 4340              	.LASF94:
 4341 0516 546F7563 		.ascii	"Touch_ADC_Ext_CP_Clk_SetDividerRegister\000"
 4341      685F4144 
 4341      435F4578 
 4341      745F4350 
 4341      5F436C6B 
 4342              	.LASF35:
 4343 053e 7265736F 		.ascii	"resolution\000"
 4343      6C757469 
 4343      6F6E00
 4344              	.LASF84:
 4345 0549 546F7563 		.ascii	"Touch_ADC_convDone\000"
 4345      685F4144 
 4345      435F636F 
 4345      6E76446F 
 4345      6E6500
 4346              	.LASF75:
 4347 055c 636F6566 		.ascii	"coefA\000"
 4347      4100
 4348              	.LASF76:
 4349 0562 636F6566 		.ascii	"coefB\000"
 4349      4200
 4350              	.LASF18:
 4351 0568 63686172 		.ascii	"char\000"
 4351      00
 4352              	.LASF55:
 4353 056d 6756616C 		.ascii	"gValue\000"
 4353      756500
 4354              	.LASF29:
 4355 0574 636F6E66 		.ascii	"config\000"
 4355      696700
 4356              	.LASF25:
ARM GAS  C:\Users\emman\AppData\Local\Temp\ccNpJWxM.s 			page 119


 4357 057b 6776616C 		.ascii	"gval\000"
 4357      00
 4358              	.LASF28:
 4359 0580 546F7563 		.ascii	"Touch_ADC_SetDSMRef0Reg\000"
 4359      685F4144 
 4359      435F5365 
 4359      7444534D 
 4359      52656630 
 4360              	.LASF57:
 4361 0598 546F7563 		.ascii	"Touch_ADC_StopConvert\000"
 4361      685F4144 
 4361      435F5374 
 4361      6F70436F 
 4361      6E766572 
 4362              	.LASF41:
 4363 05ae 546F7563 		.ascii	"Touch_ADC_Init\000"
 4363      685F4144 
 4363      435F496E 
 4363      697400
 4364              	.LASF93:
 4365 05bd 546F7563 		.ascii	"Touch_ADC_AMux_Select\000"
 4365      685F4144 
 4365      435F414D 
 4365      75785F53 
 4365      656C6563 
 4366              	.LASF78:
 4367 05d3 72657374 		.ascii	"restart\000"
 4367      61727400 
 4368              	.LASF52:
 4369 05db 746D7056 		.ascii	"tmpValue\000"
 4369      616C7565 
 4369      00
 4370              	.LASF65:
 4371 05e4 6F666673 		.ascii	"offset\000"
 4371      657400
 4372              	.LASF86:
 4373 05eb 546F7563 		.ascii	"Touch_ADC_started\000"
 4373      685F4144 
 4373      435F7374 
 4373      61727465 
 4373      6400
 4374              	.LASF69:
 4375 05fd 61646343 		.ascii	"adcCounts\000"
 4375      6F756E74 
 4375      7300
 4376              	.LASF98:
 4377 0607 546F7563 		.ascii	"Touch_ADC_theACLK_SetModeRegister\000"
 4377      685F4144 
 4377      435F7468 
 4377      6541434C 
 4377      4B5F5365 
 4378              	.LASF73:
 4379 0629 546F7563 		.ascii	"Touch_ADC_CountsTo_uVolts\000"
 4379      685F4144 
 4379      435F436F 
 4379      756E7473 
 4379      546F5F75 
ARM GAS  C:\Users\emman\AppData\Local\Temp\ccNpJWxM.s 			page 120


 4380              	.LASF36:
 4381 0643 656E6162 		.ascii	"enableInterrupts\000"
 4381      6C65496E 
 4381      74657272 
 4381      75707473 
 4381      00
 4382              	.LASF51:
 4383 0654 73746174 		.ascii	"status\000"
 4383      757300
 4384              	.LASF50:
 4385 065b 6761696E 		.ascii	"gainAdjust\000"
 4385      41646A75 
 4385      737400
 4386              	.LASF14:
 4387 0666 696E7431 		.ascii	"int16\000"
 4387      3600
 4388              	.LASF64:
 4389 066c 546F7563 		.ascii	"Touch_ADC_SetOffset\000"
 4389      685F4144 
 4389      435F5365 
 4389      744F6666 
 4389      73657400 
 4390              	.LASF95:
 4391 0680 546F7563 		.ascii	"Touch_ADC_theACLK_SetDividerRegister\000"
 4391      685F4144 
 4391      435F7468 
 4391      6541434C 
 4391      4B5F5365 
 4392              	.LASF46:
 4393 06a5 746D7052 		.ascii	"tmpReg\000"
 4393      656700
 4394              	.LASF68:
 4395 06ac 546F7563 		.ascii	"Touch_ADC_CountsTo_mVolts\000"
 4395      685F4144 
 4395      435F436F 
 4395      756E7473 
 4395      546F5F6D 
 4396              	.LASF61:
 4397 06c6 72657375 		.ascii	"result\000"
 4397      6C7400
 4398              		.ident	"GCC: (GNU Tools for ARM Embedded Processors) 5.4.1 20160609 (release) [ARM/embedded-5-bran
