ARM GAS  C:\Users\emman\AppData\Local\Temp\ccsHmHw2.s 			page 1


   1              		.syntax unified
   2              		.cpu cortex-m3
   3              		.fpu softvfp
   4              		.eabi_attribute 20, 1
   5              		.eabi_attribute 21, 1
   6              		.eabi_attribute 23, 3
   7              		.eabi_attribute 24, 1
   8              		.eabi_attribute 25, 1
   9              		.eabi_attribute 26, 1
  10              		.eabi_attribute 30, 4
  11              		.eabi_attribute 34, 1
  12              		.eabi_attribute 18, 4
  13              		.thumb
  14              		.syntax unified
  15              		.file	"Touch.c"
  16              		.text
  17              	.Ltext0:
  18              		.cfi_sections	.debug_frame
  19              		.section	.text.Touch_Init,"ax",%progbits
  20              		.align	1
  21              		.global	Touch_Init
  22              		.thumb
  23              		.thumb_func
  24              		.type	Touch_Init, %function
  25              	Touch_Init:
  26              	.LFB0:
  27              		.file 1 "Generated_Source\\PSoC5\\Touch.c"
   1:Generated_Source\PSoC5/Touch.c **** /*******************************************************************************
   2:Generated_Source\PSoC5/Touch.c **** * File Name: Touch.c
   3:Generated_Source\PSoC5/Touch.c **** * Version 2.0
   4:Generated_Source\PSoC5/Touch.c **** *
   5:Generated_Source\PSoC5/Touch.c **** * Description:
   6:Generated_Source\PSoC5/Touch.c **** *  This file provides the API source code for the Resistive Touch component.
   7:Generated_Source\PSoC5/Touch.c **** *
   8:Generated_Source\PSoC5/Touch.c **** * Note:
   9:Generated_Source\PSoC5/Touch.c **** *
  10:Generated_Source\PSoC5/Touch.c **** ********************************************************************************
  11:Generated_Source\PSoC5/Touch.c **** * Copyright 2012-2015, Cypress Semiconductor Corporation.  All rights reserved.
  12:Generated_Source\PSoC5/Touch.c **** * You may use this file only in accordance with the license, terms, conditions,
  13:Generated_Source\PSoC5/Touch.c **** * disclaimers, and limitations in the end user license agreement accompanying
  14:Generated_Source\PSoC5/Touch.c **** * the software package with which this file was provided.
  15:Generated_Source\PSoC5/Touch.c **** *******************************************************************************/
  16:Generated_Source\PSoC5/Touch.c **** 
  17:Generated_Source\PSoC5/Touch.c **** #include "CyLib.h"
  18:Generated_Source\PSoC5/Touch.c **** #include "Touch.h"
  19:Generated_Source\PSoC5/Touch.c **** #include "Touch_xm.h"
  20:Generated_Source\PSoC5/Touch.c **** #include "Touch_xp.h"
  21:Generated_Source\PSoC5/Touch.c **** #include "Touch_ym.h"
  22:Generated_Source\PSoC5/Touch.c **** #include "Touch_yp.h"
  23:Generated_Source\PSoC5/Touch.c **** 
  24:Generated_Source\PSoC5/Touch.c **** uint8 Touch_initVar = 0u;
  25:Generated_Source\PSoC5/Touch.c **** static uint8 Touch_measurementFlag = 0u;
  26:Generated_Source\PSoC5/Touch.c **** 
  27:Generated_Source\PSoC5/Touch.c **** 
  28:Generated_Source\PSoC5/Touch.c **** /*******************************************************************************
  29:Generated_Source\PSoC5/Touch.c **** * Function Name: Touch_Init
  30:Generated_Source\PSoC5/Touch.c **** ********************************************************************************
ARM GAS  C:\Users\emman\AppData\Local\Temp\ccsHmHw2.s 			page 2


  31:Generated_Source\PSoC5/Touch.c **** *
  32:Generated_Source\PSoC5/Touch.c **** * Summary:
  33:Generated_Source\PSoC5/Touch.c **** *  Calls the Init() function of the ADC and AMux components.
  34:Generated_Source\PSoC5/Touch.c **** *
  35:Generated_Source\PSoC5/Touch.c **** * Parameters:
  36:Generated_Source\PSoC5/Touch.c **** *  None
  37:Generated_Source\PSoC5/Touch.c **** *
  38:Generated_Source\PSoC5/Touch.c **** * Return:
  39:Generated_Source\PSoC5/Touch.c **** *  None
  40:Generated_Source\PSoC5/Touch.c **** *
  41:Generated_Source\PSoC5/Touch.c **** *******************************************************************************/
  42:Generated_Source\PSoC5/Touch.c **** void Touch_Init(void) 
  43:Generated_Source\PSoC5/Touch.c **** {
  28              		.loc 1 43 0
  29              		.cfi_startproc
  30              		@ args = 0, pretend = 0, frame = 0
  31              		@ frame_needed = 0, uses_anonymous_args = 0
  32 0000 08B5     		push	{r3, lr}
  33              		.cfi_def_cfa_offset 8
  34              		.cfi_offset 3, -8
  35              		.cfi_offset 14, -4
  44:Generated_Source\PSoC5/Touch.c ****     Touch_AMux_Init();
  36              		.loc 1 44 0
  37 0002 FFF7FEFF 		bl	Touch_AMux_Init
  38              	.LVL0:
  45:Generated_Source\PSoC5/Touch.c ****     Touch_ADC_Init();
  46:Generated_Source\PSoC5/Touch.c **** }
  39              		.loc 1 46 0
  40 0006 BDE80840 		pop	{r3, lr}
  41              		.cfi_restore 14
  42              		.cfi_restore 3
  43              		.cfi_def_cfa_offset 0
  45:Generated_Source\PSoC5/Touch.c ****     Touch_ADC_Init();
  44              		.loc 1 45 0
  45 000a FFF7FEBF 		b	Touch_ADC_Init
  46              	.LVL1:
  47              		.cfi_endproc
  48              	.LFE0:
  49              		.size	Touch_Init, .-Touch_Init
  50              		.section	.text.Touch_Start,"ax",%progbits
  51              		.align	1
  52              		.global	Touch_Start
  53              		.thumb
  54              		.thumb_func
  55              		.type	Touch_Start, %function
  56              	Touch_Start:
  57              	.LFB1:
  47:Generated_Source\PSoC5/Touch.c **** 
  48:Generated_Source\PSoC5/Touch.c **** 
  49:Generated_Source\PSoC5/Touch.c **** /*******************************************************************************
  50:Generated_Source\PSoC5/Touch.c **** * Function Name: Touch_Start
  51:Generated_Source\PSoC5/Touch.c **** ********************************************************************************
  52:Generated_Source\PSoC5/Touch.c **** *
  53:Generated_Source\PSoC5/Touch.c **** * Summary:
  54:Generated_Source\PSoC5/Touch.c **** *  Calls Init() if the component has not been initialized before. Calls Enable()
  55:Generated_Source\PSoC5/Touch.c **** *  to begin the component operation.
  56:Generated_Source\PSoC5/Touch.c **** *
ARM GAS  C:\Users\emman\AppData\Local\Temp\ccsHmHw2.s 			page 3


  57:Generated_Source\PSoC5/Touch.c **** * Parameters:
  58:Generated_Source\PSoC5/Touch.c **** *  None
  59:Generated_Source\PSoC5/Touch.c **** *
  60:Generated_Source\PSoC5/Touch.c **** * Return:
  61:Generated_Source\PSoC5/Touch.c **** *  None
  62:Generated_Source\PSoC5/Touch.c **** * 
  63:Generated_Source\PSoC5/Touch.c **** * Global variables:
  64:Generated_Source\PSoC5/Touch.c **** *  Touch_initVar - Indicates whether the component has been
  65:Generated_Source\PSoC5/Touch.c **** *                             initialized.
  66:Generated_Source\PSoC5/Touch.c **** *
  67:Generated_Source\PSoC5/Touch.c **** *******************************************************************************/
  68:Generated_Source\PSoC5/Touch.c **** void Touch_Start(void)  
  69:Generated_Source\PSoC5/Touch.c **** {
  58              		.loc 1 69 0
  59              		.cfi_startproc
  60              		@ args = 0, pretend = 0, frame = 0
  61              		@ frame_needed = 0, uses_anonymous_args = 0
  62 0000 10B5     		push	{r4, lr}
  63              		.cfi_def_cfa_offset 8
  64              		.cfi_offset 4, -8
  65              		.cfi_offset 14, -4
  70:Generated_Source\PSoC5/Touch.c ****     if(Touch_initVar == 0u)
  66              		.loc 1 70 0
  67 0002 054C     		ldr	r4, .L5
  68 0004 2378     		ldrb	r3, [r4]	@ zero_extendqisi2
  69 0006 1BB9     		cbnz	r3, .L3
  71:Generated_Source\PSoC5/Touch.c ****     {    
  72:Generated_Source\PSoC5/Touch.c ****         Touch_Init();
  70              		.loc 1 72 0
  71 0008 FFF7FEFF 		bl	Touch_Init
  72              	.LVL2:
  73:Generated_Source\PSoC5/Touch.c ****         Touch_initVar = 1u;
  73              		.loc 1 73 0
  74 000c 0123     		movs	r3, #1
  75 000e 2370     		strb	r3, [r4]
  76              	.L3:
  74:Generated_Source\PSoC5/Touch.c ****     }
  75:Generated_Source\PSoC5/Touch.c ****     Touch_Enable();
  76:Generated_Source\PSoC5/Touch.c **** }
  77              		.loc 1 76 0
  78 0010 BDE81040 		pop	{r4, lr}
  79              		.cfi_restore 14
  80              		.cfi_restore 4
  81              		.cfi_def_cfa_offset 0
  82              	.LBB4:
  83              	.LBB5:
  77:Generated_Source\PSoC5/Touch.c **** 
  78:Generated_Source\PSoC5/Touch.c **** 
  79:Generated_Source\PSoC5/Touch.c **** /*******************************************************************************
  80:Generated_Source\PSoC5/Touch.c **** * Function Name: Touch_Stop
  81:Generated_Source\PSoC5/Touch.c **** ********************************************************************************
  82:Generated_Source\PSoC5/Touch.c **** *
  83:Generated_Source\PSoC5/Touch.c **** * Summary:
  84:Generated_Source\PSoC5/Touch.c **** *  Stops the ADC and AMux components.
  85:Generated_Source\PSoC5/Touch.c **** *
  86:Generated_Source\PSoC5/Touch.c **** * Parameters:
  87:Generated_Source\PSoC5/Touch.c **** *  None
ARM GAS  C:\Users\emman\AppData\Local\Temp\ccsHmHw2.s 			page 4


  88:Generated_Source\PSoC5/Touch.c **** *
  89:Generated_Source\PSoC5/Touch.c **** * Return:
  90:Generated_Source\PSoC5/Touch.c **** *  None
  91:Generated_Source\PSoC5/Touch.c **** *
  92:Generated_Source\PSoC5/Touch.c **** *******************************************************************************/
  93:Generated_Source\PSoC5/Touch.c **** void Touch_Stop(void)  
  94:Generated_Source\PSoC5/Touch.c **** {
  95:Generated_Source\PSoC5/Touch.c ****     Touch_ADC_Stop();
  96:Generated_Source\PSoC5/Touch.c ****     Touch_AMux_Stop();
  97:Generated_Source\PSoC5/Touch.c **** }
  98:Generated_Source\PSoC5/Touch.c **** 
  99:Generated_Source\PSoC5/Touch.c **** 
 100:Generated_Source\PSoC5/Touch.c **** /*******************************************************************************
 101:Generated_Source\PSoC5/Touch.c **** * Function Name: Touch_Enable
 102:Generated_Source\PSoC5/Touch.c **** ********************************************************************************
 103:Generated_Source\PSoC5/Touch.c **** *
 104:Generated_Source\PSoC5/Touch.c **** * Summary:
 105:Generated_Source\PSoC5/Touch.c **** *  Enables the ADC component.
 106:Generated_Source\PSoC5/Touch.c **** *
 107:Generated_Source\PSoC5/Touch.c **** * Parameters:
 108:Generated_Source\PSoC5/Touch.c **** *  None
 109:Generated_Source\PSoC5/Touch.c **** *
 110:Generated_Source\PSoC5/Touch.c **** * Return:
 111:Generated_Source\PSoC5/Touch.c **** *  None
 112:Generated_Source\PSoC5/Touch.c **** *
 113:Generated_Source\PSoC5/Touch.c **** *******************************************************************************/
 114:Generated_Source\PSoC5/Touch.c **** void Touch_Enable(void)  
 115:Generated_Source\PSoC5/Touch.c **** {
 116:Generated_Source\PSoC5/Touch.c ****     Touch_ADC_Enable();
  84              		.loc 1 116 0
  85 0014 FFF7FEBF 		b	Touch_ADC_Enable
  86              	.LVL3:
  87              	.L6:
  88              		.align	2
  89              	.L5:
  90 0018 00000000 		.word	.LANCHOR0
  91              	.LBE5:
  92              	.LBE4:
  93              		.cfi_endproc
  94              	.LFE1:
  95              		.size	Touch_Start, .-Touch_Start
  96              		.section	.text.Touch_Stop,"ax",%progbits
  97              		.align	1
  98              		.global	Touch_Stop
  99              		.thumb
 100              		.thumb_func
 101              		.type	Touch_Stop, %function
 102              	Touch_Stop:
 103              	.LFB2:
  94:Generated_Source\PSoC5/Touch.c ****     Touch_ADC_Stop();
 104              		.loc 1 94 0
 105              		.cfi_startproc
 106              		@ args = 0, pretend = 0, frame = 0
 107              		@ frame_needed = 0, uses_anonymous_args = 0
 108 0000 08B5     		push	{r3, lr}
 109              		.cfi_def_cfa_offset 8
 110              		.cfi_offset 3, -8
ARM GAS  C:\Users\emman\AppData\Local\Temp\ccsHmHw2.s 			page 5


 111              		.cfi_offset 14, -4
  95:Generated_Source\PSoC5/Touch.c ****     Touch_AMux_Stop();
 112              		.loc 1 95 0
 113 0002 FFF7FEFF 		bl	Touch_ADC_Stop
 114              	.LVL4:
  97:Generated_Source\PSoC5/Touch.c **** 
 115              		.loc 1 97 0
 116 0006 BDE80840 		pop	{r3, lr}
 117              		.cfi_restore 14
 118              		.cfi_restore 3
 119              		.cfi_def_cfa_offset 0
  96:Generated_Source\PSoC5/Touch.c **** }
 120              		.loc 1 96 0
 121 000a FFF7FEBF 		b	Touch_AMux_Stop
 122              	.LVL5:
 123              		.cfi_endproc
 124              	.LFE2:
 125              		.size	Touch_Stop, .-Touch_Stop
 126              		.section	.text.Touch_Enable,"ax",%progbits
 127              		.align	1
 128              		.global	Touch_Enable
 129              		.thumb
 130              		.thumb_func
 131              		.type	Touch_Enable, %function
 132              	Touch_Enable:
 133              	.LFB3:
 115:Generated_Source\PSoC5/Touch.c ****     Touch_ADC_Enable();
 134              		.loc 1 115 0
 135              		.cfi_startproc
 136              		@ args = 0, pretend = 0, frame = 0
 137              		@ frame_needed = 0, uses_anonymous_args = 0
 138              		@ link register save eliminated.
 139              		.loc 1 116 0
 140 0000 FFF7FEBF 		b	Touch_ADC_Enable
 141              	.LVL6:
 142              		.cfi_endproc
 143              	.LFE3:
 144              		.size	Touch_Enable, .-Touch_Enable
 145              		.section	.text.Touch_ActivateX,"ax",%progbits
 146              		.align	1
 147              		.global	Touch_ActivateX
 148              		.thumb
 149              		.thumb_func
 150              		.type	Touch_ActivateX, %function
 151              	Touch_ActivateX:
 152              	.LFB4:
 117:Generated_Source\PSoC5/Touch.c **** }
 118:Generated_Source\PSoC5/Touch.c **** 
 119:Generated_Source\PSoC5/Touch.c **** 
 120:Generated_Source\PSoC5/Touch.c **** /*******************************************************************************
 121:Generated_Source\PSoC5/Touch.c **** * Function Name: Touch_ActivateX
 122:Generated_Source\PSoC5/Touch.c **** ********************************************************************************
 123:Generated_Source\PSoC5/Touch.c **** *
 124:Generated_Source\PSoC5/Touch.c **** * Summary: 
 125:Generated_Source\PSoC5/Touch.c **** *  Configures the pins to measure the Y-axis.
 126:Generated_Source\PSoC5/Touch.c **** *
 127:Generated_Source\PSoC5/Touch.c **** * Parameters:
ARM GAS  C:\Users\emman\AppData\Local\Temp\ccsHmHw2.s 			page 6


 128:Generated_Source\PSoC5/Touch.c **** *  None
 129:Generated_Source\PSoC5/Touch.c **** *
 130:Generated_Source\PSoC5/Touch.c **** * Return:
 131:Generated_Source\PSoC5/Touch.c **** *  None
 132:Generated_Source\PSoC5/Touch.c **** *
 133:Generated_Source\PSoC5/Touch.c **** *******************************************************************************/
 134:Generated_Source\PSoC5/Touch.c **** void Touch_ActivateX(void) 
 135:Generated_Source\PSoC5/Touch.c **** {
 153              		.loc 1 135 0
 154              		.cfi_startproc
 155              		@ args = 0, pretend = 0, frame = 0
 156              		@ frame_needed = 0, uses_anonymous_args = 0
 157 0000 08B5     		push	{r3, lr}
 158              		.cfi_def_cfa_offset 8
 159              		.cfi_offset 3, -8
 160              		.cfi_offset 14, -4
 136:Generated_Source\PSoC5/Touch.c ****     /* Pins configuration to measure Y. */
 137:Generated_Source\PSoC5/Touch.c ****     CyPins_SetPinDriveMode(Touch_ym_0, PIN_DM_STRONG);
 161              		.loc 1 137 0
 162 0002 0F4A     		ldr	r2, .L11
 163 0004 1378     		ldrb	r3, [r2]	@ zero_extendqisi2
 164 0006 03F0F103 		and	r3, r3, #241
 165 000a 43F00C03 		orr	r3, r3, #12
 166 000e 1370     		strb	r3, [r2]
 138:Generated_Source\PSoC5/Touch.c ****     CyPins_SetPinDriveMode(Touch_yp_0, PIN_DM_STRONG);
 167              		.loc 1 138 0
 168 0010 9378     		ldrb	r3, [r2, #2]	@ zero_extendqisi2
 169 0012 03F0F103 		and	r3, r3, #241
 170 0016 43F00C03 		orr	r3, r3, #12
 171 001a 9370     		strb	r3, [r2, #2]
 139:Generated_Source\PSoC5/Touch.c ****     CyPins_SetPinDriveMode(Touch_xp_0, PIN_DM_ALG_HIZ);
 172              		.loc 1 139 0
 173 001c 12F8013C 		ldrb	r3, [r2, #-1]	@ zero_extendqisi2
 174 0020 03F0F103 		and	r3, r3, #241
 175 0024 02F8013C 		strb	r3, [r2, #-1]
 140:Generated_Source\PSoC5/Touch.c ****     CyPins_SetPinDriveMode(Touch_xm_0, PIN_DM_ALG_HIZ);
 176              		.loc 1 140 0
 177 0028 5378     		ldrb	r3, [r2, #1]	@ zero_extendqisi2
 178 002a 03F0F103 		and	r3, r3, #241
 179 002e 5370     		strb	r3, [r2, #1]
 141:Generated_Source\PSoC5/Touch.c ****     
 142:Generated_Source\PSoC5/Touch.c ****     /* Switch AMux if channel 0 is not selected. */
 143:Generated_Source\PSoC5/Touch.c ****     if(Touch_AMux_GetChannel() != Touch_AMUX_XP_CHAN)
 180              		.loc 1 143 0
 181 0030 FFF7FEFF 		bl	Touch_AMux_GetChannel
 182              	.LVL7:
 183 0034 18B1     		cbz	r0, .L9
 144:Generated_Source\PSoC5/Touch.c ****     {
 145:Generated_Source\PSoC5/Touch.c ****         Touch_AMux_Next();
 146:Generated_Source\PSoC5/Touch.c ****     }
 147:Generated_Source\PSoC5/Touch.c **** }
 184              		.loc 1 147 0
 185 0036 BDE80840 		pop	{r3, lr}
 186              		.cfi_remember_state
 187              		.cfi_restore 14
 188              		.cfi_restore 3
 189              		.cfi_def_cfa_offset 0
ARM GAS  C:\Users\emman\AppData\Local\Temp\ccsHmHw2.s 			page 7


 145:Generated_Source\PSoC5/Touch.c ****     }
 190              		.loc 1 145 0
 191 003a FFF7FEBF 		b	Touch_AMux_Next
 192              	.LVL8:
 193              	.L9:
 194              		.cfi_restore_state
 195 003e 08BD     		pop	{r3, pc}
 196              	.L12:
 197              		.align	2
 198              	.L11:
 199 0040 21500040 		.word	1073762337
 200              		.cfi_endproc
 201              	.LFE4:
 202              		.size	Touch_ActivateX, .-Touch_ActivateX
 203              		.section	.text.Touch_ActivateY,"ax",%progbits
 204              		.align	1
 205              		.global	Touch_ActivateY
 206              		.thumb
 207              		.thumb_func
 208              		.type	Touch_ActivateY, %function
 209              	Touch_ActivateY:
 210              	.LFB5:
 148:Generated_Source\PSoC5/Touch.c **** 
 149:Generated_Source\PSoC5/Touch.c **** 
 150:Generated_Source\PSoC5/Touch.c **** /*******************************************************************************
 151:Generated_Source\PSoC5/Touch.c **** * Function Name: Touch_ActivateY
 152:Generated_Source\PSoC5/Touch.c **** ********************************************************************************
 153:Generated_Source\PSoC5/Touch.c **** *
 154:Generated_Source\PSoC5/Touch.c **** * Summary: 
 155:Generated_Source\PSoC5/Touch.c **** *  Configures the pins to measure X-axis.
 156:Generated_Source\PSoC5/Touch.c **** *
 157:Generated_Source\PSoC5/Touch.c **** * Parameters:
 158:Generated_Source\PSoC5/Touch.c **** *  None
 159:Generated_Source\PSoC5/Touch.c **** *
 160:Generated_Source\PSoC5/Touch.c **** * Return:
 161:Generated_Source\PSoC5/Touch.c **** *  None
 162:Generated_Source\PSoC5/Touch.c **** *
 163:Generated_Source\PSoC5/Touch.c **** *******************************************************************************/
 164:Generated_Source\PSoC5/Touch.c **** void Touch_ActivateY(void) 
 165:Generated_Source\PSoC5/Touch.c **** {
 211              		.loc 1 165 0
 212              		.cfi_startproc
 213              		@ args = 0, pretend = 0, frame = 0
 214              		@ frame_needed = 0, uses_anonymous_args = 0
 215 0000 08B5     		push	{r3, lr}
 216              		.cfi_def_cfa_offset 8
 217              		.cfi_offset 3, -8
 218              		.cfi_offset 14, -4
 166:Generated_Source\PSoC5/Touch.c ****     /* Pins configuration to measure X. */
 167:Generated_Source\PSoC5/Touch.c ****     CyPins_SetPinDriveMode(Touch_xm_0, PIN_DM_STRONG);
 219              		.loc 1 167 0
 220 0002 134A     		ldr	r2, .L17
 221 0004 1378     		ldrb	r3, [r2]	@ zero_extendqisi2
 222 0006 03F0F103 		and	r3, r3, #241
 223 000a 43F00C03 		orr	r3, r3, #12
 224 000e 1370     		strb	r3, [r2]
 168:Generated_Source\PSoC5/Touch.c ****     CyPins_SetPinDriveMode(Touch_xp_0, PIN_DM_STRONG);
ARM GAS  C:\Users\emman\AppData\Local\Temp\ccsHmHw2.s 			page 8


 225              		.loc 1 168 0
 226 0010 12F8023C 		ldrb	r3, [r2, #-2]	@ zero_extendqisi2
 227 0014 03F0F103 		and	r3, r3, #241
 228 0018 43F00C03 		orr	r3, r3, #12
 229 001c 02F8023C 		strb	r3, [r2, #-2]
 169:Generated_Source\PSoC5/Touch.c ****     CyPins_SetPinDriveMode(Touch_yp_0, PIN_DM_ALG_HIZ);
 230              		.loc 1 169 0
 231 0020 5378     		ldrb	r3, [r2, #1]	@ zero_extendqisi2
 232 0022 03F0F103 		and	r3, r3, #241
 233 0026 5370     		strb	r3, [r2, #1]
 170:Generated_Source\PSoC5/Touch.c ****     CyPins_SetPinDriveMode(Touch_ym_0, PIN_DM_ALG_HIZ);
 234              		.loc 1 170 0
 235 0028 12F8013C 		ldrb	r3, [r2, #-1]	@ zero_extendqisi2
 236 002c 03F0F103 		and	r3, r3, #241
 237 0030 02F8013C 		strb	r3, [r2, #-1]
 171:Generated_Source\PSoC5/Touch.c ****     
 172:Generated_Source\PSoC5/Touch.c ****     /* Switch AMux if channel 1 is not selected. */
 173:Generated_Source\PSoC5/Touch.c ****     if(Touch_AMux_GetChannel() == Touch_AMUX_XP_CHAN)
 238              		.loc 1 173 0
 239 0034 FFF7FEFF 		bl	Touch_AMux_GetChannel
 240              	.LVL9:
 241 0038 28B1     		cbz	r0, .L16
 174:Generated_Source\PSoC5/Touch.c ****     {
 175:Generated_Source\PSoC5/Touch.c ****         Touch_AMux_Next();
 176:Generated_Source\PSoC5/Touch.c ****     }
 177:Generated_Source\PSoC5/Touch.c ****     /* Switch AMux to channel 1 if AMux is disconnected. */
 178:Generated_Source\PSoC5/Touch.c ****     else if(Touch_AMux_GetChannel() == Touch_AMUX_NO_CHAN)
 242              		.loc 1 178 0
 243 003a FFF7FEFF 		bl	Touch_AMux_GetChannel
 244              	.LVL10:
 245 003e 0130     		adds	r0, r0, #1
 246 0040 05D1     		bne	.L13
 179:Generated_Source\PSoC5/Touch.c ****     {
 180:Generated_Source\PSoC5/Touch.c ****         Touch_AMux_Next();
 247              		.loc 1 180 0
 248 0042 FFF7FEFF 		bl	Touch_AMux_Next
 249              	.LVL11:
 250              	.L16:
 181:Generated_Source\PSoC5/Touch.c ****         Touch_AMux_Next();
 182:Generated_Source\PSoC5/Touch.c ****     }
 183:Generated_Source\PSoC5/Touch.c ****     else
 184:Generated_Source\PSoC5/Touch.c ****     {
 185:Generated_Source\PSoC5/Touch.c ****         /* Channel 1 is already selected. */
 186:Generated_Source\PSoC5/Touch.c ****     }
 187:Generated_Source\PSoC5/Touch.c **** }
 251              		.loc 1 187 0
 252 0046 BDE80840 		pop	{r3, lr}
 253              		.cfi_remember_state
 254              		.cfi_restore 14
 255              		.cfi_restore 3
 256              		.cfi_def_cfa_offset 0
 181:Generated_Source\PSoC5/Touch.c ****         Touch_AMux_Next();
 257              		.loc 1 181 0
 258 004a FFF7FEBF 		b	Touch_AMux_Next
 259              	.LVL12:
 260              	.L13:
 261              		.cfi_restore_state
ARM GAS  C:\Users\emman\AppData\Local\Temp\ccsHmHw2.s 			page 9


 262 004e 08BD     		pop	{r3, pc}
 263              	.L18:
 264              		.align	2
 265              	.L17:
 266 0050 22500040 		.word	1073762338
 267              		.cfi_endproc
 268              	.LFE5:
 269              		.size	Touch_ActivateY, .-Touch_ActivateY
 270              		.section	.text.Touch_Measure,"ax",%progbits
 271              		.align	1
 272              		.global	Touch_Measure
 273              		.thumb
 274              		.thumb_func
 275              		.type	Touch_Measure, %function
 276              	Touch_Measure:
 277              	.LFB7:
 188:Generated_Source\PSoC5/Touch.c **** 
 189:Generated_Source\PSoC5/Touch.c **** 
 190:Generated_Source\PSoC5/Touch.c **** /*******************************************************************************
 191:Generated_Source\PSoC5/Touch.c **** * Function Name: Touch_TouchDetect
 192:Generated_Source\PSoC5/Touch.c **** ********************************************************************************
 193:Generated_Source\PSoC5/Touch.c **** *
 194:Generated_Source\PSoC5/Touch.c **** * Summary:
 195:Generated_Source\PSoC5/Touch.c **** *  Determines if the screen is touched.
 196:Generated_Source\PSoC5/Touch.c **** *
 197:Generated_Source\PSoC5/Touch.c **** * Parameters:
 198:Generated_Source\PSoC5/Touch.c **** *  None
 199:Generated_Source\PSoC5/Touch.c **** *
 200:Generated_Source\PSoC5/Touch.c **** * Return:
 201:Generated_Source\PSoC5/Touch.c **** *  uint8: The touch state.
 202:Generated_Source\PSoC5/Touch.c **** *  0 - untouched
 203:Generated_Source\PSoC5/Touch.c **** *  1 - touched
 204:Generated_Source\PSoC5/Touch.c **** *
 205:Generated_Source\PSoC5/Touch.c **** *******************************************************************************/
 206:Generated_Source\PSoC5/Touch.c **** uint8 Touch_TouchDetect(void) 
 207:Generated_Source\PSoC5/Touch.c **** {
 208:Generated_Source\PSoC5/Touch.c ****     /* Configure x+ pin to detect touch. */
 209:Generated_Source\PSoC5/Touch.c ****     CyPins_SetPinDriveMode(Touch_xp_0, PIN_DM_STRONG);
 210:Generated_Source\PSoC5/Touch.c **** 
 211:Generated_Source\PSoC5/Touch.c ****     /* Add delay for signal to stabilize. */
 212:Generated_Source\PSoC5/Touch.c ****     CyDelayUs(5u);
 213:Generated_Source\PSoC5/Touch.c **** 
 214:Generated_Source\PSoC5/Touch.c ****     CyPins_SetPinDriveMode(Touch_xp_0, PIN_DM_RES_UP);
 215:Generated_Source\PSoC5/Touch.c ****     
 216:Generated_Source\PSoC5/Touch.c ****     /* Switch AMux if channel 0 is not selected. */
 217:Generated_Source\PSoC5/Touch.c ****     if(Touch_AMux_GetChannel() != Touch_AMUX_XP_CHAN)
 218:Generated_Source\PSoC5/Touch.c ****     {
 219:Generated_Source\PSoC5/Touch.c ****         Touch_AMux_Next();
 220:Generated_Source\PSoC5/Touch.c ****     }
 221:Generated_Source\PSoC5/Touch.c **** 
 222:Generated_Source\PSoC5/Touch.c ****     /* Configure x-, y+ and y- to detect touch. */
 223:Generated_Source\PSoC5/Touch.c ****     CyPins_SetPinDriveMode(Touch_xm_0, PIN_DM_ALG_HIZ);
 224:Generated_Source\PSoC5/Touch.c ****     CyPins_SetPinDriveMode(Touch_yp_0, PIN_DM_ALG_HIZ);
 225:Generated_Source\PSoC5/Touch.c ****     CyPins_SetPinDriveMode(Touch_ym_0, PIN_DM_STRONG);
 226:Generated_Source\PSoC5/Touch.c **** 
 227:Generated_Source\PSoC5/Touch.c ****     /* Add delay for signal to stabilize. The delay is dependant on whether
 228:Generated_Source\PSoC5/Touch.c ****     * the measurement has been done before touch detect or not.
ARM GAS  C:\Users\emman\AppData\Local\Temp\ccsHmHw2.s 			page 10


 229:Generated_Source\PSoC5/Touch.c ****     */
 230:Generated_Source\PSoC5/Touch.c ****     if (Touch_measurementFlag == 0u)
 231:Generated_Source\PSoC5/Touch.c ****     {
 232:Generated_Source\PSoC5/Touch.c ****         CyDelayUs(20u);
 233:Generated_Source\PSoC5/Touch.c ****     }
 234:Generated_Source\PSoC5/Touch.c ****     else
 235:Generated_Source\PSoC5/Touch.c ****     {
 236:Generated_Source\PSoC5/Touch.c ****         Touch_measurementFlag = 0u;
 237:Generated_Source\PSoC5/Touch.c ****         CyDelayUs(8u);        
 238:Generated_Source\PSoC5/Touch.c ****     }
 239:Generated_Source\PSoC5/Touch.c ****     /* The screen is touched if the measured value is lower than the specified
 240:Generated_Source\PSoC5/Touch.c ****     * threshold.
 241:Generated_Source\PSoC5/Touch.c ****     */
 242:Generated_Source\PSoC5/Touch.c ****     return ((Touch_Measure() < Touch_TOUCH_THRESHOLD) ? 1u : 0u);
 243:Generated_Source\PSoC5/Touch.c **** }
 244:Generated_Source\PSoC5/Touch.c **** 
 245:Generated_Source\PSoC5/Touch.c **** 
 246:Generated_Source\PSoC5/Touch.c **** /*******************************************************************************
 247:Generated_Source\PSoC5/Touch.c **** * Function Name: Touch_Measure
 248:Generated_Source\PSoC5/Touch.c **** ********************************************************************************
 249:Generated_Source\PSoC5/Touch.c **** *
 250:Generated_Source\PSoC5/Touch.c **** * Summary:
 251:Generated_Source\PSoC5/Touch.c **** *  Returns the result of the ADC conversion. Does not return until ADC
 252:Generated_Source\PSoC5/Touch.c **** *  conversion is complete.
 253:Generated_Source\PSoC5/Touch.c **** *
 254:Generated_Source\PSoC5/Touch.c **** * Parameters:
 255:Generated_Source\PSoC5/Touch.c **** *  None
 256:Generated_Source\PSoC5/Touch.c **** *
 257:Generated_Source\PSoC5/Touch.c **** * Return:
 258:Generated_Source\PSoC5/Touch.c **** *  int16: the result of the ADC conversion.
 259:Generated_Source\PSoC5/Touch.c **** *
 260:Generated_Source\PSoC5/Touch.c **** *******************************************************************************/
 261:Generated_Source\PSoC5/Touch.c **** int16 Touch_Measure(void) 
 262:Generated_Source\PSoC5/Touch.c **** {       
 278              		.loc 1 262 0
 279              		.cfi_startproc
 280              		@ args = 0, pretend = 0, frame = 0
 281              		@ frame_needed = 0, uses_anonymous_args = 0
 282 0000 08B5     		push	{r3, lr}
 283              		.cfi_def_cfa_offset 8
 284              		.cfi_offset 3, -8
 285              		.cfi_offset 14, -4
 263:Generated_Source\PSoC5/Touch.c ****     int16 result;
 264:Generated_Source\PSoC5/Touch.c **** 
 265:Generated_Source\PSoC5/Touch.c ****     /* Trigger the ADC conversion and wait for results (blocking). */
 266:Generated_Source\PSoC5/Touch.c ****     Touch_ADC_StartConvert();
 286              		.loc 1 266 0
 287 0002 FFF7FEFF 		bl	Touch_ADC_StartConvert
 288              	.LVL13:
 267:Generated_Source\PSoC5/Touch.c ****     (void)Touch_ADC_IsEndConversion(Touch_ADC_WAIT_FOR_RESULT);
 289              		.loc 1 267 0
 290 0006 0020     		movs	r0, #0
 291 0008 FFF7FEFF 		bl	Touch_ADC_IsEndConversion
 292              	.LVL14:
 268:Generated_Source\PSoC5/Touch.c ****     result = Touch_ADC_GetResult16();
 293              		.loc 1 268 0
 294 000c FFF7FEFF 		bl	Touch_ADC_GetResult16
ARM GAS  C:\Users\emman\AppData\Local\Temp\ccsHmHw2.s 			page 11


 295              	.LVL15:
 269:Generated_Source\PSoC5/Touch.c **** 
 270:Generated_Source\PSoC5/Touch.c ****     /* Assert a flag indicating that the measurement has been done. */
 271:Generated_Source\PSoC5/Touch.c ****     Touch_measurementFlag = 1u;
 296              		.loc 1 271 0
 297 0010 014B     		ldr	r3, .L20
 298 0012 0122     		movs	r2, #1
 299 0014 5A70     		strb	r2, [r3, #1]
 272:Generated_Source\PSoC5/Touch.c ****     return (result);
 273:Generated_Source\PSoC5/Touch.c **** }
 300              		.loc 1 273 0
 301 0016 08BD     		pop	{r3, pc}
 302              	.L21:
 303              		.align	2
 304              	.L20:
 305 0018 00000000 		.word	.LANCHOR0
 306              		.cfi_endproc
 307              	.LFE7:
 308              		.size	Touch_Measure, .-Touch_Measure
 309              		.section	.text.Touch_TouchDetect,"ax",%progbits
 310              		.align	1
 311              		.global	Touch_TouchDetect
 312              		.thumb
 313              		.thumb_func
 314              		.type	Touch_TouchDetect, %function
 315              	Touch_TouchDetect:
 316              	.LFB6:
 207:Generated_Source\PSoC5/Touch.c ****     /* Configure x+ pin to detect touch. */
 317              		.loc 1 207 0
 318              		.cfi_startproc
 319              		@ args = 0, pretend = 0, frame = 0
 320              		@ frame_needed = 0, uses_anonymous_args = 0
 321 0000 10B5     		push	{r4, lr}
 322              		.cfi_def_cfa_offset 8
 323              		.cfi_offset 4, -8
 324              		.cfi_offset 14, -4
 209:Generated_Source\PSoC5/Touch.c **** 
 325              		.loc 1 209 0
 326 0002 1C4C     		ldr	r4, .L30
 212:Generated_Source\PSoC5/Touch.c **** 
 327              		.loc 1 212 0
 328 0004 0520     		movs	r0, #5
 209:Generated_Source\PSoC5/Touch.c **** 
 329              		.loc 1 209 0
 330 0006 2378     		ldrb	r3, [r4]	@ zero_extendqisi2
 331 0008 03F0F103 		and	r3, r3, #241
 332 000c 43F00C03 		orr	r3, r3, #12
 333 0010 2370     		strb	r3, [r4]
 212:Generated_Source\PSoC5/Touch.c **** 
 334              		.loc 1 212 0
 335 0012 FFF7FEFF 		bl	CyDelayUs
 336              	.LVL16:
 214:Generated_Source\PSoC5/Touch.c ****     
 337              		.loc 1 214 0
 338 0016 2378     		ldrb	r3, [r4]	@ zero_extendqisi2
 339 0018 03F0F103 		and	r3, r3, #241
 340 001c 43F00403 		orr	r3, r3, #4
ARM GAS  C:\Users\emman\AppData\Local\Temp\ccsHmHw2.s 			page 12


 341 0020 2370     		strb	r3, [r4]
 217:Generated_Source\PSoC5/Touch.c ****     {
 342              		.loc 1 217 0
 343 0022 FFF7FEFF 		bl	Touch_AMux_GetChannel
 344              	.LVL17:
 345 0026 08B1     		cbz	r0, .L23
 219:Generated_Source\PSoC5/Touch.c ****     }
 346              		.loc 1 219 0
 347 0028 FFF7FEFF 		bl	Touch_AMux_Next
 348              	.LVL18:
 349              	.L23:
 223:Generated_Source\PSoC5/Touch.c ****     CyPins_SetPinDriveMode(Touch_yp_0, PIN_DM_ALG_HIZ);
 350              		.loc 1 223 0
 351 002c 124A     		ldr	r2, .L30+4
 352 002e 1378     		ldrb	r3, [r2]	@ zero_extendqisi2
 353 0030 03F0F103 		and	r3, r3, #241
 354 0034 1370     		strb	r3, [r2]
 224:Generated_Source\PSoC5/Touch.c ****     CyPins_SetPinDriveMode(Touch_ym_0, PIN_DM_STRONG);
 355              		.loc 1 224 0
 356 0036 5378     		ldrb	r3, [r2, #1]	@ zero_extendqisi2
 357 0038 03F0F103 		and	r3, r3, #241
 358 003c 5370     		strb	r3, [r2, #1]
 225:Generated_Source\PSoC5/Touch.c **** 
 359              		.loc 1 225 0
 360 003e 12F8013C 		ldrb	r3, [r2, #-1]	@ zero_extendqisi2
 361 0042 03F0F103 		and	r3, r3, #241
 362 0046 43F00C03 		orr	r3, r3, #12
 363 004a 02F8013C 		strb	r3, [r2, #-1]
 230:Generated_Source\PSoC5/Touch.c ****     {
 364              		.loc 1 230 0
 365 004e 0B4B     		ldr	r3, .L30+8
 366 0050 5A78     		ldrb	r2, [r3, #1]	@ zero_extendqisi2
 367 0052 0AB9     		cbnz	r2, .L24
 232:Generated_Source\PSoC5/Touch.c ****     }
 368              		.loc 1 232 0
 369 0054 1420     		movs	r0, #20
 370 0056 02E0     		b	.L29
 371              	.L24:
 236:Generated_Source\PSoC5/Touch.c ****         CyDelayUs(8u);        
 372              		.loc 1 236 0
 373 0058 0022     		movs	r2, #0
 374 005a 5A70     		strb	r2, [r3, #1]
 237:Generated_Source\PSoC5/Touch.c ****     }
 375              		.loc 1 237 0
 376 005c 0820     		movs	r0, #8
 377              	.L29:
 378 005e FFF7FEFF 		bl	CyDelayUs
 379              	.LVL19:
 242:Generated_Source\PSoC5/Touch.c **** }
 380              		.loc 1 242 0
 381 0062 FFF7FEFF 		bl	Touch_Measure
 382              	.LVL20:
 243:Generated_Source\PSoC5/Touch.c **** 
 383              		.loc 1 243 0
 384 0066 B0F5EF6F 		cmp	r0, #1912
 385 006a ACBF     		ite	ge
 386 006c 0020     		movge	r0, #0
ARM GAS  C:\Users\emman\AppData\Local\Temp\ccsHmHw2.s 			page 13


 387 006e 0120     		movlt	r0, #1
 388 0070 10BD     		pop	{r4, pc}
 389              	.L31:
 390 0072 00BF     		.align	2
 391              	.L30:
 392 0074 20500040 		.word	1073762336
 393 0078 22500040 		.word	1073762338
 394 007c 00000000 		.word	.LANCHOR0
 395              		.cfi_endproc
 396              	.LFE6:
 397              		.size	Touch_TouchDetect, .-Touch_TouchDetect
 398              		.global	Touch_initVar
 399              		.bss
 400              		.set	.LANCHOR0,. + 0
 401              		.type	Touch_initVar, %object
 402              		.size	Touch_initVar, 1
 403              	Touch_initVar:
 404 0000 00       		.space	1
 405              		.type	Touch_measurementFlag, %object
 406              		.size	Touch_measurementFlag, 1
 407              	Touch_measurementFlag:
 408 0001 00       		.space	1
 409              		.text
 410              	.Letext0:
 411              		.file 2 "Generated_Source\\PSoC5\\cytypes.h"
 412              		.file 3 "Generated_Source\\PSoC5\\Touch_AMux.h"
 413              		.file 4 "Generated_Source\\PSoC5\\Touch_ADC.h"
 414              		.file 5 "Generated_Source\\PSoC5\\cyfitter_cfg.h"
 415              		.file 6 "Generated_Source\\PSoC5\\CyLib.h"