ARM GAS  C:\Users\emman\AppData\Local\Temp\ccx9GEjb.s 			page 1


   1              		.syntax unified
   2              		.cpu cortex-m3
   3              		.fpu softvfp
   4              		.eabi_attribute 20, 1
   5              		.eabi_attribute 21, 1
   6              		.eabi_attribute 23, 3
   7              		.eabi_attribute 24, 1
   8              		.eabi_attribute 25, 1
   9              		.eabi_attribute 26, 1
  10              		.eabi_attribute 30, 4
  11              		.eabi_attribute 34, 1
  12              		.eabi_attribute 18, 4
  13              		.thumb
  14              		.syntax unified
  15              		.file	"Touch_AMux.c"
  16              		.text
  17              	.Ltext0:
  18              		.cfi_sections	.debug_frame
  19              		.section	.text.Touch_AMux_Start,"ax",%progbits
  20              		.align	1
  21              		.global	Touch_AMux_Start
  22              		.thumb
  23              		.thumb_func
  24              		.type	Touch_AMux_Start, %function
  25              	Touch_AMux_Start:
  26              	.LFB0:
  27              		.file 1 "Generated_Source\\PSoC5\\Touch_AMux.c"
   1:Generated_Source\PSoC5/Touch_AMux.c **** /*******************************************************************************
   2:Generated_Source\PSoC5/Touch_AMux.c **** * File Name: Touch_AMux.c
   3:Generated_Source\PSoC5/Touch_AMux.c **** * Version 1.80
   4:Generated_Source\PSoC5/Touch_AMux.c **** *
   5:Generated_Source\PSoC5/Touch_AMux.c **** *  Description:
   6:Generated_Source\PSoC5/Touch_AMux.c **** *    This file contains functions for the AMuxSeq.
   7:Generated_Source\PSoC5/Touch_AMux.c **** *
   8:Generated_Source\PSoC5/Touch_AMux.c **** *   Note:
   9:Generated_Source\PSoC5/Touch_AMux.c **** *
  10:Generated_Source\PSoC5/Touch_AMux.c **** *******************************************************************************
  11:Generated_Source\PSoC5/Touch_AMux.c **** * Copyright 2008-2010, Cypress Semiconductor Corporation.  All rights reserved.
  12:Generated_Source\PSoC5/Touch_AMux.c **** * You may use this file only in accordance with the license, terms, conditions, 
  13:Generated_Source\PSoC5/Touch_AMux.c **** * disclaimers, and limitations in the end user license agreement accompanying 
  14:Generated_Source\PSoC5/Touch_AMux.c **** * the software package with which this file was provided.
  15:Generated_Source\PSoC5/Touch_AMux.c **** ********************************************************************************/
  16:Generated_Source\PSoC5/Touch_AMux.c **** 
  17:Generated_Source\PSoC5/Touch_AMux.c **** #include "Touch_AMux.h"
  18:Generated_Source\PSoC5/Touch_AMux.c **** 
  19:Generated_Source\PSoC5/Touch_AMux.c **** uint8 Touch_AMux_initVar = 0u;
  20:Generated_Source\PSoC5/Touch_AMux.c **** 
  21:Generated_Source\PSoC5/Touch_AMux.c **** 
  22:Generated_Source\PSoC5/Touch_AMux.c **** /*******************************************************************************
  23:Generated_Source\PSoC5/Touch_AMux.c **** * Function Name: Touch_AMux_Start
  24:Generated_Source\PSoC5/Touch_AMux.c **** ********************************************************************************
  25:Generated_Source\PSoC5/Touch_AMux.c **** * Summary:
  26:Generated_Source\PSoC5/Touch_AMux.c **** *  Disconnect all channels. The next time Next is called, channel 0 will be
  27:Generated_Source\PSoC5/Touch_AMux.c **** *  connected.
  28:Generated_Source\PSoC5/Touch_AMux.c **** *
  29:Generated_Source\PSoC5/Touch_AMux.c **** * Parameters:
  30:Generated_Source\PSoC5/Touch_AMux.c **** *  void
ARM GAS  C:\Users\emman\AppData\Local\Temp\ccx9GEjb.s 			page 2


  31:Generated_Source\PSoC5/Touch_AMux.c **** *
  32:Generated_Source\PSoC5/Touch_AMux.c **** * Return:
  33:Generated_Source\PSoC5/Touch_AMux.c **** *  void
  34:Generated_Source\PSoC5/Touch_AMux.c **** *
  35:Generated_Source\PSoC5/Touch_AMux.c **** *******************************************************************************/
  36:Generated_Source\PSoC5/Touch_AMux.c **** void Touch_AMux_Start(void)
  37:Generated_Source\PSoC5/Touch_AMux.c **** {
  28              		.loc 1 37 0
  29              		.cfi_startproc
  30              		@ args = 0, pretend = 0, frame = 0
  31              		@ frame_needed = 0, uses_anonymous_args = 0
  32 0000 08B5     		push	{r3, lr}
  33              		.cfi_def_cfa_offset 8
  34              		.cfi_offset 3, -8
  35              		.cfi_offset 14, -4
  38:Generated_Source\PSoC5/Touch_AMux.c ****     Touch_AMux_DisconnectAll();
  36              		.loc 1 38 0
  37 0002 FFF7FEFF 		bl	Touch_AMux_DisconnectAll
  38              	.LVL0:
  39:Generated_Source\PSoC5/Touch_AMux.c ****     Touch_AMux_initVar = 1u;
  39              		.loc 1 39 0
  40 0006 024B     		ldr	r3, .L2
  41 0008 0122     		movs	r2, #1
  42 000a 1A70     		strb	r2, [r3]
  43 000c 08BD     		pop	{r3, pc}
  44              	.L3:
  45 000e 00BF     		.align	2
  46              	.L2:
  47 0010 00000000 		.word	.LANCHOR0
  48              		.cfi_endproc
  49              	.LFE0:
  50              		.size	Touch_AMux_Start, .-Touch_AMux_Start
  51              		.section	.text.Touch_AMux_Init,"ax",%progbits
  52              		.align	1
  53              		.global	Touch_AMux_Init
  54              		.thumb
  55              		.thumb_func
  56              		.type	Touch_AMux_Init, %function
  57              	Touch_AMux_Init:
  58              	.LFB5:
  59              		.cfi_startproc
  60              		@ args = 0, pretend = 0, frame = 0
  61              		@ frame_needed = 0, uses_anonymous_args = 0
  62              		@ link register save eliminated.
  63 0000 FFF7FEBF 		b	Touch_AMux_DisconnectAll
  64              		.cfi_endproc
  65              	.LFE5:
  66              		.size	Touch_AMux_Init, .-Touch_AMux_Init
  67              		.section	.text.Touch_AMux_Stop,"ax",%progbits
  68              		.align	1
  69              		.global	Touch_AMux_Stop
  70              		.thumb
  71              		.thumb_func
  72              		.type	Touch_AMux_Stop, %function
  73              	Touch_AMux_Stop:
  74              	.LFB2:
  40:Generated_Source\PSoC5/Touch_AMux.c **** }
ARM GAS  C:\Users\emman\AppData\Local\Temp\ccx9GEjb.s 			page 3


  41:Generated_Source\PSoC5/Touch_AMux.c **** 
  42:Generated_Source\PSoC5/Touch_AMux.c **** 
  43:Generated_Source\PSoC5/Touch_AMux.c **** /*******************************************************************************
  44:Generated_Source\PSoC5/Touch_AMux.c **** * Function Name: Touch_AMux_Init
  45:Generated_Source\PSoC5/Touch_AMux.c **** ********************************************************************************
  46:Generated_Source\PSoC5/Touch_AMux.c **** * Summary:
  47:Generated_Source\PSoC5/Touch_AMux.c **** *  Disconnect all channels. The next time Next is called, channel 0 will be
  48:Generated_Source\PSoC5/Touch_AMux.c **** *  connected.
  49:Generated_Source\PSoC5/Touch_AMux.c **** *
  50:Generated_Source\PSoC5/Touch_AMux.c **** * Parameters:
  51:Generated_Source\PSoC5/Touch_AMux.c **** *  void
  52:Generated_Source\PSoC5/Touch_AMux.c **** *
  53:Generated_Source\PSoC5/Touch_AMux.c **** * Return:
  54:Generated_Source\PSoC5/Touch_AMux.c **** *  void
  55:Generated_Source\PSoC5/Touch_AMux.c **** *
  56:Generated_Source\PSoC5/Touch_AMux.c **** *******************************************************************************/
  57:Generated_Source\PSoC5/Touch_AMux.c **** void Touch_AMux_Init(void)
  58:Generated_Source\PSoC5/Touch_AMux.c **** {
  59:Generated_Source\PSoC5/Touch_AMux.c ****     Touch_AMux_DisconnectAll();
  60:Generated_Source\PSoC5/Touch_AMux.c **** }
  61:Generated_Source\PSoC5/Touch_AMux.c **** 
  62:Generated_Source\PSoC5/Touch_AMux.c **** 
  63:Generated_Source\PSoC5/Touch_AMux.c **** /*******************************************************************************
  64:Generated_Source\PSoC5/Touch_AMux.c **** * Function Name: Touch_AMux_Stop
  65:Generated_Source\PSoC5/Touch_AMux.c **** ********************************************************************************
  66:Generated_Source\PSoC5/Touch_AMux.c **** * Summary:
  67:Generated_Source\PSoC5/Touch_AMux.c **** *  Disconnect all channels. The next time Next is called, channel 0 will be
  68:Generated_Source\PSoC5/Touch_AMux.c **** *  connected.
  69:Generated_Source\PSoC5/Touch_AMux.c **** *
  70:Generated_Source\PSoC5/Touch_AMux.c **** * Parameters:
  71:Generated_Source\PSoC5/Touch_AMux.c **** *  void
  72:Generated_Source\PSoC5/Touch_AMux.c **** *
  73:Generated_Source\PSoC5/Touch_AMux.c **** * Return:
  74:Generated_Source\PSoC5/Touch_AMux.c **** *  void
  75:Generated_Source\PSoC5/Touch_AMux.c **** *
  76:Generated_Source\PSoC5/Touch_AMux.c **** *******************************************************************************/
  77:Generated_Source\PSoC5/Touch_AMux.c **** void Touch_AMux_Stop(void)
  78:Generated_Source\PSoC5/Touch_AMux.c **** {
  75              		.loc 1 78 0
  76              		.cfi_startproc
  77              		@ args = 0, pretend = 0, frame = 0
  78              		@ frame_needed = 0, uses_anonymous_args = 0
  79              		@ link register save eliminated.
  79:Generated_Source\PSoC5/Touch_AMux.c ****     Touch_AMux_DisconnectAll();
  80              		.loc 1 79 0
  81 0000 FFF7FEBF 		b	Touch_AMux_DisconnectAll
  82              	.LVL1:
  83              		.cfi_endproc
  84              	.LFE2:
  85              		.size	Touch_AMux_Stop, .-Touch_AMux_Stop
  86              		.section	.text.Touch_AMux_GetChannel,"ax",%progbits
  87              		.align	1
  88              		.global	Touch_AMux_GetChannel
  89              		.thumb
  90              		.thumb_func
  91              		.type	Touch_AMux_GetChannel, %function
  92              	Touch_AMux_GetChannel:
ARM GAS  C:\Users\emman\AppData\Local\Temp\ccx9GEjb.s 			page 4


  93              	.LFB3:
  80:Generated_Source\PSoC5/Touch_AMux.c **** }
  81:Generated_Source\PSoC5/Touch_AMux.c **** 
  82:Generated_Source\PSoC5/Touch_AMux.c **** #if (Touch_AMux_MUXTYPE == Touch_AMux_MUX_DIFF)
  83:Generated_Source\PSoC5/Touch_AMux.c **** 
  84:Generated_Source\PSoC5/Touch_AMux.c **** /*******************************************************************************
  85:Generated_Source\PSoC5/Touch_AMux.c **** * Function Name: Touch_AMux_Next
  86:Generated_Source\PSoC5/Touch_AMux.c **** ********************************************************************************
  87:Generated_Source\PSoC5/Touch_AMux.c **** * Summary:
  88:Generated_Source\PSoC5/Touch_AMux.c **** *  Disconnects the previous channel and connects the next one in the sequence.
  89:Generated_Source\PSoC5/Touch_AMux.c **** *  When Next is called for the first time after Init, Start, Enable, Stop, or
  90:Generated_Source\PSoC5/Touch_AMux.c **** *  DisconnectAll, it connects channel 0.
  91:Generated_Source\PSoC5/Touch_AMux.c **** *
  92:Generated_Source\PSoC5/Touch_AMux.c **** * Parameters:
  93:Generated_Source\PSoC5/Touch_AMux.c **** *  void
  94:Generated_Source\PSoC5/Touch_AMux.c **** *
  95:Generated_Source\PSoC5/Touch_AMux.c **** * Return:
  96:Generated_Source\PSoC5/Touch_AMux.c **** *  void
  97:Generated_Source\PSoC5/Touch_AMux.c **** *
  98:Generated_Source\PSoC5/Touch_AMux.c **** *******************************************************************************/
  99:Generated_Source\PSoC5/Touch_AMux.c **** void Touch_AMux_Next(void)
 100:Generated_Source\PSoC5/Touch_AMux.c **** {
 101:Generated_Source\PSoC5/Touch_AMux.c ****     Touch_AMux_CYAMUXSIDE_A_Next();
 102:Generated_Source\PSoC5/Touch_AMux.c ****     Touch_AMux_CYAMUXSIDE_B_Next();
 103:Generated_Source\PSoC5/Touch_AMux.c **** }
 104:Generated_Source\PSoC5/Touch_AMux.c **** 
 105:Generated_Source\PSoC5/Touch_AMux.c **** 
 106:Generated_Source\PSoC5/Touch_AMux.c **** /*******************************************************************************
 107:Generated_Source\PSoC5/Touch_AMux.c **** * Function Name: Touch_AMux_DisconnectAll
 108:Generated_Source\PSoC5/Touch_AMux.c **** ********************************************************************************
 109:Generated_Source\PSoC5/Touch_AMux.c **** * Summary:
 110:Generated_Source\PSoC5/Touch_AMux.c **** *  This function disconnects all channels. The next time Next is called, channel
 111:Generated_Source\PSoC5/Touch_AMux.c **** *  0 will be connected.
 112:Generated_Source\PSoC5/Touch_AMux.c **** *
 113:Generated_Source\PSoC5/Touch_AMux.c **** * Parameters:
 114:Generated_Source\PSoC5/Touch_AMux.c **** *  void
 115:Generated_Source\PSoC5/Touch_AMux.c **** *
 116:Generated_Source\PSoC5/Touch_AMux.c **** * Return:
 117:Generated_Source\PSoC5/Touch_AMux.c **** *  void
 118:Generated_Source\PSoC5/Touch_AMux.c **** *
 119:Generated_Source\PSoC5/Touch_AMux.c **** *******************************************************************************/
 120:Generated_Source\PSoC5/Touch_AMux.c **** void Touch_AMux_DisconnectAll(void)
 121:Generated_Source\PSoC5/Touch_AMux.c **** {
 122:Generated_Source\PSoC5/Touch_AMux.c ****     Touch_AMux_CYAMUXSIDE_A_DisconnectAll();
 123:Generated_Source\PSoC5/Touch_AMux.c ****     Touch_AMux_CYAMUXSIDE_B_DisconnectAll();
 124:Generated_Source\PSoC5/Touch_AMux.c **** }
 125:Generated_Source\PSoC5/Touch_AMux.c **** 
 126:Generated_Source\PSoC5/Touch_AMux.c **** 
 127:Generated_Source\PSoC5/Touch_AMux.c **** /*******************************************************************************
 128:Generated_Source\PSoC5/Touch_AMux.c **** * Function Name: Touch_AMux_GetChannel
 129:Generated_Source\PSoC5/Touch_AMux.c **** ********************************************************************************
 130:Generated_Source\PSoC5/Touch_AMux.c **** * Summary:
 131:Generated_Source\PSoC5/Touch_AMux.c **** *  The currently connected channel is retuned. If no channel is connected
 132:Generated_Source\PSoC5/Touch_AMux.c **** *  returns -1.
 133:Generated_Source\PSoC5/Touch_AMux.c **** *
 134:Generated_Source\PSoC5/Touch_AMux.c **** * Parameters:
 135:Generated_Source\PSoC5/Touch_AMux.c **** *  void
ARM GAS  C:\Users\emman\AppData\Local\Temp\ccx9GEjb.s 			page 5


 136:Generated_Source\PSoC5/Touch_AMux.c **** *
 137:Generated_Source\PSoC5/Touch_AMux.c **** * Return:
 138:Generated_Source\PSoC5/Touch_AMux.c **** *  The current channel or -1.
 139:Generated_Source\PSoC5/Touch_AMux.c **** *
 140:Generated_Source\PSoC5/Touch_AMux.c **** *******************************************************************************/
 141:Generated_Source\PSoC5/Touch_AMux.c **** int8 Touch_AMux_GetChannel(void)
 142:Generated_Source\PSoC5/Touch_AMux.c **** {
 143:Generated_Source\PSoC5/Touch_AMux.c ****     return Touch_AMux_CYAMUXSIDE_A_curChannel;
 144:Generated_Source\PSoC5/Touch_AMux.c **** }
 145:Generated_Source\PSoC5/Touch_AMux.c **** 
 146:Generated_Source\PSoC5/Touch_AMux.c **** #else
 147:Generated_Source\PSoC5/Touch_AMux.c **** 
 148:Generated_Source\PSoC5/Touch_AMux.c **** /*******************************************************************************
 149:Generated_Source\PSoC5/Touch_AMux.c **** * Function Name: Touch_AMux_GetChannel
 150:Generated_Source\PSoC5/Touch_AMux.c **** ********************************************************************************
 151:Generated_Source\PSoC5/Touch_AMux.c **** * Summary:
 152:Generated_Source\PSoC5/Touch_AMux.c **** *  The currently connected channel is retuned. If no channel is connected
 153:Generated_Source\PSoC5/Touch_AMux.c **** *  returns -1.
 154:Generated_Source\PSoC5/Touch_AMux.c **** *
 155:Generated_Source\PSoC5/Touch_AMux.c **** * Parameters:
 156:Generated_Source\PSoC5/Touch_AMux.c **** *  void
 157:Generated_Source\PSoC5/Touch_AMux.c **** *
 158:Generated_Source\PSoC5/Touch_AMux.c **** * Return:
 159:Generated_Source\PSoC5/Touch_AMux.c **** *  The current channel or -1.
 160:Generated_Source\PSoC5/Touch_AMux.c **** *
 161:Generated_Source\PSoC5/Touch_AMux.c **** *******************************************************************************/
 162:Generated_Source\PSoC5/Touch_AMux.c **** int8 Touch_AMux_GetChannel(void)
 163:Generated_Source\PSoC5/Touch_AMux.c **** {
  94              		.loc 1 163 0
  95              		.cfi_startproc
  96              		@ args = 0, pretend = 0, frame = 0
  97              		@ frame_needed = 0, uses_anonymous_args = 0
  98              		@ link register save eliminated.
 164:Generated_Source\PSoC5/Touch_AMux.c ****     return Touch_AMux_curChannel;
 165:Generated_Source\PSoC5/Touch_AMux.c **** }
  99              		.loc 1 165 0
 100 0000 014B     		ldr	r3, .L7
 101 0002 93F90000 		ldrsb	r0, [r3]
 102 0006 7047     		bx	lr
 103              	.L8:
 104              		.align	2
 105              	.L7:
 106 0008 00000000 		.word	Touch_AMux_curChannel
 107              		.cfi_endproc
 108              	.LFE3:
 109              		.size	Touch_AMux_GetChannel, .-Touch_AMux_GetChannel
 110              		.global	Touch_AMux_initVar
 111              		.bss
 112              		.set	.LANCHOR0,. + 0
 113              		.type	Touch_AMux_initVar, %object
 114              		.size	Touch_AMux_initVar, 1
 115              	Touch_AMux_initVar:
 116 0000 00       		.space	1
 117              		.text
 118              	.Letext0:
 119              		.file 2 "Generated_Source\\PSoC5\\cytypes.h"
 120              		.file 3 "Generated_Source\\PSoC5\\cyfitter_cfg.h"
ARM GAS  C:\Users\emman\AppData\Local\Temp\ccx9GEjb.s 			page 6

